ARM GAS  /tmp/ccE6739X.s 			page 1


   1              		.cpu cortex-m3
   2              		.eabi_attribute 20, 1
   3              		.eabi_attribute 21, 1
   4              		.eabi_attribute 23, 3
   5              		.eabi_attribute 24, 1
   6              		.eabi_attribute 25, 1
   7              		.eabi_attribute 26, 1
   8              		.eabi_attribute 30, 6
   9              		.eabi_attribute 34, 1
  10              		.eabi_attribute 18, 4
  11              		.file	"stm32f10x_flash.c"
  12              		.text
  13              	.Ltext0:
  14              		.cfi_sections	.debug_frame
  15              		.section	.text.FLASH_SetLatency,"ax",%progbits
  16              		.align	1
  17              		.global	FLASH_SetLatency
  18              		.arch armv7-m
  19              		.syntax unified
  20              		.thumb
  21              		.thumb_func
  22              		.fpu softvfp
  24              	FLASH_SetLatency:
  25              	.LFB29:
  26              		.file 1 "./Libraries/STM32F10x_StdPeriph_Driver/src/stm32f10x_flash.c"
   1:./Libraries/STM32F10x_StdPeriph_Driver/src/stm32f10x_flash.c **** /**
   2:./Libraries/STM32F10x_StdPeriph_Driver/src/stm32f10x_flash.c ****   ******************************************************************************
   3:./Libraries/STM32F10x_StdPeriph_Driver/src/stm32f10x_flash.c ****   * @file    stm32f10x_flash.c
   4:./Libraries/STM32F10x_StdPeriph_Driver/src/stm32f10x_flash.c ****   * @author  MCD Application Team
   5:./Libraries/STM32F10x_StdPeriph_Driver/src/stm32f10x_flash.c ****   * @version V3.5.0
   6:./Libraries/STM32F10x_StdPeriph_Driver/src/stm32f10x_flash.c ****   * @date    11-March-2011
   7:./Libraries/STM32F10x_StdPeriph_Driver/src/stm32f10x_flash.c ****   * @brief   This file provides all the FLASH firmware functions.
   8:./Libraries/STM32F10x_StdPeriph_Driver/src/stm32f10x_flash.c ****   ******************************************************************************
   9:./Libraries/STM32F10x_StdPeriph_Driver/src/stm32f10x_flash.c ****   * @attention
  10:./Libraries/STM32F10x_StdPeriph_Driver/src/stm32f10x_flash.c ****   *
  11:./Libraries/STM32F10x_StdPeriph_Driver/src/stm32f10x_flash.c ****   * THE PRESENT FIRMWARE WHICH IS FOR GUIDANCE ONLY AIMS AT PROVIDING CUSTOMERS
  12:./Libraries/STM32F10x_StdPeriph_Driver/src/stm32f10x_flash.c ****   * WITH CODING INFORMATION REGARDING THEIR PRODUCTS IN ORDER FOR THEM TO SAVE
  13:./Libraries/STM32F10x_StdPeriph_Driver/src/stm32f10x_flash.c ****   * TIME. AS A RESULT, STMICROELECTRONICS SHALL NOT BE HELD LIABLE FOR ANY
  14:./Libraries/STM32F10x_StdPeriph_Driver/src/stm32f10x_flash.c ****   * DIRECT, INDIRECT OR CONSEQUENTIAL DAMAGES WITH RESPECT TO ANY CLAIMS ARISING
  15:./Libraries/STM32F10x_StdPeriph_Driver/src/stm32f10x_flash.c ****   * FROM THE CONTENT OF SUCH FIRMWARE AND/OR THE USE MADE BY CUSTOMERS OF THE
  16:./Libraries/STM32F10x_StdPeriph_Driver/src/stm32f10x_flash.c ****   * CODING INFORMATION CONTAINED HEREIN IN CONNECTION WITH THEIR PRODUCTS.
  17:./Libraries/STM32F10x_StdPeriph_Driver/src/stm32f10x_flash.c ****   *
  18:./Libraries/STM32F10x_StdPeriph_Driver/src/stm32f10x_flash.c ****   * <h2><center>&copy; COPYRIGHT 2011 STMicroelectronics</center></h2>
  19:./Libraries/STM32F10x_StdPeriph_Driver/src/stm32f10x_flash.c ****   ******************************************************************************
  20:./Libraries/STM32F10x_StdPeriph_Driver/src/stm32f10x_flash.c ****   */
  21:./Libraries/STM32F10x_StdPeriph_Driver/src/stm32f10x_flash.c **** 
  22:./Libraries/STM32F10x_StdPeriph_Driver/src/stm32f10x_flash.c **** /* Includes ------------------------------------------------------------------*/
  23:./Libraries/STM32F10x_StdPeriph_Driver/src/stm32f10x_flash.c **** #include "stm32f10x_flash.h"
  24:./Libraries/STM32F10x_StdPeriph_Driver/src/stm32f10x_flash.c **** 
  25:./Libraries/STM32F10x_StdPeriph_Driver/src/stm32f10x_flash.c **** /** @addtogroup STM32F10x_StdPeriph_Driver
  26:./Libraries/STM32F10x_StdPeriph_Driver/src/stm32f10x_flash.c ****   * @{
  27:./Libraries/STM32F10x_StdPeriph_Driver/src/stm32f10x_flash.c ****   */
  28:./Libraries/STM32F10x_StdPeriph_Driver/src/stm32f10x_flash.c **** 
  29:./Libraries/STM32F10x_StdPeriph_Driver/src/stm32f10x_flash.c **** /** @defgroup FLASH 
  30:./Libraries/STM32F10x_StdPeriph_Driver/src/stm32f10x_flash.c ****   * @brief FLASH driver modules
  31:./Libraries/STM32F10x_StdPeriph_Driver/src/stm32f10x_flash.c ****   * @{
  32:./Libraries/STM32F10x_StdPeriph_Driver/src/stm32f10x_flash.c ****   */ 
ARM GAS  /tmp/ccE6739X.s 			page 2


  33:./Libraries/STM32F10x_StdPeriph_Driver/src/stm32f10x_flash.c **** 
  34:./Libraries/STM32F10x_StdPeriph_Driver/src/stm32f10x_flash.c **** /** @defgroup FLASH_Private_TypesDefinitions
  35:./Libraries/STM32F10x_StdPeriph_Driver/src/stm32f10x_flash.c ****   * @{
  36:./Libraries/STM32F10x_StdPeriph_Driver/src/stm32f10x_flash.c ****   */
  37:./Libraries/STM32F10x_StdPeriph_Driver/src/stm32f10x_flash.c **** 
  38:./Libraries/STM32F10x_StdPeriph_Driver/src/stm32f10x_flash.c **** /**
  39:./Libraries/STM32F10x_StdPeriph_Driver/src/stm32f10x_flash.c ****   * @}
  40:./Libraries/STM32F10x_StdPeriph_Driver/src/stm32f10x_flash.c ****   */ 
  41:./Libraries/STM32F10x_StdPeriph_Driver/src/stm32f10x_flash.c **** 
  42:./Libraries/STM32F10x_StdPeriph_Driver/src/stm32f10x_flash.c **** /** @defgroup FLASH_Private_Defines
  43:./Libraries/STM32F10x_StdPeriph_Driver/src/stm32f10x_flash.c ****   * @{
  44:./Libraries/STM32F10x_StdPeriph_Driver/src/stm32f10x_flash.c ****   */ 
  45:./Libraries/STM32F10x_StdPeriph_Driver/src/stm32f10x_flash.c **** 
  46:./Libraries/STM32F10x_StdPeriph_Driver/src/stm32f10x_flash.c **** /* Flash Access Control Register bits */
  47:./Libraries/STM32F10x_StdPeriph_Driver/src/stm32f10x_flash.c **** #define ACR_LATENCY_Mask         ((uint32_t)0x00000038)
  48:./Libraries/STM32F10x_StdPeriph_Driver/src/stm32f10x_flash.c **** #define ACR_HLFCYA_Mask          ((uint32_t)0xFFFFFFF7)
  49:./Libraries/STM32F10x_StdPeriph_Driver/src/stm32f10x_flash.c **** #define ACR_PRFTBE_Mask          ((uint32_t)0xFFFFFFEF)
  50:./Libraries/STM32F10x_StdPeriph_Driver/src/stm32f10x_flash.c **** 
  51:./Libraries/STM32F10x_StdPeriph_Driver/src/stm32f10x_flash.c **** /* Flash Access Control Register bits */
  52:./Libraries/STM32F10x_StdPeriph_Driver/src/stm32f10x_flash.c **** #define ACR_PRFTBS_Mask          ((uint32_t)0x00000020) 
  53:./Libraries/STM32F10x_StdPeriph_Driver/src/stm32f10x_flash.c **** 
  54:./Libraries/STM32F10x_StdPeriph_Driver/src/stm32f10x_flash.c **** /* Flash Control Register bits */
  55:./Libraries/STM32F10x_StdPeriph_Driver/src/stm32f10x_flash.c **** #define CR_PG_Set                ((uint32_t)0x00000001)
  56:./Libraries/STM32F10x_StdPeriph_Driver/src/stm32f10x_flash.c **** #define CR_PG_Reset              ((uint32_t)0x00001FFE) 
  57:./Libraries/STM32F10x_StdPeriph_Driver/src/stm32f10x_flash.c **** #define CR_PER_Set               ((uint32_t)0x00000002)
  58:./Libraries/STM32F10x_StdPeriph_Driver/src/stm32f10x_flash.c **** #define CR_PER_Reset             ((uint32_t)0x00001FFD)
  59:./Libraries/STM32F10x_StdPeriph_Driver/src/stm32f10x_flash.c **** #define CR_MER_Set               ((uint32_t)0x00000004)
  60:./Libraries/STM32F10x_StdPeriph_Driver/src/stm32f10x_flash.c **** #define CR_MER_Reset             ((uint32_t)0x00001FFB)
  61:./Libraries/STM32F10x_StdPeriph_Driver/src/stm32f10x_flash.c **** #define CR_OPTPG_Set             ((uint32_t)0x00000010)
  62:./Libraries/STM32F10x_StdPeriph_Driver/src/stm32f10x_flash.c **** #define CR_OPTPG_Reset           ((uint32_t)0x00001FEF)
  63:./Libraries/STM32F10x_StdPeriph_Driver/src/stm32f10x_flash.c **** #define CR_OPTER_Set             ((uint32_t)0x00000020)
  64:./Libraries/STM32F10x_StdPeriph_Driver/src/stm32f10x_flash.c **** #define CR_OPTER_Reset           ((uint32_t)0x00001FDF)
  65:./Libraries/STM32F10x_StdPeriph_Driver/src/stm32f10x_flash.c **** #define CR_STRT_Set              ((uint32_t)0x00000040)
  66:./Libraries/STM32F10x_StdPeriph_Driver/src/stm32f10x_flash.c **** #define CR_LOCK_Set              ((uint32_t)0x00000080)
  67:./Libraries/STM32F10x_StdPeriph_Driver/src/stm32f10x_flash.c **** 
  68:./Libraries/STM32F10x_StdPeriph_Driver/src/stm32f10x_flash.c **** /* FLASH Mask */
  69:./Libraries/STM32F10x_StdPeriph_Driver/src/stm32f10x_flash.c **** #define RDPRT_Mask               ((uint32_t)0x00000002)
  70:./Libraries/STM32F10x_StdPeriph_Driver/src/stm32f10x_flash.c **** #define WRP0_Mask                ((uint32_t)0x000000FF)
  71:./Libraries/STM32F10x_StdPeriph_Driver/src/stm32f10x_flash.c **** #define WRP1_Mask                ((uint32_t)0x0000FF00)
  72:./Libraries/STM32F10x_StdPeriph_Driver/src/stm32f10x_flash.c **** #define WRP2_Mask                ((uint32_t)0x00FF0000)
  73:./Libraries/STM32F10x_StdPeriph_Driver/src/stm32f10x_flash.c **** #define WRP3_Mask                ((uint32_t)0xFF000000)
  74:./Libraries/STM32F10x_StdPeriph_Driver/src/stm32f10x_flash.c **** #define OB_USER_BFB2             ((uint16_t)0x0008)
  75:./Libraries/STM32F10x_StdPeriph_Driver/src/stm32f10x_flash.c **** 
  76:./Libraries/STM32F10x_StdPeriph_Driver/src/stm32f10x_flash.c **** /* FLASH Keys */
  77:./Libraries/STM32F10x_StdPeriph_Driver/src/stm32f10x_flash.c **** #define RDP_Key                  ((uint16_t)0x00A5)
  78:./Libraries/STM32F10x_StdPeriph_Driver/src/stm32f10x_flash.c **** #define FLASH_KEY1               ((uint32_t)0x45670123)
  79:./Libraries/STM32F10x_StdPeriph_Driver/src/stm32f10x_flash.c **** #define FLASH_KEY2               ((uint32_t)0xCDEF89AB)
  80:./Libraries/STM32F10x_StdPeriph_Driver/src/stm32f10x_flash.c **** 
  81:./Libraries/STM32F10x_StdPeriph_Driver/src/stm32f10x_flash.c **** /* FLASH BANK address */
  82:./Libraries/STM32F10x_StdPeriph_Driver/src/stm32f10x_flash.c **** #define FLASH_BANK1_END_ADDRESS   ((uint32_t)0x807FFFF)
  83:./Libraries/STM32F10x_StdPeriph_Driver/src/stm32f10x_flash.c **** 
  84:./Libraries/STM32F10x_StdPeriph_Driver/src/stm32f10x_flash.c **** /* Delay definition */   
  85:./Libraries/STM32F10x_StdPeriph_Driver/src/stm32f10x_flash.c **** #define EraseTimeout          ((uint32_t)0x000B0000)
  86:./Libraries/STM32F10x_StdPeriph_Driver/src/stm32f10x_flash.c **** #define ProgramTimeout        ((uint32_t)0x00002000)
  87:./Libraries/STM32F10x_StdPeriph_Driver/src/stm32f10x_flash.c **** /**
  88:./Libraries/STM32F10x_StdPeriph_Driver/src/stm32f10x_flash.c ****   * @}
  89:./Libraries/STM32F10x_StdPeriph_Driver/src/stm32f10x_flash.c ****   */ 
ARM GAS  /tmp/ccE6739X.s 			page 3


  90:./Libraries/STM32F10x_StdPeriph_Driver/src/stm32f10x_flash.c **** 
  91:./Libraries/STM32F10x_StdPeriph_Driver/src/stm32f10x_flash.c **** /** @defgroup FLASH_Private_Macros
  92:./Libraries/STM32F10x_StdPeriph_Driver/src/stm32f10x_flash.c ****   * @{
  93:./Libraries/STM32F10x_StdPeriph_Driver/src/stm32f10x_flash.c ****   */
  94:./Libraries/STM32F10x_StdPeriph_Driver/src/stm32f10x_flash.c **** 
  95:./Libraries/STM32F10x_StdPeriph_Driver/src/stm32f10x_flash.c **** /**
  96:./Libraries/STM32F10x_StdPeriph_Driver/src/stm32f10x_flash.c ****   * @}
  97:./Libraries/STM32F10x_StdPeriph_Driver/src/stm32f10x_flash.c ****   */ 
  98:./Libraries/STM32F10x_StdPeriph_Driver/src/stm32f10x_flash.c **** 
  99:./Libraries/STM32F10x_StdPeriph_Driver/src/stm32f10x_flash.c **** /** @defgroup FLASH_Private_Variables
 100:./Libraries/STM32F10x_StdPeriph_Driver/src/stm32f10x_flash.c ****   * @{
 101:./Libraries/STM32F10x_StdPeriph_Driver/src/stm32f10x_flash.c ****   */
 102:./Libraries/STM32F10x_StdPeriph_Driver/src/stm32f10x_flash.c **** 
 103:./Libraries/STM32F10x_StdPeriph_Driver/src/stm32f10x_flash.c **** /**
 104:./Libraries/STM32F10x_StdPeriph_Driver/src/stm32f10x_flash.c ****   * @}
 105:./Libraries/STM32F10x_StdPeriph_Driver/src/stm32f10x_flash.c ****   */ 
 106:./Libraries/STM32F10x_StdPeriph_Driver/src/stm32f10x_flash.c **** 
 107:./Libraries/STM32F10x_StdPeriph_Driver/src/stm32f10x_flash.c **** /** @defgroup FLASH_Private_FunctionPrototypes
 108:./Libraries/STM32F10x_StdPeriph_Driver/src/stm32f10x_flash.c ****   * @{
 109:./Libraries/STM32F10x_StdPeriph_Driver/src/stm32f10x_flash.c ****   */
 110:./Libraries/STM32F10x_StdPeriph_Driver/src/stm32f10x_flash.c ****   
 111:./Libraries/STM32F10x_StdPeriph_Driver/src/stm32f10x_flash.c **** /**
 112:./Libraries/STM32F10x_StdPeriph_Driver/src/stm32f10x_flash.c ****   * @}
 113:./Libraries/STM32F10x_StdPeriph_Driver/src/stm32f10x_flash.c ****   */
 114:./Libraries/STM32F10x_StdPeriph_Driver/src/stm32f10x_flash.c **** 
 115:./Libraries/STM32F10x_StdPeriph_Driver/src/stm32f10x_flash.c **** /** @defgroup FLASH_Private_Functions
 116:./Libraries/STM32F10x_StdPeriph_Driver/src/stm32f10x_flash.c ****   * @{
 117:./Libraries/STM32F10x_StdPeriph_Driver/src/stm32f10x_flash.c ****   */
 118:./Libraries/STM32F10x_StdPeriph_Driver/src/stm32f10x_flash.c **** 
 119:./Libraries/STM32F10x_StdPeriph_Driver/src/stm32f10x_flash.c **** /**
 120:./Libraries/STM32F10x_StdPeriph_Driver/src/stm32f10x_flash.c **** @code  
 121:./Libraries/STM32F10x_StdPeriph_Driver/src/stm32f10x_flash.c ****  
 122:./Libraries/STM32F10x_StdPeriph_Driver/src/stm32f10x_flash.c ****  This driver provides functions to configure and program the Flash memory of all STM32F10x devices,
 123:./Libraries/STM32F10x_StdPeriph_Driver/src/stm32f10x_flash.c ****  including the latest STM32F10x_XL density devices. 
 124:./Libraries/STM32F10x_StdPeriph_Driver/src/stm32f10x_flash.c **** 
 125:./Libraries/STM32F10x_StdPeriph_Driver/src/stm32f10x_flash.c ****  STM32F10x_XL devices feature up to 1 Mbyte with dual bank architecture for read-while-write (RWW) 
 126:./Libraries/STM32F10x_StdPeriph_Driver/src/stm32f10x_flash.c ****     - bank1: fixed size of 512 Kbytes (256 pages of 2Kbytes each)
 127:./Libraries/STM32F10x_StdPeriph_Driver/src/stm32f10x_flash.c ****     - bank2: up to 512 Kbytes (up to 256 pages of 2Kbytes each)
 128:./Libraries/STM32F10x_StdPeriph_Driver/src/stm32f10x_flash.c ****  While other STM32F10x devices features only one bank with memory up to 512 Kbytes.
 129:./Libraries/STM32F10x_StdPeriph_Driver/src/stm32f10x_flash.c **** 
 130:./Libraries/STM32F10x_StdPeriph_Driver/src/stm32f10x_flash.c ****  In version V3.3.0, some functions were updated and new ones were added to support
 131:./Libraries/STM32F10x_StdPeriph_Driver/src/stm32f10x_flash.c ****  STM32F10x_XL devices. Thus some functions manages all devices, while other are 
 132:./Libraries/STM32F10x_StdPeriph_Driver/src/stm32f10x_flash.c ****  dedicated for XL devices only.
 133:./Libraries/STM32F10x_StdPeriph_Driver/src/stm32f10x_flash.c ****  
 134:./Libraries/STM32F10x_StdPeriph_Driver/src/stm32f10x_flash.c ****  The table below presents the list of available functions depending on the used STM32F10x devices. 
 135:./Libraries/STM32F10x_StdPeriph_Driver/src/stm32f10x_flash.c ****       
 136:./Libraries/STM32F10x_StdPeriph_Driver/src/stm32f10x_flash.c ****    ***************************************************
 137:./Libraries/STM32F10x_StdPeriph_Driver/src/stm32f10x_flash.c ****    * Legacy functions used for all STM32F10x devices *
 138:./Libraries/STM32F10x_StdPeriph_Driver/src/stm32f10x_flash.c ****    ***************************************************
 139:./Libraries/STM32F10x_StdPeriph_Driver/src/stm32f10x_flash.c ****    +-----------------------------------------------------------------------------------------------
 140:./Libraries/STM32F10x_StdPeriph_Driver/src/stm32f10x_flash.c ****    |       Functions prototypes         |STM32F10x_XL|Other STM32F10x|    Comments                 
 141:./Libraries/STM32F10x_StdPeriph_Driver/src/stm32f10x_flash.c ****    |                                    |   devices  |  devices      |                             
 142:./Libraries/STM32F10x_StdPeriph_Driver/src/stm32f10x_flash.c ****    |-----------------------------------------------------------------------------------------------
 143:./Libraries/STM32F10x_StdPeriph_Driver/src/stm32f10x_flash.c ****    |FLASH_SetLatency                    |    Yes     |      Yes      | No change                   
 144:./Libraries/STM32F10x_StdPeriph_Driver/src/stm32f10x_flash.c ****    |-----------------------------------------------------------------------------------------------
 145:./Libraries/STM32F10x_StdPeriph_Driver/src/stm32f10x_flash.c ****    |FLASH_HalfCycleAccessCmd            |    Yes     |      Yes      | No change                   
 146:./Libraries/STM32F10x_StdPeriph_Driver/src/stm32f10x_flash.c ****    |-----------------------------------------------------------------------------------------------
ARM GAS  /tmp/ccE6739X.s 			page 4


 147:./Libraries/STM32F10x_StdPeriph_Driver/src/stm32f10x_flash.c ****    |FLASH_PrefetchBufferCmd             |    Yes     |      Yes      | No change                   
 148:./Libraries/STM32F10x_StdPeriph_Driver/src/stm32f10x_flash.c ****    |-----------------------------------------------------------------------------------------------
 149:./Libraries/STM32F10x_StdPeriph_Driver/src/stm32f10x_flash.c ****    |FLASH_Unlock                        |    Yes     |      Yes      | - For STM32F10X_XL devices: 
 150:./Libraries/STM32F10x_StdPeriph_Driver/src/stm32f10x_flash.c ****    |                                    |            |               | - For other devices: unlock 
 151:./Libraries/STM32F10x_StdPeriph_Driver/src/stm32f10x_flash.c ****    |                                    |            |               |   to FLASH_UnlockBank1 funct
 152:./Libraries/STM32F10x_StdPeriph_Driver/src/stm32f10x_flash.c ****    |-----------------------------------------------------------------------------------------------
 153:./Libraries/STM32F10x_StdPeriph_Driver/src/stm32f10x_flash.c ****    |FLASH_Lock                          |    Yes     |      Yes      | - For STM32F10X_XL devices: 
 154:./Libraries/STM32F10x_StdPeriph_Driver/src/stm32f10x_flash.c ****    |                                    |            |               | - For other devices: lock Ba
 155:./Libraries/STM32F10x_StdPeriph_Driver/src/stm32f10x_flash.c ****    |                                    |            |               |   to FLASH_LockBank1 functio
 156:./Libraries/STM32F10x_StdPeriph_Driver/src/stm32f10x_flash.c ****    |-----------------------------------------------------------------------------------------------
 157:./Libraries/STM32F10x_StdPeriph_Driver/src/stm32f10x_flash.c ****    |FLASH_ErasePage                     |    Yes     |      Yes      | - For STM32F10x_XL devices: 
 158:./Libraries/STM32F10x_StdPeriph_Driver/src/stm32f10x_flash.c ****    |                                    |            |               | - For other devices: erase a
 159:./Libraries/STM32F10x_StdPeriph_Driver/src/stm32f10x_flash.c ****    |-----------------------------------------------------------------------------------------------
 160:./Libraries/STM32F10x_StdPeriph_Driver/src/stm32f10x_flash.c ****    |FLASH_EraseAllPages                 |    Yes     |      Yes      | - For STM32F10x_XL devices: 
 161:./Libraries/STM32F10x_StdPeriph_Driver/src/stm32f10x_flash.c ****    |                                    |            |               | - For other devices: erase a
 162:./Libraries/STM32F10x_StdPeriph_Driver/src/stm32f10x_flash.c ****    |-----------------------------------------------------------------------------------------------
 163:./Libraries/STM32F10x_StdPeriph_Driver/src/stm32f10x_flash.c ****    |FLASH_EraseOptionBytes              |    Yes     |      Yes      | No change                   
 164:./Libraries/STM32F10x_StdPeriph_Driver/src/stm32f10x_flash.c ****    |-----------------------------------------------------------------------------------------------
 165:./Libraries/STM32F10x_StdPeriph_Driver/src/stm32f10x_flash.c ****    |FLASH_ProgramWord                   |    Yes     |      Yes      | Updated to program up to 1MB
 166:./Libraries/STM32F10x_StdPeriph_Driver/src/stm32f10x_flash.c ****    |-----------------------------------------------------------------------------------------------
 167:./Libraries/STM32F10x_StdPeriph_Driver/src/stm32f10x_flash.c ****    |FLASH_ProgramHalfWord               |    Yes     |      Yes      | Updated to program up to 1MB
 168:./Libraries/STM32F10x_StdPeriph_Driver/src/stm32f10x_flash.c ****    |-----------------------------------------------------------------------------------------------
 169:./Libraries/STM32F10x_StdPeriph_Driver/src/stm32f10x_flash.c ****    |FLASH_ProgramOptionByteData         |    Yes     |      Yes      | No change                   
 170:./Libraries/STM32F10x_StdPeriph_Driver/src/stm32f10x_flash.c ****    |-----------------------------------------------------------------------------------------------
 171:./Libraries/STM32F10x_StdPeriph_Driver/src/stm32f10x_flash.c ****    |FLASH_EnableWriteProtection         |    Yes     |      Yes      | No change                   
 172:./Libraries/STM32F10x_StdPeriph_Driver/src/stm32f10x_flash.c ****    |-----------------------------------------------------------------------------------------------
 173:./Libraries/STM32F10x_StdPeriph_Driver/src/stm32f10x_flash.c ****    |FLASH_ReadOutProtection             |    Yes     |      Yes      | No change                   
 174:./Libraries/STM32F10x_StdPeriph_Driver/src/stm32f10x_flash.c ****    |-----------------------------------------------------------------------------------------------
 175:./Libraries/STM32F10x_StdPeriph_Driver/src/stm32f10x_flash.c ****    |FLASH_UserOptionByteConfig          |    Yes     |      Yes      | No change                   
 176:./Libraries/STM32F10x_StdPeriph_Driver/src/stm32f10x_flash.c ****    |-----------------------------------------------------------------------------------------------
 177:./Libraries/STM32F10x_StdPeriph_Driver/src/stm32f10x_flash.c ****    |FLASH_GetUserOptionByte             |    Yes     |      Yes      | No change                   
 178:./Libraries/STM32F10x_StdPeriph_Driver/src/stm32f10x_flash.c ****    |-----------------------------------------------------------------------------------------------
 179:./Libraries/STM32F10x_StdPeriph_Driver/src/stm32f10x_flash.c ****    |FLASH_GetWriteProtectionOptionByte  |    Yes     |      Yes      | No change                   
 180:./Libraries/STM32F10x_StdPeriph_Driver/src/stm32f10x_flash.c ****    |-----------------------------------------------------------------------------------------------
 181:./Libraries/STM32F10x_StdPeriph_Driver/src/stm32f10x_flash.c ****    |FLASH_GetReadOutProtectionStatus    |    Yes     |      Yes      | No change                   
 182:./Libraries/STM32F10x_StdPeriph_Driver/src/stm32f10x_flash.c ****    |-----------------------------------------------------------------------------------------------
 183:./Libraries/STM32F10x_StdPeriph_Driver/src/stm32f10x_flash.c ****    |FLASH_GetPrefetchBufferStatus       |    Yes     |      Yes      | No change                   
 184:./Libraries/STM32F10x_StdPeriph_Driver/src/stm32f10x_flash.c ****    |-----------------------------------------------------------------------------------------------
 185:./Libraries/STM32F10x_StdPeriph_Driver/src/stm32f10x_flash.c ****    |FLASH_ITConfig                      |    Yes     |      Yes      | - For STM32F10x_XL devices: 
 186:./Libraries/STM32F10x_StdPeriph_Driver/src/stm32f10x_flash.c ****    |                                    |            |               | - For other devices: enable 
 187:./Libraries/STM32F10x_StdPeriph_Driver/src/stm32f10x_flash.c ****    |-----------------------------------------------------------------------------------------------
 188:./Libraries/STM32F10x_StdPeriph_Driver/src/stm32f10x_flash.c ****    |FLASH_GetFlagStatus                 |    Yes     |      Yes      | - For STM32F10x_XL devices: 
 189:./Libraries/STM32F10x_StdPeriph_Driver/src/stm32f10x_flash.c ****    |                                    |            |               | - For other devices: return 
 190:./Libraries/STM32F10x_StdPeriph_Driver/src/stm32f10x_flash.c ****    |-----------------------------------------------------------------------------------------------
 191:./Libraries/STM32F10x_StdPeriph_Driver/src/stm32f10x_flash.c ****    |FLASH_ClearFlag                     |    Yes     |      Yes      | - For STM32F10x_XL devices: 
 192:./Libraries/STM32F10x_StdPeriph_Driver/src/stm32f10x_flash.c ****    |                                    |            |               | - For other devices: clear B
 193:./Libraries/STM32F10x_StdPeriph_Driver/src/stm32f10x_flash.c ****    |-----------------------------------------------------------------------------------------------
 194:./Libraries/STM32F10x_StdPeriph_Driver/src/stm32f10x_flash.c ****    |FLASH_GetStatus                     |    Yes     |      Yes      | - Return the status of Bank1
 195:./Libraries/STM32F10x_StdPeriph_Driver/src/stm32f10x_flash.c ****    |                                    |            |               |   equivalent to FLASH_GetBan
 196:./Libraries/STM32F10x_StdPeriph_Driver/src/stm32f10x_flash.c ****    |-----------------------------------------------------------------------------------------------
 197:./Libraries/STM32F10x_StdPeriph_Driver/src/stm32f10x_flash.c ****    |FLASH_WaitForLastOperation          |    Yes     |      Yes      | - Wait for Bank1 last operat
 198:./Libraries/STM32F10x_StdPeriph_Driver/src/stm32f10x_flash.c ****    |                                    |            |               |   equivalent to: FLASH_WaitF
 199:./Libraries/STM32F10x_StdPeriph_Driver/src/stm32f10x_flash.c ****    +-----------------------------------------------------------------------------------------------
 200:./Libraries/STM32F10x_StdPeriph_Driver/src/stm32f10x_flash.c **** 
 201:./Libraries/STM32F10x_StdPeriph_Driver/src/stm32f10x_flash.c ****    ************************************************************************************************
 202:./Libraries/STM32F10x_StdPeriph_Driver/src/stm32f10x_flash.c ****    * New functions used for all STM32F10x devices to manage Bank1:                                 
 203:./Libraries/STM32F10x_StdPeriph_Driver/src/stm32f10x_flash.c ****    *   - These functions are mainly useful for STM32F10x_XL density devices, to have separate contr
ARM GAS  /tmp/ccE6739X.s 			page 5


 204:./Libraries/STM32F10x_StdPeriph_Driver/src/stm32f10x_flash.c ****    *   - For other devices, these functions are optional (covered by functions listed above)       
 205:./Libraries/STM32F10x_StdPeriph_Driver/src/stm32f10x_flash.c ****    ************************************************************************************************
 206:./Libraries/STM32F10x_StdPeriph_Driver/src/stm32f10x_flash.c ****    +-----------------------------------------------------------------------------------------------
 207:./Libraries/STM32F10x_StdPeriph_Driver/src/stm32f10x_flash.c ****    |       Functions prototypes         |STM32F10x_XL|Other STM32F10x|    Comments                 
 208:./Libraries/STM32F10x_StdPeriph_Driver/src/stm32f10x_flash.c ****    |                                    |   devices  |  devices      |                             
 209:./Libraries/STM32F10x_StdPeriph_Driver/src/stm32f10x_flash.c ****    |-----------------------------------------------------------------------------------------------
 210:./Libraries/STM32F10x_StdPeriph_Driver/src/stm32f10x_flash.c ****    | FLASH_UnlockBank1                  |    Yes     |      Yes      | - Unlock Bank1              
 211:./Libraries/STM32F10x_StdPeriph_Driver/src/stm32f10x_flash.c ****    |-----------------------------------------------------------------------------------------------
 212:./Libraries/STM32F10x_StdPeriph_Driver/src/stm32f10x_flash.c ****    |FLASH_LockBank1                     |    Yes     |      Yes      | - Lock Bank1                
 213:./Libraries/STM32F10x_StdPeriph_Driver/src/stm32f10x_flash.c ****    |-----------------------------------------------------------------------------------------------
 214:./Libraries/STM32F10x_StdPeriph_Driver/src/stm32f10x_flash.c ****    | FLASH_EraseAllBank1Pages           |    Yes     |      Yes      | - Erase all pages in Bank1  
 215:./Libraries/STM32F10x_StdPeriph_Driver/src/stm32f10x_flash.c ****    |-----------------------------------------------------------------------------------------------
 216:./Libraries/STM32F10x_StdPeriph_Driver/src/stm32f10x_flash.c ****    | FLASH_GetBank1Status               |    Yes     |      Yes      | - Return the status of Bank1
 217:./Libraries/STM32F10x_StdPeriph_Driver/src/stm32f10x_flash.c ****    |-----------------------------------------------------------------------------------------------
 218:./Libraries/STM32F10x_StdPeriph_Driver/src/stm32f10x_flash.c ****    | FLASH_WaitForLastBank1Operation    |    Yes     |      Yes      | - Wait for Bank1 last operat
 219:./Libraries/STM32F10x_StdPeriph_Driver/src/stm32f10x_flash.c ****    +-----------------------------------------------------------------------------------------------
 220:./Libraries/STM32F10x_StdPeriph_Driver/src/stm32f10x_flash.c **** 
 221:./Libraries/STM32F10x_StdPeriph_Driver/src/stm32f10x_flash.c ****    *****************************************************************************
 222:./Libraries/STM32F10x_StdPeriph_Driver/src/stm32f10x_flash.c ****    * New Functions used only with STM32F10x_XL density devices to manage Bank2 *
 223:./Libraries/STM32F10x_StdPeriph_Driver/src/stm32f10x_flash.c ****    *****************************************************************************
 224:./Libraries/STM32F10x_StdPeriph_Driver/src/stm32f10x_flash.c ****    +-----------------------------------------------------------------------------------------------
 225:./Libraries/STM32F10x_StdPeriph_Driver/src/stm32f10x_flash.c ****    |       Functions prototypes         |STM32F10x_XL|Other STM32F10x|    Comments                 
 226:./Libraries/STM32F10x_StdPeriph_Driver/src/stm32f10x_flash.c ****    |                                    |   devices  |  devices      |                             
 227:./Libraries/STM32F10x_StdPeriph_Driver/src/stm32f10x_flash.c ****    |-----------------------------------------------------------------------------------------------
 228:./Libraries/STM32F10x_StdPeriph_Driver/src/stm32f10x_flash.c ****    | FLASH_UnlockBank2                  |    Yes     |      No       | - Unlock Bank2              
 229:./Libraries/STM32F10x_StdPeriph_Driver/src/stm32f10x_flash.c ****    |-----------------------------------------------------------------------------------------------
 230:./Libraries/STM32F10x_StdPeriph_Driver/src/stm32f10x_flash.c ****    |FLASH_LockBank2                     |    Yes     |      No       | - Lock Bank2                
 231:./Libraries/STM32F10x_StdPeriph_Driver/src/stm32f10x_flash.c ****    |-----------------------------------------------------------------------------------------------
 232:./Libraries/STM32F10x_StdPeriph_Driver/src/stm32f10x_flash.c ****    | FLASH_EraseAllBank2Pages           |    Yes     |      No       | - Erase all pages in Bank2  
 233:./Libraries/STM32F10x_StdPeriph_Driver/src/stm32f10x_flash.c ****    |-----------------------------------------------------------------------------------------------
 234:./Libraries/STM32F10x_StdPeriph_Driver/src/stm32f10x_flash.c ****    | FLASH_GetBank2Status               |    Yes     |      No       | - Return the status of Bank2
 235:./Libraries/STM32F10x_StdPeriph_Driver/src/stm32f10x_flash.c ****    |-----------------------------------------------------------------------------------------------
 236:./Libraries/STM32F10x_StdPeriph_Driver/src/stm32f10x_flash.c ****    | FLASH_WaitForLastBank2Operation    |    Yes     |      No       | - Wait for Bank2 last operat
 237:./Libraries/STM32F10x_StdPeriph_Driver/src/stm32f10x_flash.c ****    |-----------------------------------------------------------------------------------------------
 238:./Libraries/STM32F10x_StdPeriph_Driver/src/stm32f10x_flash.c ****    | FLASH_BootConfig                   |    Yes     |      No       | - Configure to boot from Ban
 239:./Libraries/STM32F10x_StdPeriph_Driver/src/stm32f10x_flash.c ****    +-----------------------------------------------------------------------------------------------
 240:./Libraries/STM32F10x_StdPeriph_Driver/src/stm32f10x_flash.c **** @endcode
 241:./Libraries/STM32F10x_StdPeriph_Driver/src/stm32f10x_flash.c **** */
 242:./Libraries/STM32F10x_StdPeriph_Driver/src/stm32f10x_flash.c **** 
 243:./Libraries/STM32F10x_StdPeriph_Driver/src/stm32f10x_flash.c **** 
 244:./Libraries/STM32F10x_StdPeriph_Driver/src/stm32f10x_flash.c **** /**
 245:./Libraries/STM32F10x_StdPeriph_Driver/src/stm32f10x_flash.c ****   * @brief  Sets the code latency value.
 246:./Libraries/STM32F10x_StdPeriph_Driver/src/stm32f10x_flash.c ****   * @note   This function can be used for all STM32F10x devices.
 247:./Libraries/STM32F10x_StdPeriph_Driver/src/stm32f10x_flash.c ****   * @param  FLASH_Latency: specifies the FLASH Latency value.
 248:./Libraries/STM32F10x_StdPeriph_Driver/src/stm32f10x_flash.c ****   *   This parameter can be one of the following values:
 249:./Libraries/STM32F10x_StdPeriph_Driver/src/stm32f10x_flash.c ****   *     @arg FLASH_Latency_0: FLASH Zero Latency cycle
 250:./Libraries/STM32F10x_StdPeriph_Driver/src/stm32f10x_flash.c ****   *     @arg FLASH_Latency_1: FLASH One Latency cycle
 251:./Libraries/STM32F10x_StdPeriph_Driver/src/stm32f10x_flash.c ****   *     @arg FLASH_Latency_2: FLASH Two Latency cycles
 252:./Libraries/STM32F10x_StdPeriph_Driver/src/stm32f10x_flash.c ****   * @retval None
 253:./Libraries/STM32F10x_StdPeriph_Driver/src/stm32f10x_flash.c ****   */
 254:./Libraries/STM32F10x_StdPeriph_Driver/src/stm32f10x_flash.c **** void FLASH_SetLatency(uint32_t FLASH_Latency)
 255:./Libraries/STM32F10x_StdPeriph_Driver/src/stm32f10x_flash.c **** {
  27              		.loc 1 255 1
  28              		.cfi_startproc
  29              		@ args = 0, pretend = 0, frame = 16
  30              		@ frame_needed = 1, uses_anonymous_args = 0
  31              		@ link register save eliminated.
ARM GAS  /tmp/ccE6739X.s 			page 6


  32 0000 80B4     		push	{r7}
  33              	.LCFI0:
  34              		.cfi_def_cfa_offset 4
  35              		.cfi_offset 7, -4
  36 0002 85B0     		sub	sp, sp, #20
  37              	.LCFI1:
  38              		.cfi_def_cfa_offset 24
  39 0004 00AF     		add	r7, sp, #0
  40              	.LCFI2:
  41              		.cfi_def_cfa_register 7
  42 0006 7860     		str	r0, [r7, #4]
 256:./Libraries/STM32F10x_StdPeriph_Driver/src/stm32f10x_flash.c ****   uint32_t tmpreg = 0;
  43              		.loc 1 256 12
  44 0008 0023     		movs	r3, #0
  45 000a FB60     		str	r3, [r7, #12]
 257:./Libraries/STM32F10x_StdPeriph_Driver/src/stm32f10x_flash.c ****   
 258:./Libraries/STM32F10x_StdPeriph_Driver/src/stm32f10x_flash.c ****   /* Check the parameters */
 259:./Libraries/STM32F10x_StdPeriph_Driver/src/stm32f10x_flash.c ****   assert_param(IS_FLASH_LATENCY(FLASH_Latency));
 260:./Libraries/STM32F10x_StdPeriph_Driver/src/stm32f10x_flash.c ****   
 261:./Libraries/STM32F10x_StdPeriph_Driver/src/stm32f10x_flash.c ****   /* Read the ACR register */
 262:./Libraries/STM32F10x_StdPeriph_Driver/src/stm32f10x_flash.c ****   tmpreg = FLASH->ACR;  
  46              		.loc 1 262 17
  47 000c 094B     		ldr	r3, .L2
  48              		.loc 1 262 10
  49 000e 1B68     		ldr	r3, [r3]
  50 0010 FB60     		str	r3, [r7, #12]
 263:./Libraries/STM32F10x_StdPeriph_Driver/src/stm32f10x_flash.c ****   
 264:./Libraries/STM32F10x_StdPeriph_Driver/src/stm32f10x_flash.c ****   /* Sets the Latency value */
 265:./Libraries/STM32F10x_StdPeriph_Driver/src/stm32f10x_flash.c ****   tmpreg &= ACR_LATENCY_Mask;
  51              		.loc 1 265 10
  52 0012 FB68     		ldr	r3, [r7, #12]
  53 0014 03F03803 		and	r3, r3, #56
  54 0018 FB60     		str	r3, [r7, #12]
 266:./Libraries/STM32F10x_StdPeriph_Driver/src/stm32f10x_flash.c ****   tmpreg |= FLASH_Latency;
  55              		.loc 1 266 10
  56 001a FA68     		ldr	r2, [r7, #12]
  57 001c 7B68     		ldr	r3, [r7, #4]
  58 001e 1343     		orrs	r3, r3, r2
  59 0020 FB60     		str	r3, [r7, #12]
 267:./Libraries/STM32F10x_StdPeriph_Driver/src/stm32f10x_flash.c ****   
 268:./Libraries/STM32F10x_StdPeriph_Driver/src/stm32f10x_flash.c ****   /* Write the ACR register */
 269:./Libraries/STM32F10x_StdPeriph_Driver/src/stm32f10x_flash.c ****   FLASH->ACR = tmpreg;
  60              		.loc 1 269 8
  61 0022 044A     		ldr	r2, .L2
  62              		.loc 1 269 14
  63 0024 FB68     		ldr	r3, [r7, #12]
  64 0026 1360     		str	r3, [r2]
 270:./Libraries/STM32F10x_StdPeriph_Driver/src/stm32f10x_flash.c **** }
  65              		.loc 1 270 1
  66 0028 00BF     		nop
  67 002a 1437     		adds	r7, r7, #20
  68              	.LCFI3:
  69              		.cfi_def_cfa_offset 4
  70 002c BD46     		mov	sp, r7
  71              	.LCFI4:
  72              		.cfi_def_cfa_register 13
  73              		@ sp needed
ARM GAS  /tmp/ccE6739X.s 			page 7


  74 002e 80BC     		pop	{r7}
  75              	.LCFI5:
  76              		.cfi_restore 7
  77              		.cfi_def_cfa_offset 0
  78 0030 7047     		bx	lr
  79              	.L3:
  80 0032 00BF     		.align	2
  81              	.L2:
  82 0034 00200240 		.word	1073881088
  83              		.cfi_endproc
  84              	.LFE29:
  86              		.section	.text.FLASH_HalfCycleAccessCmd,"ax",%progbits
  87              		.align	1
  88              		.global	FLASH_HalfCycleAccessCmd
  89              		.syntax unified
  90              		.thumb
  91              		.thumb_func
  92              		.fpu softvfp
  94              	FLASH_HalfCycleAccessCmd:
  95              	.LFB30:
 271:./Libraries/STM32F10x_StdPeriph_Driver/src/stm32f10x_flash.c **** 
 272:./Libraries/STM32F10x_StdPeriph_Driver/src/stm32f10x_flash.c **** /**
 273:./Libraries/STM32F10x_StdPeriph_Driver/src/stm32f10x_flash.c ****   * @brief  Enables or disables the Half cycle flash access.
 274:./Libraries/STM32F10x_StdPeriph_Driver/src/stm32f10x_flash.c ****   * @note   This function can be used for all STM32F10x devices.
 275:./Libraries/STM32F10x_StdPeriph_Driver/src/stm32f10x_flash.c ****   * @param  FLASH_HalfCycleAccess: specifies the FLASH Half cycle Access mode.
 276:./Libraries/STM32F10x_StdPeriph_Driver/src/stm32f10x_flash.c ****   *   This parameter can be one of the following values:
 277:./Libraries/STM32F10x_StdPeriph_Driver/src/stm32f10x_flash.c ****   *     @arg FLASH_HalfCycleAccess_Enable: FLASH Half Cycle Enable
 278:./Libraries/STM32F10x_StdPeriph_Driver/src/stm32f10x_flash.c ****   *     @arg FLASH_HalfCycleAccess_Disable: FLASH Half Cycle Disable
 279:./Libraries/STM32F10x_StdPeriph_Driver/src/stm32f10x_flash.c ****   * @retval None
 280:./Libraries/STM32F10x_StdPeriph_Driver/src/stm32f10x_flash.c ****   */
 281:./Libraries/STM32F10x_StdPeriph_Driver/src/stm32f10x_flash.c **** void FLASH_HalfCycleAccessCmd(uint32_t FLASH_HalfCycleAccess)
 282:./Libraries/STM32F10x_StdPeriph_Driver/src/stm32f10x_flash.c **** {
  96              		.loc 1 282 1
  97              		.cfi_startproc
  98              		@ args = 0, pretend = 0, frame = 8
  99              		@ frame_needed = 1, uses_anonymous_args = 0
 100              		@ link register save eliminated.
 101 0000 80B4     		push	{r7}
 102              	.LCFI6:
 103              		.cfi_def_cfa_offset 4
 104              		.cfi_offset 7, -4
 105 0002 83B0     		sub	sp, sp, #12
 106              	.LCFI7:
 107              		.cfi_def_cfa_offset 16
 108 0004 00AF     		add	r7, sp, #0
 109              	.LCFI8:
 110              		.cfi_def_cfa_register 7
 111 0006 7860     		str	r0, [r7, #4]
 283:./Libraries/STM32F10x_StdPeriph_Driver/src/stm32f10x_flash.c ****   /* Check the parameters */
 284:./Libraries/STM32F10x_StdPeriph_Driver/src/stm32f10x_flash.c ****   assert_param(IS_FLASH_HALFCYCLEACCESS_STATE(FLASH_HalfCycleAccess));
 285:./Libraries/STM32F10x_StdPeriph_Driver/src/stm32f10x_flash.c ****   
 286:./Libraries/STM32F10x_StdPeriph_Driver/src/stm32f10x_flash.c ****   /* Enable or disable the Half cycle access */
 287:./Libraries/STM32F10x_StdPeriph_Driver/src/stm32f10x_flash.c ****   FLASH->ACR &= ACR_HLFCYA_Mask;
 112              		.loc 1 287 14
 113 0008 084B     		ldr	r3, .L5
 114 000a 1B68     		ldr	r3, [r3]
 115 000c 074A     		ldr	r2, .L5
ARM GAS  /tmp/ccE6739X.s 			page 8


 116 000e 23F00803 		bic	r3, r3, #8
 117 0012 1360     		str	r3, [r2]
 288:./Libraries/STM32F10x_StdPeriph_Driver/src/stm32f10x_flash.c ****   FLASH->ACR |= FLASH_HalfCycleAccess;
 118              		.loc 1 288 14
 119 0014 054B     		ldr	r3, .L5
 120 0016 1A68     		ldr	r2, [r3]
 121 0018 0449     		ldr	r1, .L5
 122 001a 7B68     		ldr	r3, [r7, #4]
 123 001c 1343     		orrs	r3, r3, r2
 124 001e 0B60     		str	r3, [r1]
 289:./Libraries/STM32F10x_StdPeriph_Driver/src/stm32f10x_flash.c **** }
 125              		.loc 1 289 1
 126 0020 00BF     		nop
 127 0022 0C37     		adds	r7, r7, #12
 128              	.LCFI9:
 129              		.cfi_def_cfa_offset 4
 130 0024 BD46     		mov	sp, r7
 131              	.LCFI10:
 132              		.cfi_def_cfa_register 13
 133              		@ sp needed
 134 0026 80BC     		pop	{r7}
 135              	.LCFI11:
 136              		.cfi_restore 7
 137              		.cfi_def_cfa_offset 0
 138 0028 7047     		bx	lr
 139              	.L6:
 140 002a 00BF     		.align	2
 141              	.L5:
 142 002c 00200240 		.word	1073881088
 143              		.cfi_endproc
 144              	.LFE30:
 146              		.section	.text.FLASH_PrefetchBufferCmd,"ax",%progbits
 147              		.align	1
 148              		.global	FLASH_PrefetchBufferCmd
 149              		.syntax unified
 150              		.thumb
 151              		.thumb_func
 152              		.fpu softvfp
 154              	FLASH_PrefetchBufferCmd:
 155              	.LFB31:
 290:./Libraries/STM32F10x_StdPeriph_Driver/src/stm32f10x_flash.c **** 
 291:./Libraries/STM32F10x_StdPeriph_Driver/src/stm32f10x_flash.c **** /**
 292:./Libraries/STM32F10x_StdPeriph_Driver/src/stm32f10x_flash.c ****   * @brief  Enables or disables the Prefetch Buffer.
 293:./Libraries/STM32F10x_StdPeriph_Driver/src/stm32f10x_flash.c ****   * @note   This function can be used for all STM32F10x devices.
 294:./Libraries/STM32F10x_StdPeriph_Driver/src/stm32f10x_flash.c ****   * @param  FLASH_PrefetchBuffer: specifies the Prefetch buffer status.
 295:./Libraries/STM32F10x_StdPeriph_Driver/src/stm32f10x_flash.c ****   *   This parameter can be one of the following values:
 296:./Libraries/STM32F10x_StdPeriph_Driver/src/stm32f10x_flash.c ****   *     @arg FLASH_PrefetchBuffer_Enable: FLASH Prefetch Buffer Enable
 297:./Libraries/STM32F10x_StdPeriph_Driver/src/stm32f10x_flash.c ****   *     @arg FLASH_PrefetchBuffer_Disable: FLASH Prefetch Buffer Disable
 298:./Libraries/STM32F10x_StdPeriph_Driver/src/stm32f10x_flash.c ****   * @retval None
 299:./Libraries/STM32F10x_StdPeriph_Driver/src/stm32f10x_flash.c ****   */
 300:./Libraries/STM32F10x_StdPeriph_Driver/src/stm32f10x_flash.c **** void FLASH_PrefetchBufferCmd(uint32_t FLASH_PrefetchBuffer)
 301:./Libraries/STM32F10x_StdPeriph_Driver/src/stm32f10x_flash.c **** {
 156              		.loc 1 301 1
 157              		.cfi_startproc
 158              		@ args = 0, pretend = 0, frame = 8
 159              		@ frame_needed = 1, uses_anonymous_args = 0
 160              		@ link register save eliminated.
ARM GAS  /tmp/ccE6739X.s 			page 9


 161 0000 80B4     		push	{r7}
 162              	.LCFI12:
 163              		.cfi_def_cfa_offset 4
 164              		.cfi_offset 7, -4
 165 0002 83B0     		sub	sp, sp, #12
 166              	.LCFI13:
 167              		.cfi_def_cfa_offset 16
 168 0004 00AF     		add	r7, sp, #0
 169              	.LCFI14:
 170              		.cfi_def_cfa_register 7
 171 0006 7860     		str	r0, [r7, #4]
 302:./Libraries/STM32F10x_StdPeriph_Driver/src/stm32f10x_flash.c ****   /* Check the parameters */
 303:./Libraries/STM32F10x_StdPeriph_Driver/src/stm32f10x_flash.c ****   assert_param(IS_FLASH_PREFETCHBUFFER_STATE(FLASH_PrefetchBuffer));
 304:./Libraries/STM32F10x_StdPeriph_Driver/src/stm32f10x_flash.c ****   
 305:./Libraries/STM32F10x_StdPeriph_Driver/src/stm32f10x_flash.c ****   /* Enable or disable the Prefetch Buffer */
 306:./Libraries/STM32F10x_StdPeriph_Driver/src/stm32f10x_flash.c ****   FLASH->ACR &= ACR_PRFTBE_Mask;
 172              		.loc 1 306 14
 173 0008 084B     		ldr	r3, .L8
 174 000a 1B68     		ldr	r3, [r3]
 175 000c 074A     		ldr	r2, .L8
 176 000e 23F01003 		bic	r3, r3, #16
 177 0012 1360     		str	r3, [r2]
 307:./Libraries/STM32F10x_StdPeriph_Driver/src/stm32f10x_flash.c ****   FLASH->ACR |= FLASH_PrefetchBuffer;
 178              		.loc 1 307 14
 179 0014 054B     		ldr	r3, .L8
 180 0016 1A68     		ldr	r2, [r3]
 181 0018 0449     		ldr	r1, .L8
 182 001a 7B68     		ldr	r3, [r7, #4]
 183 001c 1343     		orrs	r3, r3, r2
 184 001e 0B60     		str	r3, [r1]
 308:./Libraries/STM32F10x_StdPeriph_Driver/src/stm32f10x_flash.c **** }
 185              		.loc 1 308 1
 186 0020 00BF     		nop
 187 0022 0C37     		adds	r7, r7, #12
 188              	.LCFI15:
 189              		.cfi_def_cfa_offset 4
 190 0024 BD46     		mov	sp, r7
 191              	.LCFI16:
 192              		.cfi_def_cfa_register 13
 193              		@ sp needed
 194 0026 80BC     		pop	{r7}
 195              	.LCFI17:
 196              		.cfi_restore 7
 197              		.cfi_def_cfa_offset 0
 198 0028 7047     		bx	lr
 199              	.L9:
 200 002a 00BF     		.align	2
 201              	.L8:
 202 002c 00200240 		.word	1073881088
 203              		.cfi_endproc
 204              	.LFE31:
 206              		.section	.text.FLASH_Unlock,"ax",%progbits
 207              		.align	1
 208              		.global	FLASH_Unlock
 209              		.syntax unified
 210              		.thumb
 211              		.thumb_func
ARM GAS  /tmp/ccE6739X.s 			page 10


 212              		.fpu softvfp
 214              	FLASH_Unlock:
 215              	.LFB32:
 309:./Libraries/STM32F10x_StdPeriph_Driver/src/stm32f10x_flash.c **** 
 310:./Libraries/STM32F10x_StdPeriph_Driver/src/stm32f10x_flash.c **** /**
 311:./Libraries/STM32F10x_StdPeriph_Driver/src/stm32f10x_flash.c ****   * @brief  Unlocks the FLASH Program Erase Controller.
 312:./Libraries/STM32F10x_StdPeriph_Driver/src/stm32f10x_flash.c ****   * @note   This function can be used for all STM32F10x devices.
 313:./Libraries/STM32F10x_StdPeriph_Driver/src/stm32f10x_flash.c ****   *         - For STM32F10X_XL devices this function unlocks Bank1 and Bank2.
 314:./Libraries/STM32F10x_StdPeriph_Driver/src/stm32f10x_flash.c ****   *         - For all other devices it unlocks Bank1 and it is equivalent 
 315:./Libraries/STM32F10x_StdPeriph_Driver/src/stm32f10x_flash.c ****   *           to FLASH_UnlockBank1 function.. 
 316:./Libraries/STM32F10x_StdPeriph_Driver/src/stm32f10x_flash.c ****   * @param  None
 317:./Libraries/STM32F10x_StdPeriph_Driver/src/stm32f10x_flash.c ****   * @retval None
 318:./Libraries/STM32F10x_StdPeriph_Driver/src/stm32f10x_flash.c ****   */
 319:./Libraries/STM32F10x_StdPeriph_Driver/src/stm32f10x_flash.c **** void FLASH_Unlock(void)
 320:./Libraries/STM32F10x_StdPeriph_Driver/src/stm32f10x_flash.c **** {
 216              		.loc 1 320 1
 217              		.cfi_startproc
 218              		@ args = 0, pretend = 0, frame = 0
 219              		@ frame_needed = 1, uses_anonymous_args = 0
 220              		@ link register save eliminated.
 221 0000 80B4     		push	{r7}
 222              	.LCFI18:
 223              		.cfi_def_cfa_offset 4
 224              		.cfi_offset 7, -4
 225 0002 00AF     		add	r7, sp, #0
 226              	.LCFI19:
 227              		.cfi_def_cfa_register 7
 321:./Libraries/STM32F10x_StdPeriph_Driver/src/stm32f10x_flash.c ****   /* Authorize the FPEC of Bank1 Access */
 322:./Libraries/STM32F10x_StdPeriph_Driver/src/stm32f10x_flash.c ****   FLASH->KEYR = FLASH_KEY1;
 228              		.loc 1 322 8
 229 0004 044B     		ldr	r3, .L11
 230              		.loc 1 322 15
 231 0006 054A     		ldr	r2, .L11+4
 232 0008 5A60     		str	r2, [r3, #4]
 323:./Libraries/STM32F10x_StdPeriph_Driver/src/stm32f10x_flash.c ****   FLASH->KEYR = FLASH_KEY2;
 233              		.loc 1 323 8
 234 000a 034B     		ldr	r3, .L11
 235              		.loc 1 323 15
 236 000c 044A     		ldr	r2, .L11+8
 237 000e 5A60     		str	r2, [r3, #4]
 324:./Libraries/STM32F10x_StdPeriph_Driver/src/stm32f10x_flash.c **** 
 325:./Libraries/STM32F10x_StdPeriph_Driver/src/stm32f10x_flash.c **** #ifdef STM32F10X_XL
 326:./Libraries/STM32F10x_StdPeriph_Driver/src/stm32f10x_flash.c ****   /* Authorize the FPEC of Bank2 Access */
 327:./Libraries/STM32F10x_StdPeriph_Driver/src/stm32f10x_flash.c ****   FLASH->KEYR2 = FLASH_KEY1;
 328:./Libraries/STM32F10x_StdPeriph_Driver/src/stm32f10x_flash.c ****   FLASH->KEYR2 = FLASH_KEY2;
 329:./Libraries/STM32F10x_StdPeriph_Driver/src/stm32f10x_flash.c **** #endif /* STM32F10X_XL */
 330:./Libraries/STM32F10x_StdPeriph_Driver/src/stm32f10x_flash.c **** }
 238              		.loc 1 330 1
 239 0010 00BF     		nop
 240 0012 BD46     		mov	sp, r7
 241              	.LCFI20:
 242              		.cfi_def_cfa_register 13
 243              		@ sp needed
 244 0014 80BC     		pop	{r7}
 245              	.LCFI21:
 246              		.cfi_restore 7
 247              		.cfi_def_cfa_offset 0
ARM GAS  /tmp/ccE6739X.s 			page 11


 248 0016 7047     		bx	lr
 249              	.L12:
 250              		.align	2
 251              	.L11:
 252 0018 00200240 		.word	1073881088
 253 001c 23016745 		.word	1164378403
 254 0020 AB89EFCD 		.word	-839939669
 255              		.cfi_endproc
 256              	.LFE32:
 258              		.section	.text.FLASH_UnlockBank1,"ax",%progbits
 259              		.align	1
 260              		.global	FLASH_UnlockBank1
 261              		.syntax unified
 262              		.thumb
 263              		.thumb_func
 264              		.fpu softvfp
 266              	FLASH_UnlockBank1:
 267              	.LFB33:
 331:./Libraries/STM32F10x_StdPeriph_Driver/src/stm32f10x_flash.c **** /**
 332:./Libraries/STM32F10x_StdPeriph_Driver/src/stm32f10x_flash.c ****   * @brief  Unlocks the FLASH Bank1 Program Erase Controller.
 333:./Libraries/STM32F10x_StdPeriph_Driver/src/stm32f10x_flash.c ****   * @note   This function can be used for all STM32F10x devices.
 334:./Libraries/STM32F10x_StdPeriph_Driver/src/stm32f10x_flash.c ****   *         - For STM32F10X_XL devices this function unlocks Bank1.
 335:./Libraries/STM32F10x_StdPeriph_Driver/src/stm32f10x_flash.c ****   *         - For all other devices it unlocks Bank1 and it is 
 336:./Libraries/STM32F10x_StdPeriph_Driver/src/stm32f10x_flash.c ****   *           equivalent to FLASH_Unlock function.
 337:./Libraries/STM32F10x_StdPeriph_Driver/src/stm32f10x_flash.c ****   * @param  None
 338:./Libraries/STM32F10x_StdPeriph_Driver/src/stm32f10x_flash.c ****   * @retval None
 339:./Libraries/STM32F10x_StdPeriph_Driver/src/stm32f10x_flash.c ****   */
 340:./Libraries/STM32F10x_StdPeriph_Driver/src/stm32f10x_flash.c **** void FLASH_UnlockBank1(void)
 341:./Libraries/STM32F10x_StdPeriph_Driver/src/stm32f10x_flash.c **** {
 268              		.loc 1 341 1
 269              		.cfi_startproc
 270              		@ args = 0, pretend = 0, frame = 0
 271              		@ frame_needed = 1, uses_anonymous_args = 0
 272              		@ link register save eliminated.
 273 0000 80B4     		push	{r7}
 274              	.LCFI22:
 275              		.cfi_def_cfa_offset 4
 276              		.cfi_offset 7, -4
 277 0002 00AF     		add	r7, sp, #0
 278              	.LCFI23:
 279              		.cfi_def_cfa_register 7
 342:./Libraries/STM32F10x_StdPeriph_Driver/src/stm32f10x_flash.c ****   /* Authorize the FPEC of Bank1 Access */
 343:./Libraries/STM32F10x_StdPeriph_Driver/src/stm32f10x_flash.c ****   FLASH->KEYR = FLASH_KEY1;
 280              		.loc 1 343 8
 281 0004 044B     		ldr	r3, .L14
 282              		.loc 1 343 15
 283 0006 054A     		ldr	r2, .L14+4
 284 0008 5A60     		str	r2, [r3, #4]
 344:./Libraries/STM32F10x_StdPeriph_Driver/src/stm32f10x_flash.c ****   FLASH->KEYR = FLASH_KEY2;
 285              		.loc 1 344 8
 286 000a 034B     		ldr	r3, .L14
 287              		.loc 1 344 15
 288 000c 044A     		ldr	r2, .L14+8
 289 000e 5A60     		str	r2, [r3, #4]
 345:./Libraries/STM32F10x_StdPeriph_Driver/src/stm32f10x_flash.c **** }
 290              		.loc 1 345 1
 291 0010 00BF     		nop
ARM GAS  /tmp/ccE6739X.s 			page 12


 292 0012 BD46     		mov	sp, r7
 293              	.LCFI24:
 294              		.cfi_def_cfa_register 13
 295              		@ sp needed
 296 0014 80BC     		pop	{r7}
 297              	.LCFI25:
 298              		.cfi_restore 7
 299              		.cfi_def_cfa_offset 0
 300 0016 7047     		bx	lr
 301              	.L15:
 302              		.align	2
 303              	.L14:
 304 0018 00200240 		.word	1073881088
 305 001c 23016745 		.word	1164378403
 306 0020 AB89EFCD 		.word	-839939669
 307              		.cfi_endproc
 308              	.LFE33:
 310              		.section	.text.FLASH_Lock,"ax",%progbits
 311              		.align	1
 312              		.global	FLASH_Lock
 313              		.syntax unified
 314              		.thumb
 315              		.thumb_func
 316              		.fpu softvfp
 318              	FLASH_Lock:
 319              	.LFB34:
 346:./Libraries/STM32F10x_StdPeriph_Driver/src/stm32f10x_flash.c **** 
 347:./Libraries/STM32F10x_StdPeriph_Driver/src/stm32f10x_flash.c **** #ifdef STM32F10X_XL
 348:./Libraries/STM32F10x_StdPeriph_Driver/src/stm32f10x_flash.c **** /**
 349:./Libraries/STM32F10x_StdPeriph_Driver/src/stm32f10x_flash.c ****   * @brief  Unlocks the FLASH Bank2 Program Erase Controller.
 350:./Libraries/STM32F10x_StdPeriph_Driver/src/stm32f10x_flash.c ****   * @note   This function can be used only for STM32F10X_XL density devices.
 351:./Libraries/STM32F10x_StdPeriph_Driver/src/stm32f10x_flash.c ****   * @param  None
 352:./Libraries/STM32F10x_StdPeriph_Driver/src/stm32f10x_flash.c ****   * @retval None
 353:./Libraries/STM32F10x_StdPeriph_Driver/src/stm32f10x_flash.c ****   */
 354:./Libraries/STM32F10x_StdPeriph_Driver/src/stm32f10x_flash.c **** void FLASH_UnlockBank2(void)
 355:./Libraries/STM32F10x_StdPeriph_Driver/src/stm32f10x_flash.c **** {
 356:./Libraries/STM32F10x_StdPeriph_Driver/src/stm32f10x_flash.c ****   /* Authorize the FPEC of Bank2 Access */
 357:./Libraries/STM32F10x_StdPeriph_Driver/src/stm32f10x_flash.c ****   FLASH->KEYR2 = FLASH_KEY1;
 358:./Libraries/STM32F10x_StdPeriph_Driver/src/stm32f10x_flash.c ****   FLASH->KEYR2 = FLASH_KEY2;
 359:./Libraries/STM32F10x_StdPeriph_Driver/src/stm32f10x_flash.c **** 
 360:./Libraries/STM32F10x_StdPeriph_Driver/src/stm32f10x_flash.c **** }
 361:./Libraries/STM32F10x_StdPeriph_Driver/src/stm32f10x_flash.c **** #endif /* STM32F10X_XL */
 362:./Libraries/STM32F10x_StdPeriph_Driver/src/stm32f10x_flash.c **** 
 363:./Libraries/STM32F10x_StdPeriph_Driver/src/stm32f10x_flash.c **** /**
 364:./Libraries/STM32F10x_StdPeriph_Driver/src/stm32f10x_flash.c ****   * @brief  Locks the FLASH Program Erase Controller.
 365:./Libraries/STM32F10x_StdPeriph_Driver/src/stm32f10x_flash.c ****   * @note   This function can be used for all STM32F10x devices.
 366:./Libraries/STM32F10x_StdPeriph_Driver/src/stm32f10x_flash.c ****   *         - For STM32F10X_XL devices this function Locks Bank1 and Bank2.
 367:./Libraries/STM32F10x_StdPeriph_Driver/src/stm32f10x_flash.c ****   *         - For all other devices it Locks Bank1 and it is equivalent 
 368:./Libraries/STM32F10x_StdPeriph_Driver/src/stm32f10x_flash.c ****   *           to FLASH_LockBank1 function.
 369:./Libraries/STM32F10x_StdPeriph_Driver/src/stm32f10x_flash.c ****   * @param  None
 370:./Libraries/STM32F10x_StdPeriph_Driver/src/stm32f10x_flash.c ****   * @retval None
 371:./Libraries/STM32F10x_StdPeriph_Driver/src/stm32f10x_flash.c ****   */
 372:./Libraries/STM32F10x_StdPeriph_Driver/src/stm32f10x_flash.c **** void FLASH_Lock(void)
 373:./Libraries/STM32F10x_StdPeriph_Driver/src/stm32f10x_flash.c **** {
 320              		.loc 1 373 1
 321              		.cfi_startproc
 322              		@ args = 0, pretend = 0, frame = 0
ARM GAS  /tmp/ccE6739X.s 			page 13


 323              		@ frame_needed = 1, uses_anonymous_args = 0
 324              		@ link register save eliminated.
 325 0000 80B4     		push	{r7}
 326              	.LCFI26:
 327              		.cfi_def_cfa_offset 4
 328              		.cfi_offset 7, -4
 329 0002 00AF     		add	r7, sp, #0
 330              	.LCFI27:
 331              		.cfi_def_cfa_register 7
 374:./Libraries/STM32F10x_StdPeriph_Driver/src/stm32f10x_flash.c ****   /* Set the Lock Bit to lock the FPEC and the CR of  Bank1 */
 375:./Libraries/STM32F10x_StdPeriph_Driver/src/stm32f10x_flash.c ****   FLASH->CR |= CR_LOCK_Set;
 332              		.loc 1 375 13
 333 0004 044B     		ldr	r3, .L17
 334 0006 1B69     		ldr	r3, [r3, #16]
 335 0008 034A     		ldr	r2, .L17
 336 000a 43F08003 		orr	r3, r3, #128
 337 000e 1361     		str	r3, [r2, #16]
 376:./Libraries/STM32F10x_StdPeriph_Driver/src/stm32f10x_flash.c **** 
 377:./Libraries/STM32F10x_StdPeriph_Driver/src/stm32f10x_flash.c **** #ifdef STM32F10X_XL
 378:./Libraries/STM32F10x_StdPeriph_Driver/src/stm32f10x_flash.c ****   /* Set the Lock Bit to lock the FPEC and the CR of  Bank2 */
 379:./Libraries/STM32F10x_StdPeriph_Driver/src/stm32f10x_flash.c ****   FLASH->CR2 |= CR_LOCK_Set;
 380:./Libraries/STM32F10x_StdPeriph_Driver/src/stm32f10x_flash.c **** #endif /* STM32F10X_XL */
 381:./Libraries/STM32F10x_StdPeriph_Driver/src/stm32f10x_flash.c **** }
 338              		.loc 1 381 1
 339 0010 00BF     		nop
 340 0012 BD46     		mov	sp, r7
 341              	.LCFI28:
 342              		.cfi_def_cfa_register 13
 343              		@ sp needed
 344 0014 80BC     		pop	{r7}
 345              	.LCFI29:
 346              		.cfi_restore 7
 347              		.cfi_def_cfa_offset 0
 348 0016 7047     		bx	lr
 349              	.L18:
 350              		.align	2
 351              	.L17:
 352 0018 00200240 		.word	1073881088
 353              		.cfi_endproc
 354              	.LFE34:
 356              		.section	.text.FLASH_LockBank1,"ax",%progbits
 357              		.align	1
 358              		.global	FLASH_LockBank1
 359              		.syntax unified
 360              		.thumb
 361              		.thumb_func
 362              		.fpu softvfp
 364              	FLASH_LockBank1:
 365              	.LFB35:
 382:./Libraries/STM32F10x_StdPeriph_Driver/src/stm32f10x_flash.c **** 
 383:./Libraries/STM32F10x_StdPeriph_Driver/src/stm32f10x_flash.c **** /**
 384:./Libraries/STM32F10x_StdPeriph_Driver/src/stm32f10x_flash.c ****   * @brief  Locks the FLASH Bank1 Program Erase Controller.
 385:./Libraries/STM32F10x_StdPeriph_Driver/src/stm32f10x_flash.c ****   * @note   this function can be used for all STM32F10x devices.
 386:./Libraries/STM32F10x_StdPeriph_Driver/src/stm32f10x_flash.c ****   *         - For STM32F10X_XL devices this function Locks Bank1.
 387:./Libraries/STM32F10x_StdPeriph_Driver/src/stm32f10x_flash.c ****   *         - For all other devices it Locks Bank1 and it is equivalent 
 388:./Libraries/STM32F10x_StdPeriph_Driver/src/stm32f10x_flash.c ****   *           to FLASH_Lock function.
 389:./Libraries/STM32F10x_StdPeriph_Driver/src/stm32f10x_flash.c ****   * @param  None
ARM GAS  /tmp/ccE6739X.s 			page 14


 390:./Libraries/STM32F10x_StdPeriph_Driver/src/stm32f10x_flash.c ****   * @retval None
 391:./Libraries/STM32F10x_StdPeriph_Driver/src/stm32f10x_flash.c ****   */
 392:./Libraries/STM32F10x_StdPeriph_Driver/src/stm32f10x_flash.c **** void FLASH_LockBank1(void)
 393:./Libraries/STM32F10x_StdPeriph_Driver/src/stm32f10x_flash.c **** {
 366              		.loc 1 393 1
 367              		.cfi_startproc
 368              		@ args = 0, pretend = 0, frame = 0
 369              		@ frame_needed = 1, uses_anonymous_args = 0
 370              		@ link register save eliminated.
 371 0000 80B4     		push	{r7}
 372              	.LCFI30:
 373              		.cfi_def_cfa_offset 4
 374              		.cfi_offset 7, -4
 375 0002 00AF     		add	r7, sp, #0
 376              	.LCFI31:
 377              		.cfi_def_cfa_register 7
 394:./Libraries/STM32F10x_StdPeriph_Driver/src/stm32f10x_flash.c ****   /* Set the Lock Bit to lock the FPEC and the CR of  Bank1 */
 395:./Libraries/STM32F10x_StdPeriph_Driver/src/stm32f10x_flash.c ****   FLASH->CR |= CR_LOCK_Set;
 378              		.loc 1 395 13
 379 0004 044B     		ldr	r3, .L20
 380 0006 1B69     		ldr	r3, [r3, #16]
 381 0008 034A     		ldr	r2, .L20
 382 000a 43F08003 		orr	r3, r3, #128
 383 000e 1361     		str	r3, [r2, #16]
 396:./Libraries/STM32F10x_StdPeriph_Driver/src/stm32f10x_flash.c **** }
 384              		.loc 1 396 1
 385 0010 00BF     		nop
 386 0012 BD46     		mov	sp, r7
 387              	.LCFI32:
 388              		.cfi_def_cfa_register 13
 389              		@ sp needed
 390 0014 80BC     		pop	{r7}
 391              	.LCFI33:
 392              		.cfi_restore 7
 393              		.cfi_def_cfa_offset 0
 394 0016 7047     		bx	lr
 395              	.L21:
 396              		.align	2
 397              	.L20:
 398 0018 00200240 		.word	1073881088
 399              		.cfi_endproc
 400              	.LFE35:
 402              		.section	.text.FLASH_ErasePage,"ax",%progbits
 403              		.align	1
 404              		.global	FLASH_ErasePage
 405              		.syntax unified
 406              		.thumb
 407              		.thumb_func
 408              		.fpu softvfp
 410              	FLASH_ErasePage:
 411              	.LFB36:
 397:./Libraries/STM32F10x_StdPeriph_Driver/src/stm32f10x_flash.c **** 
 398:./Libraries/STM32F10x_StdPeriph_Driver/src/stm32f10x_flash.c **** #ifdef STM32F10X_XL
 399:./Libraries/STM32F10x_StdPeriph_Driver/src/stm32f10x_flash.c **** /**
 400:./Libraries/STM32F10x_StdPeriph_Driver/src/stm32f10x_flash.c ****   * @brief  Locks the FLASH Bank2 Program Erase Controller.
 401:./Libraries/STM32F10x_StdPeriph_Driver/src/stm32f10x_flash.c ****   * @note   This function can be used only for STM32F10X_XL density devices.
 402:./Libraries/STM32F10x_StdPeriph_Driver/src/stm32f10x_flash.c ****   * @param  None
ARM GAS  /tmp/ccE6739X.s 			page 15


 403:./Libraries/STM32F10x_StdPeriph_Driver/src/stm32f10x_flash.c ****   * @retval None
 404:./Libraries/STM32F10x_StdPeriph_Driver/src/stm32f10x_flash.c ****   */
 405:./Libraries/STM32F10x_StdPeriph_Driver/src/stm32f10x_flash.c **** void FLASH_LockBank2(void)
 406:./Libraries/STM32F10x_StdPeriph_Driver/src/stm32f10x_flash.c **** {
 407:./Libraries/STM32F10x_StdPeriph_Driver/src/stm32f10x_flash.c ****   /* Set the Lock Bit to lock the FPEC and the CR of  Bank2 */
 408:./Libraries/STM32F10x_StdPeriph_Driver/src/stm32f10x_flash.c ****   FLASH->CR2 |= CR_LOCK_Set;
 409:./Libraries/STM32F10x_StdPeriph_Driver/src/stm32f10x_flash.c **** }
 410:./Libraries/STM32F10x_StdPeriph_Driver/src/stm32f10x_flash.c **** #endif /* STM32F10X_XL */
 411:./Libraries/STM32F10x_StdPeriph_Driver/src/stm32f10x_flash.c **** 
 412:./Libraries/STM32F10x_StdPeriph_Driver/src/stm32f10x_flash.c **** /**
 413:./Libraries/STM32F10x_StdPeriph_Driver/src/stm32f10x_flash.c ****   * @brief  Erases a specified FLASH page.
 414:./Libraries/STM32F10x_StdPeriph_Driver/src/stm32f10x_flash.c ****   * @note   This function can be used for all STM32F10x devices.
 415:./Libraries/STM32F10x_StdPeriph_Driver/src/stm32f10x_flash.c ****   * @param  Page_Address: The page address to be erased.
 416:./Libraries/STM32F10x_StdPeriph_Driver/src/stm32f10x_flash.c ****   * @retval FLASH Status: The returned value can be: FLASH_BUSY, FLASH_ERROR_PG,
 417:./Libraries/STM32F10x_StdPeriph_Driver/src/stm32f10x_flash.c ****   *         FLASH_ERROR_WRP, FLASH_COMPLETE or FLASH_TIMEOUT.
 418:./Libraries/STM32F10x_StdPeriph_Driver/src/stm32f10x_flash.c ****   */
 419:./Libraries/STM32F10x_StdPeriph_Driver/src/stm32f10x_flash.c **** FLASH_Status FLASH_ErasePage(uint32_t Page_Address)
 420:./Libraries/STM32F10x_StdPeriph_Driver/src/stm32f10x_flash.c **** {
 412              		.loc 1 420 1
 413              		.cfi_startproc
 414              		@ args = 0, pretend = 0, frame = 16
 415              		@ frame_needed = 1, uses_anonymous_args = 0
 416 0000 80B5     		push	{r7, lr}
 417              	.LCFI34:
 418              		.cfi_def_cfa_offset 8
 419              		.cfi_offset 7, -8
 420              		.cfi_offset 14, -4
 421 0002 84B0     		sub	sp, sp, #16
 422              	.LCFI35:
 423              		.cfi_def_cfa_offset 24
 424 0004 00AF     		add	r7, sp, #0
 425              	.LCFI36:
 426              		.cfi_def_cfa_register 7
 427 0006 7860     		str	r0, [r7, #4]
 421:./Libraries/STM32F10x_StdPeriph_Driver/src/stm32f10x_flash.c ****   FLASH_Status status = FLASH_COMPLETE;
 428              		.loc 1 421 16
 429 0008 0423     		movs	r3, #4
 430 000a FB73     		strb	r3, [r7, #15]
 422:./Libraries/STM32F10x_StdPeriph_Driver/src/stm32f10x_flash.c ****   /* Check the parameters */
 423:./Libraries/STM32F10x_StdPeriph_Driver/src/stm32f10x_flash.c ****   assert_param(IS_FLASH_ADDRESS(Page_Address));
 424:./Libraries/STM32F10x_StdPeriph_Driver/src/stm32f10x_flash.c **** 
 425:./Libraries/STM32F10x_StdPeriph_Driver/src/stm32f10x_flash.c **** #ifdef STM32F10X_XL
 426:./Libraries/STM32F10x_StdPeriph_Driver/src/stm32f10x_flash.c ****   if(Page_Address < FLASH_BANK1_END_ADDRESS)  
 427:./Libraries/STM32F10x_StdPeriph_Driver/src/stm32f10x_flash.c ****   {
 428:./Libraries/STM32F10x_StdPeriph_Driver/src/stm32f10x_flash.c ****     /* Wait for last operation to be completed */
 429:./Libraries/STM32F10x_StdPeriph_Driver/src/stm32f10x_flash.c ****     status = FLASH_WaitForLastBank1Operation(EraseTimeout);
 430:./Libraries/STM32F10x_StdPeriph_Driver/src/stm32f10x_flash.c ****     if(status == FLASH_COMPLETE)
 431:./Libraries/STM32F10x_StdPeriph_Driver/src/stm32f10x_flash.c ****     { 
 432:./Libraries/STM32F10x_StdPeriph_Driver/src/stm32f10x_flash.c ****       /* if the previous operation is completed, proceed to erase the page */
 433:./Libraries/STM32F10x_StdPeriph_Driver/src/stm32f10x_flash.c ****       FLASH->CR|= CR_PER_Set;
 434:./Libraries/STM32F10x_StdPeriph_Driver/src/stm32f10x_flash.c ****       FLASH->AR = Page_Address; 
 435:./Libraries/STM32F10x_StdPeriph_Driver/src/stm32f10x_flash.c ****       FLASH->CR|= CR_STRT_Set;
 436:./Libraries/STM32F10x_StdPeriph_Driver/src/stm32f10x_flash.c ****     
 437:./Libraries/STM32F10x_StdPeriph_Driver/src/stm32f10x_flash.c ****       /* Wait for last operation to be completed */
 438:./Libraries/STM32F10x_StdPeriph_Driver/src/stm32f10x_flash.c ****       status = FLASH_WaitForLastBank1Operation(EraseTimeout);
 439:./Libraries/STM32F10x_StdPeriph_Driver/src/stm32f10x_flash.c **** 
 440:./Libraries/STM32F10x_StdPeriph_Driver/src/stm32f10x_flash.c ****       /* Disable the PER Bit */
ARM GAS  /tmp/ccE6739X.s 			page 16


 441:./Libraries/STM32F10x_StdPeriph_Driver/src/stm32f10x_flash.c ****       FLASH->CR &= CR_PER_Reset;
 442:./Libraries/STM32F10x_StdPeriph_Driver/src/stm32f10x_flash.c ****     }
 443:./Libraries/STM32F10x_StdPeriph_Driver/src/stm32f10x_flash.c ****   }
 444:./Libraries/STM32F10x_StdPeriph_Driver/src/stm32f10x_flash.c ****   else
 445:./Libraries/STM32F10x_StdPeriph_Driver/src/stm32f10x_flash.c ****   {
 446:./Libraries/STM32F10x_StdPeriph_Driver/src/stm32f10x_flash.c ****     /* Wait for last operation to be completed */
 447:./Libraries/STM32F10x_StdPeriph_Driver/src/stm32f10x_flash.c ****     status = FLASH_WaitForLastBank2Operation(EraseTimeout);
 448:./Libraries/STM32F10x_StdPeriph_Driver/src/stm32f10x_flash.c ****     if(status == FLASH_COMPLETE)
 449:./Libraries/STM32F10x_StdPeriph_Driver/src/stm32f10x_flash.c ****     { 
 450:./Libraries/STM32F10x_StdPeriph_Driver/src/stm32f10x_flash.c ****       /* if the previous operation is completed, proceed to erase the page */
 451:./Libraries/STM32F10x_StdPeriph_Driver/src/stm32f10x_flash.c ****       FLASH->CR2|= CR_PER_Set;
 452:./Libraries/STM32F10x_StdPeriph_Driver/src/stm32f10x_flash.c ****       FLASH->AR2 = Page_Address; 
 453:./Libraries/STM32F10x_StdPeriph_Driver/src/stm32f10x_flash.c ****       FLASH->CR2|= CR_STRT_Set;
 454:./Libraries/STM32F10x_StdPeriph_Driver/src/stm32f10x_flash.c ****     
 455:./Libraries/STM32F10x_StdPeriph_Driver/src/stm32f10x_flash.c ****       /* Wait for last operation to be completed */
 456:./Libraries/STM32F10x_StdPeriph_Driver/src/stm32f10x_flash.c ****       status = FLASH_WaitForLastBank2Operation(EraseTimeout);
 457:./Libraries/STM32F10x_StdPeriph_Driver/src/stm32f10x_flash.c ****       
 458:./Libraries/STM32F10x_StdPeriph_Driver/src/stm32f10x_flash.c ****       /* Disable the PER Bit */
 459:./Libraries/STM32F10x_StdPeriph_Driver/src/stm32f10x_flash.c ****       FLASH->CR2 &= CR_PER_Reset;
 460:./Libraries/STM32F10x_StdPeriph_Driver/src/stm32f10x_flash.c ****     }
 461:./Libraries/STM32F10x_StdPeriph_Driver/src/stm32f10x_flash.c ****   }
 462:./Libraries/STM32F10x_StdPeriph_Driver/src/stm32f10x_flash.c **** #else
 463:./Libraries/STM32F10x_StdPeriph_Driver/src/stm32f10x_flash.c ****   /* Wait for last operation to be completed */
 464:./Libraries/STM32F10x_StdPeriph_Driver/src/stm32f10x_flash.c ****   status = FLASH_WaitForLastOperation(EraseTimeout);
 431              		.loc 1 464 12
 432 000c 4FF43020 		mov	r0, #720896
 433 0010 FFF7FEFF 		bl	FLASH_WaitForLastOperation
 434 0014 0346     		mov	r3, r0
 435 0016 FB73     		strb	r3, [r7, #15]
 465:./Libraries/STM32F10x_StdPeriph_Driver/src/stm32f10x_flash.c ****   
 466:./Libraries/STM32F10x_StdPeriph_Driver/src/stm32f10x_flash.c ****   if(status == FLASH_COMPLETE)
 436              		.loc 1 466 5
 437 0018 FB7B     		ldrb	r3, [r7, #15]	@ zero_extendqisi2
 438 001a 042B     		cmp	r3, #4
 439 001c 1BD1     		bne	.L23
 467:./Libraries/STM32F10x_StdPeriph_Driver/src/stm32f10x_flash.c ****   { 
 468:./Libraries/STM32F10x_StdPeriph_Driver/src/stm32f10x_flash.c ****     /* if the previous operation is completed, proceed to erase the page */
 469:./Libraries/STM32F10x_StdPeriph_Driver/src/stm32f10x_flash.c ****     FLASH->CR|= CR_PER_Set;
 440              		.loc 1 469 14
 441 001e 104B     		ldr	r3, .L25
 442 0020 1B69     		ldr	r3, [r3, #16]
 443 0022 0F4A     		ldr	r2, .L25
 444 0024 43F00203 		orr	r3, r3, #2
 445 0028 1361     		str	r3, [r2, #16]
 470:./Libraries/STM32F10x_StdPeriph_Driver/src/stm32f10x_flash.c ****     FLASH->AR = Page_Address; 
 446              		.loc 1 470 10
 447 002a 0D4A     		ldr	r2, .L25
 448              		.loc 1 470 15
 449 002c 7B68     		ldr	r3, [r7, #4]
 450 002e 5361     		str	r3, [r2, #20]
 471:./Libraries/STM32F10x_StdPeriph_Driver/src/stm32f10x_flash.c ****     FLASH->CR|= CR_STRT_Set;
 451              		.loc 1 471 14
 452 0030 0B4B     		ldr	r3, .L25
 453 0032 1B69     		ldr	r3, [r3, #16]
 454 0034 0A4A     		ldr	r2, .L25
 455 0036 43F04003 		orr	r3, r3, #64
 456 003a 1361     		str	r3, [r2, #16]
ARM GAS  /tmp/ccE6739X.s 			page 17


 472:./Libraries/STM32F10x_StdPeriph_Driver/src/stm32f10x_flash.c ****     
 473:./Libraries/STM32F10x_StdPeriph_Driver/src/stm32f10x_flash.c ****     /* Wait for last operation to be completed */
 474:./Libraries/STM32F10x_StdPeriph_Driver/src/stm32f10x_flash.c ****     status = FLASH_WaitForLastOperation(EraseTimeout);
 457              		.loc 1 474 14
 458 003c 4FF43020 		mov	r0, #720896
 459 0040 FFF7FEFF 		bl	FLASH_WaitForLastOperation
 460 0044 0346     		mov	r3, r0
 461 0046 FB73     		strb	r3, [r7, #15]
 475:./Libraries/STM32F10x_StdPeriph_Driver/src/stm32f10x_flash.c ****     
 476:./Libraries/STM32F10x_StdPeriph_Driver/src/stm32f10x_flash.c ****     /* Disable the PER Bit */
 477:./Libraries/STM32F10x_StdPeriph_Driver/src/stm32f10x_flash.c ****     FLASH->CR &= CR_PER_Reset;
 462              		.loc 1 477 15
 463 0048 054B     		ldr	r3, .L25
 464 004a 1A69     		ldr	r2, [r3, #16]
 465 004c 0449     		ldr	r1, .L25
 466 004e 41F6FD73 		movw	r3, #8189
 467 0052 1340     		ands	r3, r3, r2
 468 0054 0B61     		str	r3, [r1, #16]
 469              	.L23:
 478:./Libraries/STM32F10x_StdPeriph_Driver/src/stm32f10x_flash.c ****   }
 479:./Libraries/STM32F10x_StdPeriph_Driver/src/stm32f10x_flash.c **** #endif /* STM32F10X_XL */
 480:./Libraries/STM32F10x_StdPeriph_Driver/src/stm32f10x_flash.c **** 
 481:./Libraries/STM32F10x_StdPeriph_Driver/src/stm32f10x_flash.c ****   /* Return the Erase Status */
 482:./Libraries/STM32F10x_StdPeriph_Driver/src/stm32f10x_flash.c ****   return status;
 470              		.loc 1 482 10
 471 0056 FB7B     		ldrb	r3, [r7, #15]	@ zero_extendqisi2
 483:./Libraries/STM32F10x_StdPeriph_Driver/src/stm32f10x_flash.c **** }
 472              		.loc 1 483 1
 473 0058 1846     		mov	r0, r3
 474 005a 1037     		adds	r7, r7, #16
 475              	.LCFI37:
 476              		.cfi_def_cfa_offset 8
 477 005c BD46     		mov	sp, r7
 478              	.LCFI38:
 479              		.cfi_def_cfa_register 13
 480              		@ sp needed
 481 005e 80BD     		pop	{r7, pc}
 482              	.L26:
 483              		.align	2
 484              	.L25:
 485 0060 00200240 		.word	1073881088
 486              		.cfi_endproc
 487              	.LFE36:
 489              		.section	.text.FLASH_EraseAllPages,"ax",%progbits
 490              		.align	1
 491              		.global	FLASH_EraseAllPages
 492              		.syntax unified
 493              		.thumb
 494              		.thumb_func
 495              		.fpu softvfp
 497              	FLASH_EraseAllPages:
 498              	.LFB37:
 484:./Libraries/STM32F10x_StdPeriph_Driver/src/stm32f10x_flash.c **** 
 485:./Libraries/STM32F10x_StdPeriph_Driver/src/stm32f10x_flash.c **** /**
 486:./Libraries/STM32F10x_StdPeriph_Driver/src/stm32f10x_flash.c ****   * @brief  Erases all FLASH pages.
 487:./Libraries/STM32F10x_StdPeriph_Driver/src/stm32f10x_flash.c ****   * @note   This function can be used for all STM32F10x devices.
 488:./Libraries/STM32F10x_StdPeriph_Driver/src/stm32f10x_flash.c ****   * @param  None
ARM GAS  /tmp/ccE6739X.s 			page 18


 489:./Libraries/STM32F10x_StdPeriph_Driver/src/stm32f10x_flash.c ****   * @retval FLASH Status: The returned value can be: FLASH_ERROR_PG,
 490:./Libraries/STM32F10x_StdPeriph_Driver/src/stm32f10x_flash.c ****   *         FLASH_ERROR_WRP, FLASH_COMPLETE or FLASH_TIMEOUT.
 491:./Libraries/STM32F10x_StdPeriph_Driver/src/stm32f10x_flash.c ****   */
 492:./Libraries/STM32F10x_StdPeriph_Driver/src/stm32f10x_flash.c **** FLASH_Status FLASH_EraseAllPages(void)
 493:./Libraries/STM32F10x_StdPeriph_Driver/src/stm32f10x_flash.c **** {
 499              		.loc 1 493 1
 500              		.cfi_startproc
 501              		@ args = 0, pretend = 0, frame = 8
 502              		@ frame_needed = 1, uses_anonymous_args = 0
 503 0000 80B5     		push	{r7, lr}
 504              	.LCFI39:
 505              		.cfi_def_cfa_offset 8
 506              		.cfi_offset 7, -8
 507              		.cfi_offset 14, -4
 508 0002 82B0     		sub	sp, sp, #8
 509              	.LCFI40:
 510              		.cfi_def_cfa_offset 16
 511 0004 00AF     		add	r7, sp, #0
 512              	.LCFI41:
 513              		.cfi_def_cfa_register 7
 494:./Libraries/STM32F10x_StdPeriph_Driver/src/stm32f10x_flash.c ****   FLASH_Status status = FLASH_COMPLETE;
 514              		.loc 1 494 16
 515 0006 0423     		movs	r3, #4
 516 0008 FB71     		strb	r3, [r7, #7]
 495:./Libraries/STM32F10x_StdPeriph_Driver/src/stm32f10x_flash.c **** 
 496:./Libraries/STM32F10x_StdPeriph_Driver/src/stm32f10x_flash.c **** #ifdef STM32F10X_XL
 497:./Libraries/STM32F10x_StdPeriph_Driver/src/stm32f10x_flash.c ****   /* Wait for last operation to be completed */
 498:./Libraries/STM32F10x_StdPeriph_Driver/src/stm32f10x_flash.c ****   status = FLASH_WaitForLastBank1Operation(EraseTimeout);
 499:./Libraries/STM32F10x_StdPeriph_Driver/src/stm32f10x_flash.c ****   
 500:./Libraries/STM32F10x_StdPeriph_Driver/src/stm32f10x_flash.c ****   if(status == FLASH_COMPLETE)
 501:./Libraries/STM32F10x_StdPeriph_Driver/src/stm32f10x_flash.c ****   {
 502:./Libraries/STM32F10x_StdPeriph_Driver/src/stm32f10x_flash.c ****     /* if the previous operation is completed, proceed to erase all pages */
 503:./Libraries/STM32F10x_StdPeriph_Driver/src/stm32f10x_flash.c ****      FLASH->CR |= CR_MER_Set;
 504:./Libraries/STM32F10x_StdPeriph_Driver/src/stm32f10x_flash.c ****      FLASH->CR |= CR_STRT_Set;
 505:./Libraries/STM32F10x_StdPeriph_Driver/src/stm32f10x_flash.c ****     
 506:./Libraries/STM32F10x_StdPeriph_Driver/src/stm32f10x_flash.c ****     /* Wait for last operation to be completed */
 507:./Libraries/STM32F10x_StdPeriph_Driver/src/stm32f10x_flash.c ****     status = FLASH_WaitForLastBank1Operation(EraseTimeout);
 508:./Libraries/STM32F10x_StdPeriph_Driver/src/stm32f10x_flash.c ****     
 509:./Libraries/STM32F10x_StdPeriph_Driver/src/stm32f10x_flash.c ****     /* Disable the MER Bit */
 510:./Libraries/STM32F10x_StdPeriph_Driver/src/stm32f10x_flash.c ****     FLASH->CR &= CR_MER_Reset;
 511:./Libraries/STM32F10x_StdPeriph_Driver/src/stm32f10x_flash.c ****   }    
 512:./Libraries/STM32F10x_StdPeriph_Driver/src/stm32f10x_flash.c ****   if(status == FLASH_COMPLETE)
 513:./Libraries/STM32F10x_StdPeriph_Driver/src/stm32f10x_flash.c ****   {
 514:./Libraries/STM32F10x_StdPeriph_Driver/src/stm32f10x_flash.c ****     /* if the previous operation is completed, proceed to erase all pages */
 515:./Libraries/STM32F10x_StdPeriph_Driver/src/stm32f10x_flash.c ****      FLASH->CR2 |= CR_MER_Set;
 516:./Libraries/STM32F10x_StdPeriph_Driver/src/stm32f10x_flash.c ****      FLASH->CR2 |= CR_STRT_Set;
 517:./Libraries/STM32F10x_StdPeriph_Driver/src/stm32f10x_flash.c ****     
 518:./Libraries/STM32F10x_StdPeriph_Driver/src/stm32f10x_flash.c ****     /* Wait for last operation to be completed */
 519:./Libraries/STM32F10x_StdPeriph_Driver/src/stm32f10x_flash.c ****     status = FLASH_WaitForLastBank2Operation(EraseTimeout);
 520:./Libraries/STM32F10x_StdPeriph_Driver/src/stm32f10x_flash.c ****     
 521:./Libraries/STM32F10x_StdPeriph_Driver/src/stm32f10x_flash.c ****     /* Disable the MER Bit */
 522:./Libraries/STM32F10x_StdPeriph_Driver/src/stm32f10x_flash.c ****     FLASH->CR2 &= CR_MER_Reset;
 523:./Libraries/STM32F10x_StdPeriph_Driver/src/stm32f10x_flash.c ****   }
 524:./Libraries/STM32F10x_StdPeriph_Driver/src/stm32f10x_flash.c **** #else
 525:./Libraries/STM32F10x_StdPeriph_Driver/src/stm32f10x_flash.c ****   /* Wait for last operation to be completed */
 526:./Libraries/STM32F10x_StdPeriph_Driver/src/stm32f10x_flash.c ****   status = FLASH_WaitForLastOperation(EraseTimeout);
 517              		.loc 1 526 12
ARM GAS  /tmp/ccE6739X.s 			page 19


 518 000a 4FF43020 		mov	r0, #720896
 519 000e FFF7FEFF 		bl	FLASH_WaitForLastOperation
 520 0012 0346     		mov	r3, r0
 521 0014 FB71     		strb	r3, [r7, #7]
 527:./Libraries/STM32F10x_StdPeriph_Driver/src/stm32f10x_flash.c ****   if(status == FLASH_COMPLETE)
 522              		.loc 1 527 5
 523 0016 FB79     		ldrb	r3, [r7, #7]	@ zero_extendqisi2
 524 0018 042B     		cmp	r3, #4
 525 001a 18D1     		bne	.L28
 528:./Libraries/STM32F10x_StdPeriph_Driver/src/stm32f10x_flash.c ****   {
 529:./Libraries/STM32F10x_StdPeriph_Driver/src/stm32f10x_flash.c ****     /* if the previous operation is completed, proceed to erase all pages */
 530:./Libraries/STM32F10x_StdPeriph_Driver/src/stm32f10x_flash.c ****      FLASH->CR |= CR_MER_Set;
 526              		.loc 1 530 16
 527 001c 0E4B     		ldr	r3, .L30
 528 001e 1B69     		ldr	r3, [r3, #16]
 529 0020 0D4A     		ldr	r2, .L30
 530 0022 43F00403 		orr	r3, r3, #4
 531 0026 1361     		str	r3, [r2, #16]
 531:./Libraries/STM32F10x_StdPeriph_Driver/src/stm32f10x_flash.c ****      FLASH->CR |= CR_STRT_Set;
 532              		.loc 1 531 16
 533 0028 0B4B     		ldr	r3, .L30
 534 002a 1B69     		ldr	r3, [r3, #16]
 535 002c 0A4A     		ldr	r2, .L30
 536 002e 43F04003 		orr	r3, r3, #64
 537 0032 1361     		str	r3, [r2, #16]
 532:./Libraries/STM32F10x_StdPeriph_Driver/src/stm32f10x_flash.c ****     
 533:./Libraries/STM32F10x_StdPeriph_Driver/src/stm32f10x_flash.c ****     /* Wait for last operation to be completed */
 534:./Libraries/STM32F10x_StdPeriph_Driver/src/stm32f10x_flash.c ****     status = FLASH_WaitForLastOperation(EraseTimeout);
 538              		.loc 1 534 14
 539 0034 4FF43020 		mov	r0, #720896
 540 0038 FFF7FEFF 		bl	FLASH_WaitForLastOperation
 541 003c 0346     		mov	r3, r0
 542 003e FB71     		strb	r3, [r7, #7]
 535:./Libraries/STM32F10x_StdPeriph_Driver/src/stm32f10x_flash.c **** 
 536:./Libraries/STM32F10x_StdPeriph_Driver/src/stm32f10x_flash.c ****     /* Disable the MER Bit */
 537:./Libraries/STM32F10x_StdPeriph_Driver/src/stm32f10x_flash.c ****     FLASH->CR &= CR_MER_Reset;
 543              		.loc 1 537 15
 544 0040 054B     		ldr	r3, .L30
 545 0042 1A69     		ldr	r2, [r3, #16]
 546 0044 0449     		ldr	r1, .L30
 547 0046 41F6FB73 		movw	r3, #8187
 548 004a 1340     		ands	r3, r3, r2
 549 004c 0B61     		str	r3, [r1, #16]
 550              	.L28:
 538:./Libraries/STM32F10x_StdPeriph_Driver/src/stm32f10x_flash.c ****   }
 539:./Libraries/STM32F10x_StdPeriph_Driver/src/stm32f10x_flash.c **** #endif /* STM32F10X_XL */
 540:./Libraries/STM32F10x_StdPeriph_Driver/src/stm32f10x_flash.c **** 
 541:./Libraries/STM32F10x_StdPeriph_Driver/src/stm32f10x_flash.c ****   /* Return the Erase Status */
 542:./Libraries/STM32F10x_StdPeriph_Driver/src/stm32f10x_flash.c ****   return status;
 551              		.loc 1 542 10
 552 004e FB79     		ldrb	r3, [r7, #7]	@ zero_extendqisi2
 543:./Libraries/STM32F10x_StdPeriph_Driver/src/stm32f10x_flash.c **** }
 553              		.loc 1 543 1
 554 0050 1846     		mov	r0, r3
 555 0052 0837     		adds	r7, r7, #8
 556              	.LCFI42:
 557              		.cfi_def_cfa_offset 8
ARM GAS  /tmp/ccE6739X.s 			page 20


 558 0054 BD46     		mov	sp, r7
 559              	.LCFI43:
 560              		.cfi_def_cfa_register 13
 561              		@ sp needed
 562 0056 80BD     		pop	{r7, pc}
 563              	.L31:
 564              		.align	2
 565              	.L30:
 566 0058 00200240 		.word	1073881088
 567              		.cfi_endproc
 568              	.LFE37:
 570              		.section	.text.FLASH_EraseAllBank1Pages,"ax",%progbits
 571              		.align	1
 572              		.global	FLASH_EraseAllBank1Pages
 573              		.syntax unified
 574              		.thumb
 575              		.thumb_func
 576              		.fpu softvfp
 578              	FLASH_EraseAllBank1Pages:
 579              	.LFB38:
 544:./Libraries/STM32F10x_StdPeriph_Driver/src/stm32f10x_flash.c **** 
 545:./Libraries/STM32F10x_StdPeriph_Driver/src/stm32f10x_flash.c **** /**
 546:./Libraries/STM32F10x_StdPeriph_Driver/src/stm32f10x_flash.c ****   * @brief  Erases all Bank1 FLASH pages.
 547:./Libraries/STM32F10x_StdPeriph_Driver/src/stm32f10x_flash.c ****   * @note   This function can be used for all STM32F10x devices.
 548:./Libraries/STM32F10x_StdPeriph_Driver/src/stm32f10x_flash.c ****   *         - For STM32F10X_XL devices this function erases all Bank1 pages.
 549:./Libraries/STM32F10x_StdPeriph_Driver/src/stm32f10x_flash.c ****   *         - For all other devices it erases all Bank1 pages and it is equivalent 
 550:./Libraries/STM32F10x_StdPeriph_Driver/src/stm32f10x_flash.c ****   *           to FLASH_EraseAllPages function.
 551:./Libraries/STM32F10x_StdPeriph_Driver/src/stm32f10x_flash.c ****   * @param  None
 552:./Libraries/STM32F10x_StdPeriph_Driver/src/stm32f10x_flash.c ****   * @retval FLASH Status: The returned value can be: FLASH_ERROR_PG,
 553:./Libraries/STM32F10x_StdPeriph_Driver/src/stm32f10x_flash.c ****   *         FLASH_ERROR_WRP, FLASH_COMPLETE or FLASH_TIMEOUT.
 554:./Libraries/STM32F10x_StdPeriph_Driver/src/stm32f10x_flash.c ****   */
 555:./Libraries/STM32F10x_StdPeriph_Driver/src/stm32f10x_flash.c **** FLASH_Status FLASH_EraseAllBank1Pages(void)
 556:./Libraries/STM32F10x_StdPeriph_Driver/src/stm32f10x_flash.c **** {
 580              		.loc 1 556 1
 581              		.cfi_startproc
 582              		@ args = 0, pretend = 0, frame = 8
 583              		@ frame_needed = 1, uses_anonymous_args = 0
 584 0000 80B5     		push	{r7, lr}
 585              	.LCFI44:
 586              		.cfi_def_cfa_offset 8
 587              		.cfi_offset 7, -8
 588              		.cfi_offset 14, -4
 589 0002 82B0     		sub	sp, sp, #8
 590              	.LCFI45:
 591              		.cfi_def_cfa_offset 16
 592 0004 00AF     		add	r7, sp, #0
 593              	.LCFI46:
 594              		.cfi_def_cfa_register 7
 557:./Libraries/STM32F10x_StdPeriph_Driver/src/stm32f10x_flash.c ****   FLASH_Status status = FLASH_COMPLETE;
 595              		.loc 1 557 16
 596 0006 0423     		movs	r3, #4
 597 0008 FB71     		strb	r3, [r7, #7]
 558:./Libraries/STM32F10x_StdPeriph_Driver/src/stm32f10x_flash.c ****   /* Wait for last operation to be completed */
 559:./Libraries/STM32F10x_StdPeriph_Driver/src/stm32f10x_flash.c ****   status = FLASH_WaitForLastBank1Operation(EraseTimeout);
 598              		.loc 1 559 12
 599 000a 4FF43020 		mov	r0, #720896
 600 000e FFF7FEFF 		bl	FLASH_WaitForLastBank1Operation
ARM GAS  /tmp/ccE6739X.s 			page 21


 601 0012 0346     		mov	r3, r0
 602 0014 FB71     		strb	r3, [r7, #7]
 560:./Libraries/STM32F10x_StdPeriph_Driver/src/stm32f10x_flash.c ****   
 561:./Libraries/STM32F10x_StdPeriph_Driver/src/stm32f10x_flash.c ****   if(status == FLASH_COMPLETE)
 603              		.loc 1 561 5
 604 0016 FB79     		ldrb	r3, [r7, #7]	@ zero_extendqisi2
 605 0018 042B     		cmp	r3, #4
 606 001a 18D1     		bne	.L33
 562:./Libraries/STM32F10x_StdPeriph_Driver/src/stm32f10x_flash.c ****   {
 563:./Libraries/STM32F10x_StdPeriph_Driver/src/stm32f10x_flash.c ****     /* if the previous operation is completed, proceed to erase all pages */
 564:./Libraries/STM32F10x_StdPeriph_Driver/src/stm32f10x_flash.c ****      FLASH->CR |= CR_MER_Set;
 607              		.loc 1 564 16
 608 001c 0E4B     		ldr	r3, .L35
 609 001e 1B69     		ldr	r3, [r3, #16]
 610 0020 0D4A     		ldr	r2, .L35
 611 0022 43F00403 		orr	r3, r3, #4
 612 0026 1361     		str	r3, [r2, #16]
 565:./Libraries/STM32F10x_StdPeriph_Driver/src/stm32f10x_flash.c ****      FLASH->CR |= CR_STRT_Set;
 613              		.loc 1 565 16
 614 0028 0B4B     		ldr	r3, .L35
 615 002a 1B69     		ldr	r3, [r3, #16]
 616 002c 0A4A     		ldr	r2, .L35
 617 002e 43F04003 		orr	r3, r3, #64
 618 0032 1361     		str	r3, [r2, #16]
 566:./Libraries/STM32F10x_StdPeriph_Driver/src/stm32f10x_flash.c ****     
 567:./Libraries/STM32F10x_StdPeriph_Driver/src/stm32f10x_flash.c ****     /* Wait for last operation to be completed */
 568:./Libraries/STM32F10x_StdPeriph_Driver/src/stm32f10x_flash.c ****     status = FLASH_WaitForLastBank1Operation(EraseTimeout);
 619              		.loc 1 568 14
 620 0034 4FF43020 		mov	r0, #720896
 621 0038 FFF7FEFF 		bl	FLASH_WaitForLastBank1Operation
 622 003c 0346     		mov	r3, r0
 623 003e FB71     		strb	r3, [r7, #7]
 569:./Libraries/STM32F10x_StdPeriph_Driver/src/stm32f10x_flash.c ****     
 570:./Libraries/STM32F10x_StdPeriph_Driver/src/stm32f10x_flash.c ****     /* Disable the MER Bit */
 571:./Libraries/STM32F10x_StdPeriph_Driver/src/stm32f10x_flash.c ****     FLASH->CR &= CR_MER_Reset;
 624              		.loc 1 571 15
 625 0040 054B     		ldr	r3, .L35
 626 0042 1A69     		ldr	r2, [r3, #16]
 627 0044 0449     		ldr	r1, .L35
 628 0046 41F6FB73 		movw	r3, #8187
 629 004a 1340     		ands	r3, r3, r2
 630 004c 0B61     		str	r3, [r1, #16]
 631              	.L33:
 572:./Libraries/STM32F10x_StdPeriph_Driver/src/stm32f10x_flash.c ****   }    
 573:./Libraries/STM32F10x_StdPeriph_Driver/src/stm32f10x_flash.c ****   /* Return the Erase Status */
 574:./Libraries/STM32F10x_StdPeriph_Driver/src/stm32f10x_flash.c ****   return status;
 632              		.loc 1 574 10
 633 004e FB79     		ldrb	r3, [r7, #7]	@ zero_extendqisi2
 575:./Libraries/STM32F10x_StdPeriph_Driver/src/stm32f10x_flash.c **** }
 634              		.loc 1 575 1
 635 0050 1846     		mov	r0, r3
 636 0052 0837     		adds	r7, r7, #8
 637              	.LCFI47:
 638              		.cfi_def_cfa_offset 8
 639 0054 BD46     		mov	sp, r7
 640              	.LCFI48:
 641              		.cfi_def_cfa_register 13
ARM GAS  /tmp/ccE6739X.s 			page 22


 642              		@ sp needed
 643 0056 80BD     		pop	{r7, pc}
 644              	.L36:
 645              		.align	2
 646              	.L35:
 647 0058 00200240 		.word	1073881088
 648              		.cfi_endproc
 649              	.LFE38:
 651              		.section	.text.FLASH_EraseOptionBytes,"ax",%progbits
 652              		.align	1
 653              		.global	FLASH_EraseOptionBytes
 654              		.syntax unified
 655              		.thumb
 656              		.thumb_func
 657              		.fpu softvfp
 659              	FLASH_EraseOptionBytes:
 660              	.LFB39:
 576:./Libraries/STM32F10x_StdPeriph_Driver/src/stm32f10x_flash.c **** 
 577:./Libraries/STM32F10x_StdPeriph_Driver/src/stm32f10x_flash.c **** #ifdef STM32F10X_XL
 578:./Libraries/STM32F10x_StdPeriph_Driver/src/stm32f10x_flash.c **** /**
 579:./Libraries/STM32F10x_StdPeriph_Driver/src/stm32f10x_flash.c ****   * @brief  Erases all Bank2 FLASH pages.
 580:./Libraries/STM32F10x_StdPeriph_Driver/src/stm32f10x_flash.c ****   * @note   This function can be used only for STM32F10x_XL density devices.
 581:./Libraries/STM32F10x_StdPeriph_Driver/src/stm32f10x_flash.c ****   * @param  None
 582:./Libraries/STM32F10x_StdPeriph_Driver/src/stm32f10x_flash.c ****   * @retval FLASH Status: The returned value can be: FLASH_ERROR_PG,
 583:./Libraries/STM32F10x_StdPeriph_Driver/src/stm32f10x_flash.c ****   *         FLASH_ERROR_WRP, FLASH_COMPLETE or FLASH_TIMEOUT.
 584:./Libraries/STM32F10x_StdPeriph_Driver/src/stm32f10x_flash.c ****   */
 585:./Libraries/STM32F10x_StdPeriph_Driver/src/stm32f10x_flash.c **** FLASH_Status FLASH_EraseAllBank2Pages(void)
 586:./Libraries/STM32F10x_StdPeriph_Driver/src/stm32f10x_flash.c **** {
 587:./Libraries/STM32F10x_StdPeriph_Driver/src/stm32f10x_flash.c ****   FLASH_Status status = FLASH_COMPLETE;
 588:./Libraries/STM32F10x_StdPeriph_Driver/src/stm32f10x_flash.c ****   /* Wait for last operation to be completed */
 589:./Libraries/STM32F10x_StdPeriph_Driver/src/stm32f10x_flash.c ****   status = FLASH_WaitForLastBank2Operation(EraseTimeout);
 590:./Libraries/STM32F10x_StdPeriph_Driver/src/stm32f10x_flash.c ****   
 591:./Libraries/STM32F10x_StdPeriph_Driver/src/stm32f10x_flash.c ****   if(status == FLASH_COMPLETE)
 592:./Libraries/STM32F10x_StdPeriph_Driver/src/stm32f10x_flash.c ****   {
 593:./Libraries/STM32F10x_StdPeriph_Driver/src/stm32f10x_flash.c ****     /* if the previous operation is completed, proceed to erase all pages */
 594:./Libraries/STM32F10x_StdPeriph_Driver/src/stm32f10x_flash.c ****      FLASH->CR2 |= CR_MER_Set;
 595:./Libraries/STM32F10x_StdPeriph_Driver/src/stm32f10x_flash.c ****      FLASH->CR2 |= CR_STRT_Set;
 596:./Libraries/STM32F10x_StdPeriph_Driver/src/stm32f10x_flash.c ****     
 597:./Libraries/STM32F10x_StdPeriph_Driver/src/stm32f10x_flash.c ****     /* Wait for last operation to be completed */
 598:./Libraries/STM32F10x_StdPeriph_Driver/src/stm32f10x_flash.c ****     status = FLASH_WaitForLastBank2Operation(EraseTimeout);
 599:./Libraries/STM32F10x_StdPeriph_Driver/src/stm32f10x_flash.c **** 
 600:./Libraries/STM32F10x_StdPeriph_Driver/src/stm32f10x_flash.c ****     /* Disable the MER Bit */
 601:./Libraries/STM32F10x_StdPeriph_Driver/src/stm32f10x_flash.c ****     FLASH->CR2 &= CR_MER_Reset;
 602:./Libraries/STM32F10x_StdPeriph_Driver/src/stm32f10x_flash.c ****   }    
 603:./Libraries/STM32F10x_StdPeriph_Driver/src/stm32f10x_flash.c ****   /* Return the Erase Status */
 604:./Libraries/STM32F10x_StdPeriph_Driver/src/stm32f10x_flash.c ****   return status;
 605:./Libraries/STM32F10x_StdPeriph_Driver/src/stm32f10x_flash.c **** }
 606:./Libraries/STM32F10x_StdPeriph_Driver/src/stm32f10x_flash.c **** #endif /* STM32F10X_XL */
 607:./Libraries/STM32F10x_StdPeriph_Driver/src/stm32f10x_flash.c **** 
 608:./Libraries/STM32F10x_StdPeriph_Driver/src/stm32f10x_flash.c **** /**
 609:./Libraries/STM32F10x_StdPeriph_Driver/src/stm32f10x_flash.c ****   * @brief  Erases the FLASH option bytes.
 610:./Libraries/STM32F10x_StdPeriph_Driver/src/stm32f10x_flash.c ****   * @note   This functions erases all option bytes except the Read protection (RDP). 
 611:./Libraries/STM32F10x_StdPeriph_Driver/src/stm32f10x_flash.c ****   * @note   This function can be used for all STM32F10x devices.
 612:./Libraries/STM32F10x_StdPeriph_Driver/src/stm32f10x_flash.c ****   * @param  None
 613:./Libraries/STM32F10x_StdPeriph_Driver/src/stm32f10x_flash.c ****   * @retval FLASH Status: The returned value can be: FLASH_ERROR_PG,
 614:./Libraries/STM32F10x_StdPeriph_Driver/src/stm32f10x_flash.c ****   *         FLASH_ERROR_WRP, FLASH_COMPLETE or FLASH_TIMEOUT.
 615:./Libraries/STM32F10x_StdPeriph_Driver/src/stm32f10x_flash.c ****   */
ARM GAS  /tmp/ccE6739X.s 			page 23


 616:./Libraries/STM32F10x_StdPeriph_Driver/src/stm32f10x_flash.c **** FLASH_Status FLASH_EraseOptionBytes(void)
 617:./Libraries/STM32F10x_StdPeriph_Driver/src/stm32f10x_flash.c **** {
 661              		.loc 1 617 1
 662              		.cfi_startproc
 663              		@ args = 0, pretend = 0, frame = 8
 664              		@ frame_needed = 1, uses_anonymous_args = 0
 665 0000 80B5     		push	{r7, lr}
 666              	.LCFI49:
 667              		.cfi_def_cfa_offset 8
 668              		.cfi_offset 7, -8
 669              		.cfi_offset 14, -4
 670 0002 82B0     		sub	sp, sp, #8
 671              	.LCFI50:
 672              		.cfi_def_cfa_offset 16
 673 0004 00AF     		add	r7, sp, #0
 674              	.LCFI51:
 675              		.cfi_def_cfa_register 7
 618:./Libraries/STM32F10x_StdPeriph_Driver/src/stm32f10x_flash.c ****   uint16_t rdptmp = RDP_Key;
 676              		.loc 1 618 12
 677 0006 A523     		movs	r3, #165
 678 0008 FB80     		strh	r3, [r7, #6]	@ movhi
 619:./Libraries/STM32F10x_StdPeriph_Driver/src/stm32f10x_flash.c **** 
 620:./Libraries/STM32F10x_StdPeriph_Driver/src/stm32f10x_flash.c ****   FLASH_Status status = FLASH_COMPLETE;
 679              		.loc 1 620 16
 680 000a 0423     		movs	r3, #4
 681 000c 7B71     		strb	r3, [r7, #5]
 621:./Libraries/STM32F10x_StdPeriph_Driver/src/stm32f10x_flash.c **** 
 622:./Libraries/STM32F10x_StdPeriph_Driver/src/stm32f10x_flash.c ****   /* Get the actual read protection Option Byte value */ 
 623:./Libraries/STM32F10x_StdPeriph_Driver/src/stm32f10x_flash.c ****   if(FLASH_GetReadOutProtectionStatus() != RESET)
 682              		.loc 1 623 6
 683 000e FFF7FEFF 		bl	FLASH_GetReadOutProtectionStatus
 684 0012 0346     		mov	r3, r0
 685              		.loc 1 623 5
 686 0014 002B     		cmp	r3, #0
 687 0016 01D0     		beq	.L38
 624:./Libraries/STM32F10x_StdPeriph_Driver/src/stm32f10x_flash.c ****   {
 625:./Libraries/STM32F10x_StdPeriph_Driver/src/stm32f10x_flash.c ****     rdptmp = 0x00;  
 688              		.loc 1 625 12
 689 0018 0023     		movs	r3, #0
 690 001a FB80     		strh	r3, [r7, #6]	@ movhi
 691              	.L38:
 626:./Libraries/STM32F10x_StdPeriph_Driver/src/stm32f10x_flash.c ****   }
 627:./Libraries/STM32F10x_StdPeriph_Driver/src/stm32f10x_flash.c **** 
 628:./Libraries/STM32F10x_StdPeriph_Driver/src/stm32f10x_flash.c ****   /* Wait for last operation to be completed */
 629:./Libraries/STM32F10x_StdPeriph_Driver/src/stm32f10x_flash.c ****   status = FLASH_WaitForLastOperation(EraseTimeout);
 692              		.loc 1 629 12
 693 001c 4FF43020 		mov	r0, #720896
 694 0020 FFF7FEFF 		bl	FLASH_WaitForLastOperation
 695 0024 0346     		mov	r3, r0
 696 0026 7B71     		strb	r3, [r7, #5]
 630:./Libraries/STM32F10x_StdPeriph_Driver/src/stm32f10x_flash.c ****   if(status == FLASH_COMPLETE)
 697              		.loc 1 630 5
 698 0028 7B79     		ldrb	r3, [r7, #5]	@ zero_extendqisi2
 699 002a 042B     		cmp	r3, #4
 700 002c 45D1     		bne	.L39
 631:./Libraries/STM32F10x_StdPeriph_Driver/src/stm32f10x_flash.c ****   {
 632:./Libraries/STM32F10x_StdPeriph_Driver/src/stm32f10x_flash.c ****     /* Authorize the small information block programming */
ARM GAS  /tmp/ccE6739X.s 			page 24


 633:./Libraries/STM32F10x_StdPeriph_Driver/src/stm32f10x_flash.c ****     FLASH->OPTKEYR = FLASH_KEY1;
 701              		.loc 1 633 10
 702 002e 254B     		ldr	r3, .L42
 703              		.loc 1 633 20
 704 0030 254A     		ldr	r2, .L42+4
 705 0032 9A60     		str	r2, [r3, #8]
 634:./Libraries/STM32F10x_StdPeriph_Driver/src/stm32f10x_flash.c ****     FLASH->OPTKEYR = FLASH_KEY2;
 706              		.loc 1 634 10
 707 0034 234B     		ldr	r3, .L42
 708              		.loc 1 634 20
 709 0036 254A     		ldr	r2, .L42+8
 710 0038 9A60     		str	r2, [r3, #8]
 635:./Libraries/STM32F10x_StdPeriph_Driver/src/stm32f10x_flash.c ****     
 636:./Libraries/STM32F10x_StdPeriph_Driver/src/stm32f10x_flash.c ****     /* if the previous operation is completed, proceed to erase the option bytes */
 637:./Libraries/STM32F10x_StdPeriph_Driver/src/stm32f10x_flash.c ****     FLASH->CR |= CR_OPTER_Set;
 711              		.loc 1 637 15
 712 003a 224B     		ldr	r3, .L42
 713 003c 1B69     		ldr	r3, [r3, #16]
 714 003e 214A     		ldr	r2, .L42
 715 0040 43F02003 		orr	r3, r3, #32
 716 0044 1361     		str	r3, [r2, #16]
 638:./Libraries/STM32F10x_StdPeriph_Driver/src/stm32f10x_flash.c ****     FLASH->CR |= CR_STRT_Set;
 717              		.loc 1 638 15
 718 0046 1F4B     		ldr	r3, .L42
 719 0048 1B69     		ldr	r3, [r3, #16]
 720 004a 1E4A     		ldr	r2, .L42
 721 004c 43F04003 		orr	r3, r3, #64
 722 0050 1361     		str	r3, [r2, #16]
 639:./Libraries/STM32F10x_StdPeriph_Driver/src/stm32f10x_flash.c ****     /* Wait for last operation to be completed */
 640:./Libraries/STM32F10x_StdPeriph_Driver/src/stm32f10x_flash.c ****     status = FLASH_WaitForLastOperation(EraseTimeout);
 723              		.loc 1 640 14
 724 0052 4FF43020 		mov	r0, #720896
 725 0056 FFF7FEFF 		bl	FLASH_WaitForLastOperation
 726 005a 0346     		mov	r3, r0
 727 005c 7B71     		strb	r3, [r7, #5]
 641:./Libraries/STM32F10x_StdPeriph_Driver/src/stm32f10x_flash.c ****     
 642:./Libraries/STM32F10x_StdPeriph_Driver/src/stm32f10x_flash.c ****     if(status == FLASH_COMPLETE)
 728              		.loc 1 642 7
 729 005e 7B79     		ldrb	r3, [r7, #5]	@ zero_extendqisi2
 730 0060 042B     		cmp	r3, #4
 731 0062 20D1     		bne	.L40
 643:./Libraries/STM32F10x_StdPeriph_Driver/src/stm32f10x_flash.c ****     {
 644:./Libraries/STM32F10x_StdPeriph_Driver/src/stm32f10x_flash.c ****       /* if the erase operation is completed, disable the OPTER Bit */
 645:./Libraries/STM32F10x_StdPeriph_Driver/src/stm32f10x_flash.c ****       FLASH->CR &= CR_OPTER_Reset;
 732              		.loc 1 645 17
 733 0064 174B     		ldr	r3, .L42
 734 0066 1A69     		ldr	r2, [r3, #16]
 735 0068 1649     		ldr	r1, .L42
 736 006a 41F6DF73 		movw	r3, #8159
 737 006e 1340     		ands	r3, r3, r2
 738 0070 0B61     		str	r3, [r1, #16]
 646:./Libraries/STM32F10x_StdPeriph_Driver/src/stm32f10x_flash.c ****        
 647:./Libraries/STM32F10x_StdPeriph_Driver/src/stm32f10x_flash.c ****       /* Enable the Option Bytes Programming operation */
 648:./Libraries/STM32F10x_StdPeriph_Driver/src/stm32f10x_flash.c ****       FLASH->CR |= CR_OPTPG_Set;
 739              		.loc 1 648 17
 740 0072 144B     		ldr	r3, .L42
 741 0074 1B69     		ldr	r3, [r3, #16]
ARM GAS  /tmp/ccE6739X.s 			page 25


 742 0076 134A     		ldr	r2, .L42
 743 0078 43F01003 		orr	r3, r3, #16
 744 007c 1361     		str	r3, [r2, #16]
 649:./Libraries/STM32F10x_StdPeriph_Driver/src/stm32f10x_flash.c ****       /* Restore the last read protection Option Byte value */
 650:./Libraries/STM32F10x_StdPeriph_Driver/src/stm32f10x_flash.c ****       OB->RDP = (uint16_t)rdptmp; 
 745              		.loc 1 650 9
 746 007e 144A     		ldr	r2, .L42+12
 747              		.loc 1 650 15
 748 0080 FB88     		ldrh	r3, [r7, #6]	@ movhi
 749 0082 1380     		strh	r3, [r2]	@ movhi
 651:./Libraries/STM32F10x_StdPeriph_Driver/src/stm32f10x_flash.c ****       /* Wait for last operation to be completed */
 652:./Libraries/STM32F10x_StdPeriph_Driver/src/stm32f10x_flash.c ****       status = FLASH_WaitForLastOperation(ProgramTimeout);
 750              		.loc 1 652 16
 751 0084 4FF40050 		mov	r0, #8192
 752 0088 FFF7FEFF 		bl	FLASH_WaitForLastOperation
 753 008c 0346     		mov	r3, r0
 754 008e 7B71     		strb	r3, [r7, #5]
 653:./Libraries/STM32F10x_StdPeriph_Driver/src/stm32f10x_flash.c ****  
 654:./Libraries/STM32F10x_StdPeriph_Driver/src/stm32f10x_flash.c ****       if(status != FLASH_TIMEOUT)
 755              		.loc 1 654 9
 756 0090 7B79     		ldrb	r3, [r7, #5]	@ zero_extendqisi2
 757 0092 052B     		cmp	r3, #5
 758 0094 11D0     		beq	.L39
 655:./Libraries/STM32F10x_StdPeriph_Driver/src/stm32f10x_flash.c ****       {
 656:./Libraries/STM32F10x_StdPeriph_Driver/src/stm32f10x_flash.c ****         /* if the program operation is completed, disable the OPTPG Bit */
 657:./Libraries/STM32F10x_StdPeriph_Driver/src/stm32f10x_flash.c ****         FLASH->CR &= CR_OPTPG_Reset;
 759              		.loc 1 657 19
 760 0096 0B4B     		ldr	r3, .L42
 761 0098 1A69     		ldr	r2, [r3, #16]
 762 009a 0A49     		ldr	r1, .L42
 763 009c 41F6EF73 		movw	r3, #8175
 764 00a0 1340     		ands	r3, r3, r2
 765 00a2 0B61     		str	r3, [r1, #16]
 766 00a4 09E0     		b	.L39
 767              	.L40:
 658:./Libraries/STM32F10x_StdPeriph_Driver/src/stm32f10x_flash.c ****       }
 659:./Libraries/STM32F10x_StdPeriph_Driver/src/stm32f10x_flash.c ****     }
 660:./Libraries/STM32F10x_StdPeriph_Driver/src/stm32f10x_flash.c ****     else
 661:./Libraries/STM32F10x_StdPeriph_Driver/src/stm32f10x_flash.c ****     {
 662:./Libraries/STM32F10x_StdPeriph_Driver/src/stm32f10x_flash.c ****       if (status != FLASH_TIMEOUT)
 768              		.loc 1 662 10
 769 00a6 7B79     		ldrb	r3, [r7, #5]	@ zero_extendqisi2
 770 00a8 052B     		cmp	r3, #5
 771 00aa 06D0     		beq	.L39
 663:./Libraries/STM32F10x_StdPeriph_Driver/src/stm32f10x_flash.c ****       {
 664:./Libraries/STM32F10x_StdPeriph_Driver/src/stm32f10x_flash.c ****         /* Disable the OPTPG Bit */
 665:./Libraries/STM32F10x_StdPeriph_Driver/src/stm32f10x_flash.c ****         FLASH->CR &= CR_OPTPG_Reset;
 772              		.loc 1 665 19
 773 00ac 054B     		ldr	r3, .L42
 774 00ae 1A69     		ldr	r2, [r3, #16]
 775 00b0 0449     		ldr	r1, .L42
 776 00b2 41F6EF73 		movw	r3, #8175
 777 00b6 1340     		ands	r3, r3, r2
 778 00b8 0B61     		str	r3, [r1, #16]
 779              	.L39:
 666:./Libraries/STM32F10x_StdPeriph_Driver/src/stm32f10x_flash.c ****       }
 667:./Libraries/STM32F10x_StdPeriph_Driver/src/stm32f10x_flash.c ****     }  
ARM GAS  /tmp/ccE6739X.s 			page 26


 668:./Libraries/STM32F10x_StdPeriph_Driver/src/stm32f10x_flash.c ****   }
 669:./Libraries/STM32F10x_StdPeriph_Driver/src/stm32f10x_flash.c ****   /* Return the erase status */
 670:./Libraries/STM32F10x_StdPeriph_Driver/src/stm32f10x_flash.c ****   return status;
 780              		.loc 1 670 10
 781 00ba 7B79     		ldrb	r3, [r7, #5]	@ zero_extendqisi2
 671:./Libraries/STM32F10x_StdPeriph_Driver/src/stm32f10x_flash.c **** }
 782              		.loc 1 671 1
 783 00bc 1846     		mov	r0, r3
 784 00be 0837     		adds	r7, r7, #8
 785              	.LCFI52:
 786              		.cfi_def_cfa_offset 8
 787 00c0 BD46     		mov	sp, r7
 788              	.LCFI53:
 789              		.cfi_def_cfa_register 13
 790              		@ sp needed
 791 00c2 80BD     		pop	{r7, pc}
 792              	.L43:
 793              		.align	2
 794              	.L42:
 795 00c4 00200240 		.word	1073881088
 796 00c8 23016745 		.word	1164378403
 797 00cc AB89EFCD 		.word	-839939669
 798 00d0 00F8FF1F 		.word	536868864
 799              		.cfi_endproc
 800              	.LFE39:
 802              		.section	.text.FLASH_ProgramWord,"ax",%progbits
 803              		.align	1
 804              		.global	FLASH_ProgramWord
 805              		.syntax unified
 806              		.thumb
 807              		.thumb_func
 808              		.fpu softvfp
 810              	FLASH_ProgramWord:
 811              	.LFB40:
 672:./Libraries/STM32F10x_StdPeriph_Driver/src/stm32f10x_flash.c **** 
 673:./Libraries/STM32F10x_StdPeriph_Driver/src/stm32f10x_flash.c **** /**
 674:./Libraries/STM32F10x_StdPeriph_Driver/src/stm32f10x_flash.c ****   * @brief  Programs a word at a specified address.
 675:./Libraries/STM32F10x_StdPeriph_Driver/src/stm32f10x_flash.c ****   * @note   This function can be used for all STM32F10x devices.
 676:./Libraries/STM32F10x_StdPeriph_Driver/src/stm32f10x_flash.c ****   * @param  Address: specifies the address to be programmed.
 677:./Libraries/STM32F10x_StdPeriph_Driver/src/stm32f10x_flash.c ****   * @param  Data: specifies the data to be programmed.
 678:./Libraries/STM32F10x_StdPeriph_Driver/src/stm32f10x_flash.c ****   * @retval FLASH Status: The returned value can be: FLASH_ERROR_PG,
 679:./Libraries/STM32F10x_StdPeriph_Driver/src/stm32f10x_flash.c ****   *         FLASH_ERROR_WRP, FLASH_COMPLETE or FLASH_TIMEOUT. 
 680:./Libraries/STM32F10x_StdPeriph_Driver/src/stm32f10x_flash.c ****   */
 681:./Libraries/STM32F10x_StdPeriph_Driver/src/stm32f10x_flash.c **** FLASH_Status FLASH_ProgramWord(uint32_t Address, uint32_t Data)
 682:./Libraries/STM32F10x_StdPeriph_Driver/src/stm32f10x_flash.c **** {
 812              		.loc 1 682 1
 813              		.cfi_startproc
 814              		@ args = 0, pretend = 0, frame = 16
 815              		@ frame_needed = 1, uses_anonymous_args = 0
 816 0000 80B5     		push	{r7, lr}
 817              	.LCFI54:
 818              		.cfi_def_cfa_offset 8
 819              		.cfi_offset 7, -8
 820              		.cfi_offset 14, -4
 821 0002 84B0     		sub	sp, sp, #16
 822              	.LCFI55:
 823              		.cfi_def_cfa_offset 24
ARM GAS  /tmp/ccE6739X.s 			page 27


 824 0004 00AF     		add	r7, sp, #0
 825              	.LCFI56:
 826              		.cfi_def_cfa_register 7
 827 0006 7860     		str	r0, [r7, #4]
 828 0008 3960     		str	r1, [r7]
 683:./Libraries/STM32F10x_StdPeriph_Driver/src/stm32f10x_flash.c ****   FLASH_Status status = FLASH_COMPLETE;
 829              		.loc 1 683 16
 830 000a 0423     		movs	r3, #4
 831 000c FB73     		strb	r3, [r7, #15]
 684:./Libraries/STM32F10x_StdPeriph_Driver/src/stm32f10x_flash.c ****   __IO uint32_t tmp = 0;
 832              		.loc 1 684 17
 833 000e 0023     		movs	r3, #0
 834 0010 BB60     		str	r3, [r7, #8]
 685:./Libraries/STM32F10x_StdPeriph_Driver/src/stm32f10x_flash.c **** 
 686:./Libraries/STM32F10x_StdPeriph_Driver/src/stm32f10x_flash.c ****   /* Check the parameters */
 687:./Libraries/STM32F10x_StdPeriph_Driver/src/stm32f10x_flash.c ****   assert_param(IS_FLASH_ADDRESS(Address));
 688:./Libraries/STM32F10x_StdPeriph_Driver/src/stm32f10x_flash.c **** 
 689:./Libraries/STM32F10x_StdPeriph_Driver/src/stm32f10x_flash.c **** #ifdef STM32F10X_XL
 690:./Libraries/STM32F10x_StdPeriph_Driver/src/stm32f10x_flash.c ****   if(Address < FLASH_BANK1_END_ADDRESS - 2)
 691:./Libraries/STM32F10x_StdPeriph_Driver/src/stm32f10x_flash.c ****   { 
 692:./Libraries/STM32F10x_StdPeriph_Driver/src/stm32f10x_flash.c ****     /* Wait for last operation to be completed */
 693:./Libraries/STM32F10x_StdPeriph_Driver/src/stm32f10x_flash.c ****     status = FLASH_WaitForLastBank1Operation(ProgramTimeout); 
 694:./Libraries/STM32F10x_StdPeriph_Driver/src/stm32f10x_flash.c ****     if(status == FLASH_COMPLETE)
 695:./Libraries/STM32F10x_StdPeriph_Driver/src/stm32f10x_flash.c ****     {
 696:./Libraries/STM32F10x_StdPeriph_Driver/src/stm32f10x_flash.c ****       /* if the previous operation is completed, proceed to program the new first 
 697:./Libraries/STM32F10x_StdPeriph_Driver/src/stm32f10x_flash.c ****         half word */
 698:./Libraries/STM32F10x_StdPeriph_Driver/src/stm32f10x_flash.c ****       FLASH->CR |= CR_PG_Set;
 699:./Libraries/STM32F10x_StdPeriph_Driver/src/stm32f10x_flash.c ****   
 700:./Libraries/STM32F10x_StdPeriph_Driver/src/stm32f10x_flash.c ****       *(__IO uint16_t*)Address = (uint16_t)Data;
 701:./Libraries/STM32F10x_StdPeriph_Driver/src/stm32f10x_flash.c ****       /* Wait for last operation to be completed */
 702:./Libraries/STM32F10x_StdPeriph_Driver/src/stm32f10x_flash.c ****       status = FLASH_WaitForLastOperation(ProgramTimeout);
 703:./Libraries/STM32F10x_StdPeriph_Driver/src/stm32f10x_flash.c ****  
 704:./Libraries/STM32F10x_StdPeriph_Driver/src/stm32f10x_flash.c ****       if(status == FLASH_COMPLETE)
 705:./Libraries/STM32F10x_StdPeriph_Driver/src/stm32f10x_flash.c ****       {
 706:./Libraries/STM32F10x_StdPeriph_Driver/src/stm32f10x_flash.c ****         /* if the previous operation is completed, proceed to program the new second 
 707:./Libraries/STM32F10x_StdPeriph_Driver/src/stm32f10x_flash.c ****         half word */
 708:./Libraries/STM32F10x_StdPeriph_Driver/src/stm32f10x_flash.c ****         tmp = Address + 2;
 709:./Libraries/STM32F10x_StdPeriph_Driver/src/stm32f10x_flash.c **** 
 710:./Libraries/STM32F10x_StdPeriph_Driver/src/stm32f10x_flash.c ****         *(__IO uint16_t*) tmp = Data >> 16;
 711:./Libraries/STM32F10x_StdPeriph_Driver/src/stm32f10x_flash.c ****     
 712:./Libraries/STM32F10x_StdPeriph_Driver/src/stm32f10x_flash.c ****         /* Wait for last operation to be completed */
 713:./Libraries/STM32F10x_StdPeriph_Driver/src/stm32f10x_flash.c ****         status = FLASH_WaitForLastOperation(ProgramTimeout);
 714:./Libraries/STM32F10x_StdPeriph_Driver/src/stm32f10x_flash.c ****         
 715:./Libraries/STM32F10x_StdPeriph_Driver/src/stm32f10x_flash.c ****         /* Disable the PG Bit */
 716:./Libraries/STM32F10x_StdPeriph_Driver/src/stm32f10x_flash.c ****         FLASH->CR &= CR_PG_Reset;
 717:./Libraries/STM32F10x_StdPeriph_Driver/src/stm32f10x_flash.c ****       }
 718:./Libraries/STM32F10x_StdPeriph_Driver/src/stm32f10x_flash.c ****       else
 719:./Libraries/STM32F10x_StdPeriph_Driver/src/stm32f10x_flash.c ****       {
 720:./Libraries/STM32F10x_StdPeriph_Driver/src/stm32f10x_flash.c ****         /* Disable the PG Bit */
 721:./Libraries/STM32F10x_StdPeriph_Driver/src/stm32f10x_flash.c ****         FLASH->CR &= CR_PG_Reset;
 722:./Libraries/STM32F10x_StdPeriph_Driver/src/stm32f10x_flash.c ****        }
 723:./Libraries/STM32F10x_StdPeriph_Driver/src/stm32f10x_flash.c ****     }
 724:./Libraries/STM32F10x_StdPeriph_Driver/src/stm32f10x_flash.c ****   }
 725:./Libraries/STM32F10x_StdPeriph_Driver/src/stm32f10x_flash.c ****   else if(Address == (FLASH_BANK1_END_ADDRESS - 1))
 726:./Libraries/STM32F10x_StdPeriph_Driver/src/stm32f10x_flash.c ****   {
 727:./Libraries/STM32F10x_StdPeriph_Driver/src/stm32f10x_flash.c ****     /* Wait for last operation to be completed */
 728:./Libraries/STM32F10x_StdPeriph_Driver/src/stm32f10x_flash.c ****     status = FLASH_WaitForLastBank1Operation(ProgramTimeout);
ARM GAS  /tmp/ccE6739X.s 			page 28


 729:./Libraries/STM32F10x_StdPeriph_Driver/src/stm32f10x_flash.c **** 
 730:./Libraries/STM32F10x_StdPeriph_Driver/src/stm32f10x_flash.c ****     if(status == FLASH_COMPLETE)
 731:./Libraries/STM32F10x_StdPeriph_Driver/src/stm32f10x_flash.c ****     {
 732:./Libraries/STM32F10x_StdPeriph_Driver/src/stm32f10x_flash.c ****       /* if the previous operation is completed, proceed to program the new first 
 733:./Libraries/STM32F10x_StdPeriph_Driver/src/stm32f10x_flash.c ****         half word */
 734:./Libraries/STM32F10x_StdPeriph_Driver/src/stm32f10x_flash.c ****       FLASH->CR |= CR_PG_Set;
 735:./Libraries/STM32F10x_StdPeriph_Driver/src/stm32f10x_flash.c ****   
 736:./Libraries/STM32F10x_StdPeriph_Driver/src/stm32f10x_flash.c ****       *(__IO uint16_t*)Address = (uint16_t)Data;
 737:./Libraries/STM32F10x_StdPeriph_Driver/src/stm32f10x_flash.c **** 
 738:./Libraries/STM32F10x_StdPeriph_Driver/src/stm32f10x_flash.c ****       /* Wait for last operation to be completed */
 739:./Libraries/STM32F10x_StdPeriph_Driver/src/stm32f10x_flash.c ****       status = FLASH_WaitForLastBank1Operation(ProgramTimeout);
 740:./Libraries/STM32F10x_StdPeriph_Driver/src/stm32f10x_flash.c ****       
 741:./Libraries/STM32F10x_StdPeriph_Driver/src/stm32f10x_flash.c **** 	  /* Disable the PG Bit */
 742:./Libraries/STM32F10x_StdPeriph_Driver/src/stm32f10x_flash.c ****       FLASH->CR &= CR_PG_Reset;
 743:./Libraries/STM32F10x_StdPeriph_Driver/src/stm32f10x_flash.c ****     }
 744:./Libraries/STM32F10x_StdPeriph_Driver/src/stm32f10x_flash.c ****     else
 745:./Libraries/STM32F10x_StdPeriph_Driver/src/stm32f10x_flash.c ****     {
 746:./Libraries/STM32F10x_StdPeriph_Driver/src/stm32f10x_flash.c ****       /* Disable the PG Bit */
 747:./Libraries/STM32F10x_StdPeriph_Driver/src/stm32f10x_flash.c ****       FLASH->CR &= CR_PG_Reset;
 748:./Libraries/STM32F10x_StdPeriph_Driver/src/stm32f10x_flash.c ****     }
 749:./Libraries/STM32F10x_StdPeriph_Driver/src/stm32f10x_flash.c **** 
 750:./Libraries/STM32F10x_StdPeriph_Driver/src/stm32f10x_flash.c ****     /* Wait for last operation to be completed */
 751:./Libraries/STM32F10x_StdPeriph_Driver/src/stm32f10x_flash.c ****     status = FLASH_WaitForLastBank2Operation(ProgramTimeout);
 752:./Libraries/STM32F10x_StdPeriph_Driver/src/stm32f10x_flash.c **** 
 753:./Libraries/STM32F10x_StdPeriph_Driver/src/stm32f10x_flash.c ****     if(status == FLASH_COMPLETE)
 754:./Libraries/STM32F10x_StdPeriph_Driver/src/stm32f10x_flash.c ****     {
 755:./Libraries/STM32F10x_StdPeriph_Driver/src/stm32f10x_flash.c ****       /* if the previous operation is completed, proceed to program the new second 
 756:./Libraries/STM32F10x_StdPeriph_Driver/src/stm32f10x_flash.c ****       half word */
 757:./Libraries/STM32F10x_StdPeriph_Driver/src/stm32f10x_flash.c ****       FLASH->CR2 |= CR_PG_Set;
 758:./Libraries/STM32F10x_StdPeriph_Driver/src/stm32f10x_flash.c ****       tmp = Address + 2;
 759:./Libraries/STM32F10x_StdPeriph_Driver/src/stm32f10x_flash.c **** 
 760:./Libraries/STM32F10x_StdPeriph_Driver/src/stm32f10x_flash.c ****       *(__IO uint16_t*) tmp = Data >> 16;
 761:./Libraries/STM32F10x_StdPeriph_Driver/src/stm32f10x_flash.c ****     
 762:./Libraries/STM32F10x_StdPeriph_Driver/src/stm32f10x_flash.c ****       /* Wait for last operation to be completed */
 763:./Libraries/STM32F10x_StdPeriph_Driver/src/stm32f10x_flash.c ****       status = FLASH_WaitForLastBank2Operation(ProgramTimeout);
 764:./Libraries/STM32F10x_StdPeriph_Driver/src/stm32f10x_flash.c ****         
 765:./Libraries/STM32F10x_StdPeriph_Driver/src/stm32f10x_flash.c ****       /* Disable the PG Bit */
 766:./Libraries/STM32F10x_StdPeriph_Driver/src/stm32f10x_flash.c ****       FLASH->CR2 &= CR_PG_Reset;
 767:./Libraries/STM32F10x_StdPeriph_Driver/src/stm32f10x_flash.c ****     }
 768:./Libraries/STM32F10x_StdPeriph_Driver/src/stm32f10x_flash.c ****     else
 769:./Libraries/STM32F10x_StdPeriph_Driver/src/stm32f10x_flash.c ****     {
 770:./Libraries/STM32F10x_StdPeriph_Driver/src/stm32f10x_flash.c ****       /* Disable the PG Bit */
 771:./Libraries/STM32F10x_StdPeriph_Driver/src/stm32f10x_flash.c ****       FLASH->CR2 &= CR_PG_Reset;
 772:./Libraries/STM32F10x_StdPeriph_Driver/src/stm32f10x_flash.c ****     }
 773:./Libraries/STM32F10x_StdPeriph_Driver/src/stm32f10x_flash.c ****   }
 774:./Libraries/STM32F10x_StdPeriph_Driver/src/stm32f10x_flash.c ****   else
 775:./Libraries/STM32F10x_StdPeriph_Driver/src/stm32f10x_flash.c ****   {
 776:./Libraries/STM32F10x_StdPeriph_Driver/src/stm32f10x_flash.c ****     /* Wait for last operation to be completed */
 777:./Libraries/STM32F10x_StdPeriph_Driver/src/stm32f10x_flash.c ****     status = FLASH_WaitForLastBank2Operation(ProgramTimeout);
 778:./Libraries/STM32F10x_StdPeriph_Driver/src/stm32f10x_flash.c **** 
 779:./Libraries/STM32F10x_StdPeriph_Driver/src/stm32f10x_flash.c ****     if(status == FLASH_COMPLETE)
 780:./Libraries/STM32F10x_StdPeriph_Driver/src/stm32f10x_flash.c ****     {
 781:./Libraries/STM32F10x_StdPeriph_Driver/src/stm32f10x_flash.c ****       /* if the previous operation is completed, proceed to program the new first 
 782:./Libraries/STM32F10x_StdPeriph_Driver/src/stm32f10x_flash.c ****         half word */
 783:./Libraries/STM32F10x_StdPeriph_Driver/src/stm32f10x_flash.c ****       FLASH->CR2 |= CR_PG_Set;
 784:./Libraries/STM32F10x_StdPeriph_Driver/src/stm32f10x_flash.c ****   
 785:./Libraries/STM32F10x_StdPeriph_Driver/src/stm32f10x_flash.c ****       *(__IO uint16_t*)Address = (uint16_t)Data;
ARM GAS  /tmp/ccE6739X.s 			page 29


 786:./Libraries/STM32F10x_StdPeriph_Driver/src/stm32f10x_flash.c ****       /* Wait for last operation to be completed */
 787:./Libraries/STM32F10x_StdPeriph_Driver/src/stm32f10x_flash.c ****       status = FLASH_WaitForLastBank2Operation(ProgramTimeout);
 788:./Libraries/STM32F10x_StdPeriph_Driver/src/stm32f10x_flash.c ****  
 789:./Libraries/STM32F10x_StdPeriph_Driver/src/stm32f10x_flash.c ****       if(status == FLASH_COMPLETE)
 790:./Libraries/STM32F10x_StdPeriph_Driver/src/stm32f10x_flash.c ****       {
 791:./Libraries/STM32F10x_StdPeriph_Driver/src/stm32f10x_flash.c ****         /* if the previous operation is completed, proceed to program the new second 
 792:./Libraries/STM32F10x_StdPeriph_Driver/src/stm32f10x_flash.c ****         half word */
 793:./Libraries/STM32F10x_StdPeriph_Driver/src/stm32f10x_flash.c ****         tmp = Address + 2;
 794:./Libraries/STM32F10x_StdPeriph_Driver/src/stm32f10x_flash.c **** 
 795:./Libraries/STM32F10x_StdPeriph_Driver/src/stm32f10x_flash.c ****         *(__IO uint16_t*) tmp = Data >> 16;
 796:./Libraries/STM32F10x_StdPeriph_Driver/src/stm32f10x_flash.c ****     
 797:./Libraries/STM32F10x_StdPeriph_Driver/src/stm32f10x_flash.c ****         /* Wait for last operation to be completed */
 798:./Libraries/STM32F10x_StdPeriph_Driver/src/stm32f10x_flash.c ****         status = FLASH_WaitForLastBank2Operation(ProgramTimeout);
 799:./Libraries/STM32F10x_StdPeriph_Driver/src/stm32f10x_flash.c ****         
 800:./Libraries/STM32F10x_StdPeriph_Driver/src/stm32f10x_flash.c ****         /* Disable the PG Bit */
 801:./Libraries/STM32F10x_StdPeriph_Driver/src/stm32f10x_flash.c ****         FLASH->CR2 &= CR_PG_Reset;
 802:./Libraries/STM32F10x_StdPeriph_Driver/src/stm32f10x_flash.c ****       }
 803:./Libraries/STM32F10x_StdPeriph_Driver/src/stm32f10x_flash.c ****       else
 804:./Libraries/STM32F10x_StdPeriph_Driver/src/stm32f10x_flash.c ****       {
 805:./Libraries/STM32F10x_StdPeriph_Driver/src/stm32f10x_flash.c ****         /* Disable the PG Bit */
 806:./Libraries/STM32F10x_StdPeriph_Driver/src/stm32f10x_flash.c ****         FLASH->CR2 &= CR_PG_Reset;
 807:./Libraries/STM32F10x_StdPeriph_Driver/src/stm32f10x_flash.c ****       }
 808:./Libraries/STM32F10x_StdPeriph_Driver/src/stm32f10x_flash.c ****     }
 809:./Libraries/STM32F10x_StdPeriph_Driver/src/stm32f10x_flash.c ****   }
 810:./Libraries/STM32F10x_StdPeriph_Driver/src/stm32f10x_flash.c **** #else
 811:./Libraries/STM32F10x_StdPeriph_Driver/src/stm32f10x_flash.c ****   /* Wait for last operation to be completed */
 812:./Libraries/STM32F10x_StdPeriph_Driver/src/stm32f10x_flash.c ****   status = FLASH_WaitForLastOperation(ProgramTimeout);
 835              		.loc 1 812 12
 836 0012 4FF40050 		mov	r0, #8192
 837 0016 FFF7FEFF 		bl	FLASH_WaitForLastOperation
 838 001a 0346     		mov	r3, r0
 839 001c FB73     		strb	r3, [r7, #15]
 813:./Libraries/STM32F10x_StdPeriph_Driver/src/stm32f10x_flash.c ****   
 814:./Libraries/STM32F10x_StdPeriph_Driver/src/stm32f10x_flash.c ****   if(status == FLASH_COMPLETE)
 840              		.loc 1 814 5
 841 001e FB7B     		ldrb	r3, [r7, #15]	@ zero_extendqisi2
 842 0020 042B     		cmp	r3, #4
 843 0022 2FD1     		bne	.L45
 815:./Libraries/STM32F10x_StdPeriph_Driver/src/stm32f10x_flash.c ****   {
 816:./Libraries/STM32F10x_StdPeriph_Driver/src/stm32f10x_flash.c ****     /* if the previous operation is completed, proceed to program the new first 
 817:./Libraries/STM32F10x_StdPeriph_Driver/src/stm32f10x_flash.c ****     half word */
 818:./Libraries/STM32F10x_StdPeriph_Driver/src/stm32f10x_flash.c ****     FLASH->CR |= CR_PG_Set;
 844              		.loc 1 818 15
 845 0024 1A4B     		ldr	r3, .L48
 846 0026 1B69     		ldr	r3, [r3, #16]
 847 0028 194A     		ldr	r2, .L48
 848 002a 43F00103 		orr	r3, r3, #1
 849 002e 1361     		str	r3, [r2, #16]
 819:./Libraries/STM32F10x_StdPeriph_Driver/src/stm32f10x_flash.c ****   
 820:./Libraries/STM32F10x_StdPeriph_Driver/src/stm32f10x_flash.c ****     *(__IO uint16_t*)Address = (uint16_t)Data;
 850              		.loc 1 820 6
 851 0030 7B68     		ldr	r3, [r7, #4]
 852              		.loc 1 820 32
 853 0032 3A68     		ldr	r2, [r7]
 854 0034 92B2     		uxth	r2, r2
 855              		.loc 1 820 30
 856 0036 1A80     		strh	r2, [r3]	@ movhi
ARM GAS  /tmp/ccE6739X.s 			page 30


 821:./Libraries/STM32F10x_StdPeriph_Driver/src/stm32f10x_flash.c ****     /* Wait for last operation to be completed */
 822:./Libraries/STM32F10x_StdPeriph_Driver/src/stm32f10x_flash.c ****     status = FLASH_WaitForLastOperation(ProgramTimeout);
 857              		.loc 1 822 14
 858 0038 4FF40050 		mov	r0, #8192
 859 003c FFF7FEFF 		bl	FLASH_WaitForLastOperation
 860 0040 0346     		mov	r3, r0
 861 0042 FB73     		strb	r3, [r7, #15]
 823:./Libraries/STM32F10x_StdPeriph_Driver/src/stm32f10x_flash.c ****  
 824:./Libraries/STM32F10x_StdPeriph_Driver/src/stm32f10x_flash.c ****     if(status == FLASH_COMPLETE)
 862              		.loc 1 824 7
 863 0044 FB7B     		ldrb	r3, [r7, #15]	@ zero_extendqisi2
 864 0046 042B     		cmp	r3, #4
 865 0048 15D1     		bne	.L46
 825:./Libraries/STM32F10x_StdPeriph_Driver/src/stm32f10x_flash.c ****     {
 826:./Libraries/STM32F10x_StdPeriph_Driver/src/stm32f10x_flash.c ****       /* if the previous operation is completed, proceed to program the new second 
 827:./Libraries/STM32F10x_StdPeriph_Driver/src/stm32f10x_flash.c ****       half word */
 828:./Libraries/STM32F10x_StdPeriph_Driver/src/stm32f10x_flash.c ****       tmp = Address + 2;
 866              		.loc 1 828 21
 867 004a 7B68     		ldr	r3, [r7, #4]
 868 004c 0233     		adds	r3, r3, #2
 869              		.loc 1 828 11
 870 004e BB60     		str	r3, [r7, #8]
 829:./Libraries/STM32F10x_StdPeriph_Driver/src/stm32f10x_flash.c **** 
 830:./Libraries/STM32F10x_StdPeriph_Driver/src/stm32f10x_flash.c ****       *(__IO uint16_t*) tmp = Data >> 16;
 871              		.loc 1 830 36
 872 0050 3B68     		ldr	r3, [r7]
 873 0052 1A0C     		lsrs	r2, r3, #16
 874              		.loc 1 830 8
 875 0054 BB68     		ldr	r3, [r7, #8]
 876              		.loc 1 830 29
 877 0056 92B2     		uxth	r2, r2
 878 0058 1A80     		strh	r2, [r3]	@ movhi
 831:./Libraries/STM32F10x_StdPeriph_Driver/src/stm32f10x_flash.c ****     
 832:./Libraries/STM32F10x_StdPeriph_Driver/src/stm32f10x_flash.c ****       /* Wait for last operation to be completed */
 833:./Libraries/STM32F10x_StdPeriph_Driver/src/stm32f10x_flash.c ****       status = FLASH_WaitForLastOperation(ProgramTimeout);
 879              		.loc 1 833 16
 880 005a 4FF40050 		mov	r0, #8192
 881 005e FFF7FEFF 		bl	FLASH_WaitForLastOperation
 882 0062 0346     		mov	r3, r0
 883 0064 FB73     		strb	r3, [r7, #15]
 834:./Libraries/STM32F10x_StdPeriph_Driver/src/stm32f10x_flash.c ****         
 835:./Libraries/STM32F10x_StdPeriph_Driver/src/stm32f10x_flash.c ****       /* Disable the PG Bit */
 836:./Libraries/STM32F10x_StdPeriph_Driver/src/stm32f10x_flash.c ****       FLASH->CR &= CR_PG_Reset;
 884              		.loc 1 836 17
 885 0066 0A4B     		ldr	r3, .L48
 886 0068 1A69     		ldr	r2, [r3, #16]
 887 006a 0949     		ldr	r1, .L48
 888 006c 41F6FE73 		movw	r3, #8190
 889 0070 1340     		ands	r3, r3, r2
 890 0072 0B61     		str	r3, [r1, #16]
 891 0074 06E0     		b	.L45
 892              	.L46:
 837:./Libraries/STM32F10x_StdPeriph_Driver/src/stm32f10x_flash.c ****     }
 838:./Libraries/STM32F10x_StdPeriph_Driver/src/stm32f10x_flash.c ****     else
 839:./Libraries/STM32F10x_StdPeriph_Driver/src/stm32f10x_flash.c ****     {
 840:./Libraries/STM32F10x_StdPeriph_Driver/src/stm32f10x_flash.c ****       /* Disable the PG Bit */
 841:./Libraries/STM32F10x_StdPeriph_Driver/src/stm32f10x_flash.c ****       FLASH->CR &= CR_PG_Reset;
ARM GAS  /tmp/ccE6739X.s 			page 31


 893              		.loc 1 841 17
 894 0076 064B     		ldr	r3, .L48
 895 0078 1A69     		ldr	r2, [r3, #16]
 896 007a 0549     		ldr	r1, .L48
 897 007c 41F6FE73 		movw	r3, #8190
 898 0080 1340     		ands	r3, r3, r2
 899 0082 0B61     		str	r3, [r1, #16]
 900              	.L45:
 842:./Libraries/STM32F10x_StdPeriph_Driver/src/stm32f10x_flash.c ****     }
 843:./Libraries/STM32F10x_StdPeriph_Driver/src/stm32f10x_flash.c ****   }         
 844:./Libraries/STM32F10x_StdPeriph_Driver/src/stm32f10x_flash.c **** #endif /* STM32F10X_XL */
 845:./Libraries/STM32F10x_StdPeriph_Driver/src/stm32f10x_flash.c ****    
 846:./Libraries/STM32F10x_StdPeriph_Driver/src/stm32f10x_flash.c ****   /* Return the Program Status */
 847:./Libraries/STM32F10x_StdPeriph_Driver/src/stm32f10x_flash.c ****   return status;
 901              		.loc 1 847 10
 902 0084 FB7B     		ldrb	r3, [r7, #15]	@ zero_extendqisi2
 848:./Libraries/STM32F10x_StdPeriph_Driver/src/stm32f10x_flash.c **** }
 903              		.loc 1 848 1
 904 0086 1846     		mov	r0, r3
 905 0088 1037     		adds	r7, r7, #16
 906              	.LCFI57:
 907              		.cfi_def_cfa_offset 8
 908 008a BD46     		mov	sp, r7
 909              	.LCFI58:
 910              		.cfi_def_cfa_register 13
 911              		@ sp needed
 912 008c 80BD     		pop	{r7, pc}
 913              	.L49:
 914 008e 00BF     		.align	2
 915              	.L48:
 916 0090 00200240 		.word	1073881088
 917              		.cfi_endproc
 918              	.LFE40:
 920              		.section	.text.FLASH_ProgramHalfWord,"ax",%progbits
 921              		.align	1
 922              		.global	FLASH_ProgramHalfWord
 923              		.syntax unified
 924              		.thumb
 925              		.thumb_func
 926              		.fpu softvfp
 928              	FLASH_ProgramHalfWord:
 929              	.LFB41:
 849:./Libraries/STM32F10x_StdPeriph_Driver/src/stm32f10x_flash.c **** 
 850:./Libraries/STM32F10x_StdPeriph_Driver/src/stm32f10x_flash.c **** /**
 851:./Libraries/STM32F10x_StdPeriph_Driver/src/stm32f10x_flash.c ****   * @brief  Programs a half word at a specified address.
 852:./Libraries/STM32F10x_StdPeriph_Driver/src/stm32f10x_flash.c ****   * @note   This function can be used for all STM32F10x devices.
 853:./Libraries/STM32F10x_StdPeriph_Driver/src/stm32f10x_flash.c ****   * @param  Address: specifies the address to be programmed.
 854:./Libraries/STM32F10x_StdPeriph_Driver/src/stm32f10x_flash.c ****   * @param  Data: specifies the data to be programmed.
 855:./Libraries/STM32F10x_StdPeriph_Driver/src/stm32f10x_flash.c ****   * @retval FLASH Status: The returned value can be: FLASH_ERROR_PG,
 856:./Libraries/STM32F10x_StdPeriph_Driver/src/stm32f10x_flash.c ****   *         FLASH_ERROR_WRP, FLASH_COMPLETE or FLASH_TIMEOUT. 
 857:./Libraries/STM32F10x_StdPeriph_Driver/src/stm32f10x_flash.c ****   */
 858:./Libraries/STM32F10x_StdPeriph_Driver/src/stm32f10x_flash.c **** FLASH_Status FLASH_ProgramHalfWord(uint32_t Address, uint16_t Data)
 859:./Libraries/STM32F10x_StdPeriph_Driver/src/stm32f10x_flash.c **** {
 930              		.loc 1 859 1
 931              		.cfi_startproc
 932              		@ args = 0, pretend = 0, frame = 16
 933              		@ frame_needed = 1, uses_anonymous_args = 0
ARM GAS  /tmp/ccE6739X.s 			page 32


 934 0000 80B5     		push	{r7, lr}
 935              	.LCFI59:
 936              		.cfi_def_cfa_offset 8
 937              		.cfi_offset 7, -8
 938              		.cfi_offset 14, -4
 939 0002 84B0     		sub	sp, sp, #16
 940              	.LCFI60:
 941              		.cfi_def_cfa_offset 24
 942 0004 00AF     		add	r7, sp, #0
 943              	.LCFI61:
 944              		.cfi_def_cfa_register 7
 945 0006 7860     		str	r0, [r7, #4]
 946 0008 0B46     		mov	r3, r1
 947 000a 7B80     		strh	r3, [r7, #2]	@ movhi
 860:./Libraries/STM32F10x_StdPeriph_Driver/src/stm32f10x_flash.c ****   FLASH_Status status = FLASH_COMPLETE;
 948              		.loc 1 860 16
 949 000c 0423     		movs	r3, #4
 950 000e FB73     		strb	r3, [r7, #15]
 861:./Libraries/STM32F10x_StdPeriph_Driver/src/stm32f10x_flash.c ****   /* Check the parameters */
 862:./Libraries/STM32F10x_StdPeriph_Driver/src/stm32f10x_flash.c ****   assert_param(IS_FLASH_ADDRESS(Address));
 863:./Libraries/STM32F10x_StdPeriph_Driver/src/stm32f10x_flash.c **** 
 864:./Libraries/STM32F10x_StdPeriph_Driver/src/stm32f10x_flash.c **** #ifdef STM32F10X_XL
 865:./Libraries/STM32F10x_StdPeriph_Driver/src/stm32f10x_flash.c ****   /* Wait for last operation to be completed */
 866:./Libraries/STM32F10x_StdPeriph_Driver/src/stm32f10x_flash.c ****   status = FLASH_WaitForLastOperation(ProgramTimeout);
 867:./Libraries/STM32F10x_StdPeriph_Driver/src/stm32f10x_flash.c ****   
 868:./Libraries/STM32F10x_StdPeriph_Driver/src/stm32f10x_flash.c ****   if(Address < FLASH_BANK1_END_ADDRESS)
 869:./Libraries/STM32F10x_StdPeriph_Driver/src/stm32f10x_flash.c ****   {
 870:./Libraries/STM32F10x_StdPeriph_Driver/src/stm32f10x_flash.c ****     if(status == FLASH_COMPLETE)
 871:./Libraries/STM32F10x_StdPeriph_Driver/src/stm32f10x_flash.c ****     {
 872:./Libraries/STM32F10x_StdPeriph_Driver/src/stm32f10x_flash.c ****       /* if the previous operation is completed, proceed to program the new data */
 873:./Libraries/STM32F10x_StdPeriph_Driver/src/stm32f10x_flash.c ****       FLASH->CR |= CR_PG_Set;
 874:./Libraries/STM32F10x_StdPeriph_Driver/src/stm32f10x_flash.c ****   
 875:./Libraries/STM32F10x_StdPeriph_Driver/src/stm32f10x_flash.c ****       *(__IO uint16_t*)Address = Data;
 876:./Libraries/STM32F10x_StdPeriph_Driver/src/stm32f10x_flash.c ****       /* Wait for last operation to be completed */
 877:./Libraries/STM32F10x_StdPeriph_Driver/src/stm32f10x_flash.c ****       status = FLASH_WaitForLastBank1Operation(ProgramTimeout);
 878:./Libraries/STM32F10x_StdPeriph_Driver/src/stm32f10x_flash.c **** 
 879:./Libraries/STM32F10x_StdPeriph_Driver/src/stm32f10x_flash.c ****       /* Disable the PG Bit */
 880:./Libraries/STM32F10x_StdPeriph_Driver/src/stm32f10x_flash.c ****       FLASH->CR &= CR_PG_Reset;
 881:./Libraries/STM32F10x_StdPeriph_Driver/src/stm32f10x_flash.c ****     }
 882:./Libraries/STM32F10x_StdPeriph_Driver/src/stm32f10x_flash.c ****   }
 883:./Libraries/STM32F10x_StdPeriph_Driver/src/stm32f10x_flash.c ****   else
 884:./Libraries/STM32F10x_StdPeriph_Driver/src/stm32f10x_flash.c ****   {
 885:./Libraries/STM32F10x_StdPeriph_Driver/src/stm32f10x_flash.c ****     if(status == FLASH_COMPLETE)
 886:./Libraries/STM32F10x_StdPeriph_Driver/src/stm32f10x_flash.c ****     {
 887:./Libraries/STM32F10x_StdPeriph_Driver/src/stm32f10x_flash.c ****       /* if the previous operation is completed, proceed to program the new data */
 888:./Libraries/STM32F10x_StdPeriph_Driver/src/stm32f10x_flash.c ****       FLASH->CR2 |= CR_PG_Set;
 889:./Libraries/STM32F10x_StdPeriph_Driver/src/stm32f10x_flash.c ****   
 890:./Libraries/STM32F10x_StdPeriph_Driver/src/stm32f10x_flash.c ****       *(__IO uint16_t*)Address = Data;
 891:./Libraries/STM32F10x_StdPeriph_Driver/src/stm32f10x_flash.c ****       /* Wait for last operation to be completed */
 892:./Libraries/STM32F10x_StdPeriph_Driver/src/stm32f10x_flash.c ****       status = FLASH_WaitForLastBank2Operation(ProgramTimeout);
 893:./Libraries/STM32F10x_StdPeriph_Driver/src/stm32f10x_flash.c **** 
 894:./Libraries/STM32F10x_StdPeriph_Driver/src/stm32f10x_flash.c ****       /* Disable the PG Bit */
 895:./Libraries/STM32F10x_StdPeriph_Driver/src/stm32f10x_flash.c ****       FLASH->CR2 &= CR_PG_Reset;
 896:./Libraries/STM32F10x_StdPeriph_Driver/src/stm32f10x_flash.c ****     }
 897:./Libraries/STM32F10x_StdPeriph_Driver/src/stm32f10x_flash.c ****   }
 898:./Libraries/STM32F10x_StdPeriph_Driver/src/stm32f10x_flash.c **** #else
 899:./Libraries/STM32F10x_StdPeriph_Driver/src/stm32f10x_flash.c ****   /* Wait for last operation to be completed */
ARM GAS  /tmp/ccE6739X.s 			page 33


 900:./Libraries/STM32F10x_StdPeriph_Driver/src/stm32f10x_flash.c ****   status = FLASH_WaitForLastOperation(ProgramTimeout);
 951              		.loc 1 900 12
 952 0010 4FF40050 		mov	r0, #8192
 953 0014 FFF7FEFF 		bl	FLASH_WaitForLastOperation
 954 0018 0346     		mov	r3, r0
 955 001a FB73     		strb	r3, [r7, #15]
 901:./Libraries/STM32F10x_StdPeriph_Driver/src/stm32f10x_flash.c ****   
 902:./Libraries/STM32F10x_StdPeriph_Driver/src/stm32f10x_flash.c ****   if(status == FLASH_COMPLETE)
 956              		.loc 1 902 5
 957 001c FB7B     		ldrb	r3, [r7, #15]	@ zero_extendqisi2
 958 001e 042B     		cmp	r3, #4
 959 0020 15D1     		bne	.L51
 903:./Libraries/STM32F10x_StdPeriph_Driver/src/stm32f10x_flash.c ****   {
 904:./Libraries/STM32F10x_StdPeriph_Driver/src/stm32f10x_flash.c ****     /* if the previous operation is completed, proceed to program the new data */
 905:./Libraries/STM32F10x_StdPeriph_Driver/src/stm32f10x_flash.c ****     FLASH->CR |= CR_PG_Set;
 960              		.loc 1 905 15
 961 0022 0D4B     		ldr	r3, .L53
 962 0024 1B69     		ldr	r3, [r3, #16]
 963 0026 0C4A     		ldr	r2, .L53
 964 0028 43F00103 		orr	r3, r3, #1
 965 002c 1361     		str	r3, [r2, #16]
 906:./Libraries/STM32F10x_StdPeriph_Driver/src/stm32f10x_flash.c ****   
 907:./Libraries/STM32F10x_StdPeriph_Driver/src/stm32f10x_flash.c ****     *(__IO uint16_t*)Address = Data;
 966              		.loc 1 907 6
 967 002e 7B68     		ldr	r3, [r7, #4]
 968              		.loc 1 907 30
 969 0030 7A88     		ldrh	r2, [r7, #2]	@ movhi
 970 0032 1A80     		strh	r2, [r3]	@ movhi
 908:./Libraries/STM32F10x_StdPeriph_Driver/src/stm32f10x_flash.c ****     /* Wait for last operation to be completed */
 909:./Libraries/STM32F10x_StdPeriph_Driver/src/stm32f10x_flash.c ****     status = FLASH_WaitForLastOperation(ProgramTimeout);
 971              		.loc 1 909 14
 972 0034 4FF40050 		mov	r0, #8192
 973 0038 FFF7FEFF 		bl	FLASH_WaitForLastOperation
 974 003c 0346     		mov	r3, r0
 975 003e FB73     		strb	r3, [r7, #15]
 910:./Libraries/STM32F10x_StdPeriph_Driver/src/stm32f10x_flash.c ****     
 911:./Libraries/STM32F10x_StdPeriph_Driver/src/stm32f10x_flash.c ****     /* Disable the PG Bit */
 912:./Libraries/STM32F10x_StdPeriph_Driver/src/stm32f10x_flash.c ****     FLASH->CR &= CR_PG_Reset;
 976              		.loc 1 912 15
 977 0040 054B     		ldr	r3, .L53
 978 0042 1A69     		ldr	r2, [r3, #16]
 979 0044 0449     		ldr	r1, .L53
 980 0046 41F6FE73 		movw	r3, #8190
 981 004a 1340     		ands	r3, r3, r2
 982 004c 0B61     		str	r3, [r1, #16]
 983              	.L51:
 913:./Libraries/STM32F10x_StdPeriph_Driver/src/stm32f10x_flash.c ****   } 
 914:./Libraries/STM32F10x_StdPeriph_Driver/src/stm32f10x_flash.c **** #endif  /* STM32F10X_XL */
 915:./Libraries/STM32F10x_StdPeriph_Driver/src/stm32f10x_flash.c ****   
 916:./Libraries/STM32F10x_StdPeriph_Driver/src/stm32f10x_flash.c ****   /* Return the Program Status */
 917:./Libraries/STM32F10x_StdPeriph_Driver/src/stm32f10x_flash.c ****   return status;
 984              		.loc 1 917 10
 985 004e FB7B     		ldrb	r3, [r7, #15]	@ zero_extendqisi2
 918:./Libraries/STM32F10x_StdPeriph_Driver/src/stm32f10x_flash.c **** }
 986              		.loc 1 918 1
 987 0050 1846     		mov	r0, r3
 988 0052 1037     		adds	r7, r7, #16
ARM GAS  /tmp/ccE6739X.s 			page 34


 989              	.LCFI62:
 990              		.cfi_def_cfa_offset 8
 991 0054 BD46     		mov	sp, r7
 992              	.LCFI63:
 993              		.cfi_def_cfa_register 13
 994              		@ sp needed
 995 0056 80BD     		pop	{r7, pc}
 996              	.L54:
 997              		.align	2
 998              	.L53:
 999 0058 00200240 		.word	1073881088
 1000              		.cfi_endproc
 1001              	.LFE41:
 1003              		.section	.text.FLASH_ProgramOptionByteData,"ax",%progbits
 1004              		.align	1
 1005              		.global	FLASH_ProgramOptionByteData
 1006              		.syntax unified
 1007              		.thumb
 1008              		.thumb_func
 1009              		.fpu softvfp
 1011              	FLASH_ProgramOptionByteData:
 1012              	.LFB42:
 919:./Libraries/STM32F10x_StdPeriph_Driver/src/stm32f10x_flash.c **** 
 920:./Libraries/STM32F10x_StdPeriph_Driver/src/stm32f10x_flash.c **** /**
 921:./Libraries/STM32F10x_StdPeriph_Driver/src/stm32f10x_flash.c ****   * @brief  Programs a half word at a specified Option Byte Data address.
 922:./Libraries/STM32F10x_StdPeriph_Driver/src/stm32f10x_flash.c ****   * @note   This function can be used for all STM32F10x devices.
 923:./Libraries/STM32F10x_StdPeriph_Driver/src/stm32f10x_flash.c ****   * @param  Address: specifies the address to be programmed.
 924:./Libraries/STM32F10x_StdPeriph_Driver/src/stm32f10x_flash.c ****   *   This parameter can be 0x1FFFF804 or 0x1FFFF806. 
 925:./Libraries/STM32F10x_StdPeriph_Driver/src/stm32f10x_flash.c ****   * @param  Data: specifies the data to be programmed.
 926:./Libraries/STM32F10x_StdPeriph_Driver/src/stm32f10x_flash.c ****   * @retval FLASH Status: The returned value can be: FLASH_ERROR_PG,
 927:./Libraries/STM32F10x_StdPeriph_Driver/src/stm32f10x_flash.c ****   *         FLASH_ERROR_WRP, FLASH_COMPLETE or FLASH_TIMEOUT. 
 928:./Libraries/STM32F10x_StdPeriph_Driver/src/stm32f10x_flash.c ****   */
 929:./Libraries/STM32F10x_StdPeriph_Driver/src/stm32f10x_flash.c **** FLASH_Status FLASH_ProgramOptionByteData(uint32_t Address, uint8_t Data)
 930:./Libraries/STM32F10x_StdPeriph_Driver/src/stm32f10x_flash.c **** {
 1013              		.loc 1 930 1
 1014              		.cfi_startproc
 1015              		@ args = 0, pretend = 0, frame = 16
 1016              		@ frame_needed = 1, uses_anonymous_args = 0
 1017 0000 80B5     		push	{r7, lr}
 1018              	.LCFI64:
 1019              		.cfi_def_cfa_offset 8
 1020              		.cfi_offset 7, -8
 1021              		.cfi_offset 14, -4
 1022 0002 84B0     		sub	sp, sp, #16
 1023              	.LCFI65:
 1024              		.cfi_def_cfa_offset 24
 1025 0004 00AF     		add	r7, sp, #0
 1026              	.LCFI66:
 1027              		.cfi_def_cfa_register 7
 1028 0006 7860     		str	r0, [r7, #4]
 1029 0008 0B46     		mov	r3, r1
 1030 000a FB70     		strb	r3, [r7, #3]
 931:./Libraries/STM32F10x_StdPeriph_Driver/src/stm32f10x_flash.c ****   FLASH_Status status = FLASH_COMPLETE;
 1031              		.loc 1 931 16
 1032 000c 0423     		movs	r3, #4
 1033 000e FB73     		strb	r3, [r7, #15]
 932:./Libraries/STM32F10x_StdPeriph_Driver/src/stm32f10x_flash.c ****   /* Check the parameters */
ARM GAS  /tmp/ccE6739X.s 			page 35


 933:./Libraries/STM32F10x_StdPeriph_Driver/src/stm32f10x_flash.c ****   assert_param(IS_OB_DATA_ADDRESS(Address));
 934:./Libraries/STM32F10x_StdPeriph_Driver/src/stm32f10x_flash.c ****   status = FLASH_WaitForLastOperation(ProgramTimeout);
 1034              		.loc 1 934 12
 1035 0010 4FF40050 		mov	r0, #8192
 1036 0014 FFF7FEFF 		bl	FLASH_WaitForLastOperation
 1037 0018 0346     		mov	r3, r0
 1038 001a FB73     		strb	r3, [r7, #15]
 935:./Libraries/STM32F10x_StdPeriph_Driver/src/stm32f10x_flash.c **** 
 936:./Libraries/STM32F10x_StdPeriph_Driver/src/stm32f10x_flash.c ****   if(status == FLASH_COMPLETE)
 1039              		.loc 1 936 5
 1040 001c FB7B     		ldrb	r3, [r7, #15]	@ zero_extendqisi2
 1041 001e 042B     		cmp	r3, #4
 1042 0020 1FD1     		bne	.L56
 937:./Libraries/STM32F10x_StdPeriph_Driver/src/stm32f10x_flash.c ****   {
 938:./Libraries/STM32F10x_StdPeriph_Driver/src/stm32f10x_flash.c ****     /* Authorize the small information block programming */
 939:./Libraries/STM32F10x_StdPeriph_Driver/src/stm32f10x_flash.c ****     FLASH->OPTKEYR = FLASH_KEY1;
 1043              		.loc 1 939 10
 1044 0022 124B     		ldr	r3, .L58
 1045              		.loc 1 939 20
 1046 0024 124A     		ldr	r2, .L58+4
 1047 0026 9A60     		str	r2, [r3, #8]
 940:./Libraries/STM32F10x_StdPeriph_Driver/src/stm32f10x_flash.c ****     FLASH->OPTKEYR = FLASH_KEY2;
 1048              		.loc 1 940 10
 1049 0028 104B     		ldr	r3, .L58
 1050              		.loc 1 940 20
 1051 002a 124A     		ldr	r2, .L58+8
 1052 002c 9A60     		str	r2, [r3, #8]
 941:./Libraries/STM32F10x_StdPeriph_Driver/src/stm32f10x_flash.c ****     /* Enables the Option Bytes Programming operation */
 942:./Libraries/STM32F10x_StdPeriph_Driver/src/stm32f10x_flash.c ****     FLASH->CR |= CR_OPTPG_Set; 
 1053              		.loc 1 942 15
 1054 002e 0F4B     		ldr	r3, .L58
 1055 0030 1B69     		ldr	r3, [r3, #16]
 1056 0032 0E4A     		ldr	r2, .L58
 1057 0034 43F01003 		orr	r3, r3, #16
 1058 0038 1361     		str	r3, [r2, #16]
 943:./Libraries/STM32F10x_StdPeriph_Driver/src/stm32f10x_flash.c ****     *(__IO uint16_t*)Address = Data;
 1059              		.loc 1 943 6
 1060 003a 7B68     		ldr	r3, [r7, #4]
 1061              		.loc 1 943 30
 1062 003c FA78     		ldrb	r2, [r7, #3]	@ zero_extendqisi2
 1063 003e 92B2     		uxth	r2, r2
 1064 0040 1A80     		strh	r2, [r3]	@ movhi
 944:./Libraries/STM32F10x_StdPeriph_Driver/src/stm32f10x_flash.c ****     
 945:./Libraries/STM32F10x_StdPeriph_Driver/src/stm32f10x_flash.c ****     /* Wait for last operation to be completed */
 946:./Libraries/STM32F10x_StdPeriph_Driver/src/stm32f10x_flash.c ****     status = FLASH_WaitForLastOperation(ProgramTimeout);
 1065              		.loc 1 946 14
 1066 0042 4FF40050 		mov	r0, #8192
 1067 0046 FFF7FEFF 		bl	FLASH_WaitForLastOperation
 1068 004a 0346     		mov	r3, r0
 1069 004c FB73     		strb	r3, [r7, #15]
 947:./Libraries/STM32F10x_StdPeriph_Driver/src/stm32f10x_flash.c ****     if(status != FLASH_TIMEOUT)
 1070              		.loc 1 947 7
 1071 004e FB7B     		ldrb	r3, [r7, #15]	@ zero_extendqisi2
 1072 0050 052B     		cmp	r3, #5
 1073 0052 06D0     		beq	.L56
 948:./Libraries/STM32F10x_StdPeriph_Driver/src/stm32f10x_flash.c ****     {
 949:./Libraries/STM32F10x_StdPeriph_Driver/src/stm32f10x_flash.c ****       /* if the program operation is completed, disable the OPTPG Bit */
ARM GAS  /tmp/ccE6739X.s 			page 36


 950:./Libraries/STM32F10x_StdPeriph_Driver/src/stm32f10x_flash.c ****       FLASH->CR &= CR_OPTPG_Reset;
 1074              		.loc 1 950 17
 1075 0054 054B     		ldr	r3, .L58
 1076 0056 1A69     		ldr	r2, [r3, #16]
 1077 0058 0449     		ldr	r1, .L58
 1078 005a 41F6EF73 		movw	r3, #8175
 1079 005e 1340     		ands	r3, r3, r2
 1080 0060 0B61     		str	r3, [r1, #16]
 1081              	.L56:
 951:./Libraries/STM32F10x_StdPeriph_Driver/src/stm32f10x_flash.c ****     }
 952:./Libraries/STM32F10x_StdPeriph_Driver/src/stm32f10x_flash.c ****   }
 953:./Libraries/STM32F10x_StdPeriph_Driver/src/stm32f10x_flash.c ****   /* Return the Option Byte Data Program Status */
 954:./Libraries/STM32F10x_StdPeriph_Driver/src/stm32f10x_flash.c ****   return status;
 1082              		.loc 1 954 10
 1083 0062 FB7B     		ldrb	r3, [r7, #15]	@ zero_extendqisi2
 955:./Libraries/STM32F10x_StdPeriph_Driver/src/stm32f10x_flash.c **** }
 1084              		.loc 1 955 1
 1085 0064 1846     		mov	r0, r3
 1086 0066 1037     		adds	r7, r7, #16
 1087              	.LCFI67:
 1088              		.cfi_def_cfa_offset 8
 1089 0068 BD46     		mov	sp, r7
 1090              	.LCFI68:
 1091              		.cfi_def_cfa_register 13
 1092              		@ sp needed
 1093 006a 80BD     		pop	{r7, pc}
 1094              	.L59:
 1095              		.align	2
 1096              	.L58:
 1097 006c 00200240 		.word	1073881088
 1098 0070 23016745 		.word	1164378403
 1099 0074 AB89EFCD 		.word	-839939669
 1100              		.cfi_endproc
 1101              	.LFE42:
 1103              		.section	.text.FLASH_EnableWriteProtection,"ax",%progbits
 1104              		.align	1
 1105              		.global	FLASH_EnableWriteProtection
 1106              		.syntax unified
 1107              		.thumb
 1108              		.thumb_func
 1109              		.fpu softvfp
 1111              	FLASH_EnableWriteProtection:
 1112              	.LFB43:
 956:./Libraries/STM32F10x_StdPeriph_Driver/src/stm32f10x_flash.c **** 
 957:./Libraries/STM32F10x_StdPeriph_Driver/src/stm32f10x_flash.c **** /**
 958:./Libraries/STM32F10x_StdPeriph_Driver/src/stm32f10x_flash.c ****   * @brief  Write protects the desired pages
 959:./Libraries/STM32F10x_StdPeriph_Driver/src/stm32f10x_flash.c ****   * @note   This function can be used for all STM32F10x devices.
 960:./Libraries/STM32F10x_StdPeriph_Driver/src/stm32f10x_flash.c ****   * @param  FLASH_Pages: specifies the address of the pages to be write protected.
 961:./Libraries/STM32F10x_StdPeriph_Driver/src/stm32f10x_flash.c ****   *   This parameter can be:
 962:./Libraries/STM32F10x_StdPeriph_Driver/src/stm32f10x_flash.c ****   *     @arg For @b STM32_Low-density_devices: value between FLASH_WRProt_Pages0to3 and FLASH_WRPro
 963:./Libraries/STM32F10x_StdPeriph_Driver/src/stm32f10x_flash.c ****   *     @arg For @b STM32_Medium-density_devices: value between FLASH_WRProt_Pages0to3
 964:./Libraries/STM32F10x_StdPeriph_Driver/src/stm32f10x_flash.c ****   *       and FLASH_WRProt_Pages124to127
 965:./Libraries/STM32F10x_StdPeriph_Driver/src/stm32f10x_flash.c ****   *     @arg For @b STM32_High-density_devices: value between FLASH_WRProt_Pages0to1 and
 966:./Libraries/STM32F10x_StdPeriph_Driver/src/stm32f10x_flash.c ****   *       FLASH_WRProt_Pages60to61 or FLASH_WRProt_Pages62to255
 967:./Libraries/STM32F10x_StdPeriph_Driver/src/stm32f10x_flash.c ****   *     @arg For @b STM32_Connectivity_line_devices: value between FLASH_WRProt_Pages0to1 and
 968:./Libraries/STM32F10x_StdPeriph_Driver/src/stm32f10x_flash.c ****   *       FLASH_WRProt_Pages60to61 or FLASH_WRProt_Pages62to127    
 969:./Libraries/STM32F10x_StdPeriph_Driver/src/stm32f10x_flash.c ****   *     @arg For @b STM32_XL-density_devices: value between FLASH_WRProt_Pages0to1 and
ARM GAS  /tmp/ccE6739X.s 			page 37


 970:./Libraries/STM32F10x_StdPeriph_Driver/src/stm32f10x_flash.c ****   *       FLASH_WRProt_Pages60to61 or FLASH_WRProt_Pages62to511
 971:./Libraries/STM32F10x_StdPeriph_Driver/src/stm32f10x_flash.c ****   *     @arg FLASH_WRProt_AllPages
 972:./Libraries/STM32F10x_StdPeriph_Driver/src/stm32f10x_flash.c ****   * @retval FLASH Status: The returned value can be: FLASH_ERROR_PG,
 973:./Libraries/STM32F10x_StdPeriph_Driver/src/stm32f10x_flash.c ****   *         FLASH_ERROR_WRP, FLASH_COMPLETE or FLASH_TIMEOUT.
 974:./Libraries/STM32F10x_StdPeriph_Driver/src/stm32f10x_flash.c ****   */
 975:./Libraries/STM32F10x_StdPeriph_Driver/src/stm32f10x_flash.c **** FLASH_Status FLASH_EnableWriteProtection(uint32_t FLASH_Pages)
 976:./Libraries/STM32F10x_StdPeriph_Driver/src/stm32f10x_flash.c **** {
 1113              		.loc 1 976 1
 1114              		.cfi_startproc
 1115              		@ args = 0, pretend = 0, frame = 24
 1116              		@ frame_needed = 1, uses_anonymous_args = 0
 1117 0000 80B5     		push	{r7, lr}
 1118              	.LCFI69:
 1119              		.cfi_def_cfa_offset 8
 1120              		.cfi_offset 7, -8
 1121              		.cfi_offset 14, -4
 1122 0002 86B0     		sub	sp, sp, #24
 1123              	.LCFI70:
 1124              		.cfi_def_cfa_offset 32
 1125 0004 00AF     		add	r7, sp, #0
 1126              	.LCFI71:
 1127              		.cfi_def_cfa_register 7
 1128 0006 7860     		str	r0, [r7, #4]
 977:./Libraries/STM32F10x_StdPeriph_Driver/src/stm32f10x_flash.c ****   uint16_t WRP0_Data = 0xFFFF, WRP1_Data = 0xFFFF, WRP2_Data = 0xFFFF, WRP3_Data = 0xFFFF;
 1129              		.loc 1 977 12
 1130 0008 4FF6FF73 		movw	r3, #65535
 1131 000c BB82     		strh	r3, [r7, #20]	@ movhi
 1132              		.loc 1 977 32
 1133 000e 4FF6FF73 		movw	r3, #65535
 1134 0012 7B82     		strh	r3, [r7, #18]	@ movhi
 1135              		.loc 1 977 52
 1136 0014 4FF6FF73 		movw	r3, #65535
 1137 0018 3B82     		strh	r3, [r7, #16]	@ movhi
 1138              		.loc 1 977 72
 1139 001a 4FF6FF73 		movw	r3, #65535
 1140 001e FB81     		strh	r3, [r7, #14]	@ movhi
 978:./Libraries/STM32F10x_StdPeriph_Driver/src/stm32f10x_flash.c ****   
 979:./Libraries/STM32F10x_StdPeriph_Driver/src/stm32f10x_flash.c ****   FLASH_Status status = FLASH_COMPLETE;
 1141              		.loc 1 979 16
 1142 0020 0423     		movs	r3, #4
 1143 0022 FB75     		strb	r3, [r7, #23]
 980:./Libraries/STM32F10x_StdPeriph_Driver/src/stm32f10x_flash.c ****   
 981:./Libraries/STM32F10x_StdPeriph_Driver/src/stm32f10x_flash.c ****   /* Check the parameters */
 982:./Libraries/STM32F10x_StdPeriph_Driver/src/stm32f10x_flash.c ****   assert_param(IS_FLASH_WRPROT_PAGE(FLASH_Pages));
 983:./Libraries/STM32F10x_StdPeriph_Driver/src/stm32f10x_flash.c ****   
 984:./Libraries/STM32F10x_StdPeriph_Driver/src/stm32f10x_flash.c ****   FLASH_Pages = (uint32_t)(~FLASH_Pages);
 1144              		.loc 1 984 15
 1145 0024 7B68     		ldr	r3, [r7, #4]
 1146 0026 DB43     		mvns	r3, r3
 1147 0028 7B60     		str	r3, [r7, #4]
 985:./Libraries/STM32F10x_StdPeriph_Driver/src/stm32f10x_flash.c ****   WRP0_Data = (uint16_t)(FLASH_Pages & WRP0_Mask);
 1148              		.loc 1 985 15
 1149 002a 7B68     		ldr	r3, [r7, #4]
 1150 002c 9BB2     		uxth	r3, r3
 1151              		.loc 1 985 13
 1152 002e DBB2     		uxtb	r3, r3
 1153 0030 BB82     		strh	r3, [r7, #20]	@ movhi
ARM GAS  /tmp/ccE6739X.s 			page 38


 986:./Libraries/STM32F10x_StdPeriph_Driver/src/stm32f10x_flash.c ****   WRP1_Data = (uint16_t)((FLASH_Pages & WRP1_Mask) >> 8);
 1154              		.loc 1 986 52
 1155 0032 7B68     		ldr	r3, [r7, #4]
 1156 0034 1B0A     		lsrs	r3, r3, #8
 1157              		.loc 1 986 15
 1158 0036 9BB2     		uxth	r3, r3
 1159              		.loc 1 986 13
 1160 0038 DBB2     		uxtb	r3, r3
 1161 003a 7B82     		strh	r3, [r7, #18]	@ movhi
 987:./Libraries/STM32F10x_StdPeriph_Driver/src/stm32f10x_flash.c ****   WRP2_Data = (uint16_t)((FLASH_Pages & WRP2_Mask) >> 16);
 1162              		.loc 1 987 52
 1163 003c 7B68     		ldr	r3, [r7, #4]
 1164 003e 1B0C     		lsrs	r3, r3, #16
 1165              		.loc 1 987 15
 1166 0040 9BB2     		uxth	r3, r3
 1167              		.loc 1 987 13
 1168 0042 DBB2     		uxtb	r3, r3
 1169 0044 3B82     		strh	r3, [r7, #16]	@ movhi
 988:./Libraries/STM32F10x_StdPeriph_Driver/src/stm32f10x_flash.c ****   WRP3_Data = (uint16_t)((FLASH_Pages & WRP3_Mask) >> 24);
 1170              		.loc 1 988 52
 1171 0046 7B68     		ldr	r3, [r7, #4]
 1172 0048 1B0E     		lsrs	r3, r3, #24
 1173              		.loc 1 988 13
 1174 004a FB81     		strh	r3, [r7, #14]	@ movhi
 989:./Libraries/STM32F10x_StdPeriph_Driver/src/stm32f10x_flash.c ****   
 990:./Libraries/STM32F10x_StdPeriph_Driver/src/stm32f10x_flash.c ****   /* Wait for last operation to be completed */
 991:./Libraries/STM32F10x_StdPeriph_Driver/src/stm32f10x_flash.c ****   status = FLASH_WaitForLastOperation(ProgramTimeout);
 1175              		.loc 1 991 12
 1176 004c 4FF40050 		mov	r0, #8192
 1177 0050 FFF7FEFF 		bl	FLASH_WaitForLastOperation
 1178 0054 0346     		mov	r3, r0
 1179 0056 FB75     		strb	r3, [r7, #23]
 992:./Libraries/STM32F10x_StdPeriph_Driver/src/stm32f10x_flash.c ****   
 993:./Libraries/STM32F10x_StdPeriph_Driver/src/stm32f10x_flash.c ****   if(status == FLASH_COMPLETE)
 1180              		.loc 1 993 5
 1181 0058 FB7D     		ldrb	r3, [r7, #23]	@ zero_extendqisi2
 1182 005a 042B     		cmp	r3, #4
 1183 005c 4ED1     		bne	.L61
 994:./Libraries/STM32F10x_StdPeriph_Driver/src/stm32f10x_flash.c ****   {
 995:./Libraries/STM32F10x_StdPeriph_Driver/src/stm32f10x_flash.c ****     /* Authorizes the small information block programming */
 996:./Libraries/STM32F10x_StdPeriph_Driver/src/stm32f10x_flash.c ****     FLASH->OPTKEYR = FLASH_KEY1;
 1184              		.loc 1 996 10
 1185 005e 2A4B     		ldr	r3, .L67
 1186              		.loc 1 996 20
 1187 0060 2A4A     		ldr	r2, .L67+4
 1188 0062 9A60     		str	r2, [r3, #8]
 997:./Libraries/STM32F10x_StdPeriph_Driver/src/stm32f10x_flash.c ****     FLASH->OPTKEYR = FLASH_KEY2;
 1189              		.loc 1 997 10
 1190 0064 284B     		ldr	r3, .L67
 1191              		.loc 1 997 20
 1192 0066 2A4A     		ldr	r2, .L67+8
 1193 0068 9A60     		str	r2, [r3, #8]
 998:./Libraries/STM32F10x_StdPeriph_Driver/src/stm32f10x_flash.c ****     FLASH->CR |= CR_OPTPG_Set;
 1194              		.loc 1 998 15
 1195 006a 274B     		ldr	r3, .L67
 1196 006c 1B69     		ldr	r3, [r3, #16]
 1197 006e 264A     		ldr	r2, .L67
ARM GAS  /tmp/ccE6739X.s 			page 39


 1198 0070 43F01003 		orr	r3, r3, #16
 1199 0074 1361     		str	r3, [r2, #16]
 999:./Libraries/STM32F10x_StdPeriph_Driver/src/stm32f10x_flash.c ****     if(WRP0_Data != 0xFF)
 1200              		.loc 1 999 7
 1201 0076 BB8A     		ldrh	r3, [r7, #20]
 1202 0078 FF2B     		cmp	r3, #255
 1203 007a 08D0     		beq	.L62
1000:./Libraries/STM32F10x_StdPeriph_Driver/src/stm32f10x_flash.c ****     {
1001:./Libraries/STM32F10x_StdPeriph_Driver/src/stm32f10x_flash.c ****       OB->WRP0 = WRP0_Data;
 1204              		.loc 1 1001 9
 1205 007c 254A     		ldr	r2, .L67+12
 1206              		.loc 1 1001 16
 1207 007e BB8A     		ldrh	r3, [r7, #20]	@ movhi
 1208 0080 1381     		strh	r3, [r2, #8]	@ movhi
1002:./Libraries/STM32F10x_StdPeriph_Driver/src/stm32f10x_flash.c ****       
1003:./Libraries/STM32F10x_StdPeriph_Driver/src/stm32f10x_flash.c ****       /* Wait for last operation to be completed */
1004:./Libraries/STM32F10x_StdPeriph_Driver/src/stm32f10x_flash.c ****       status = FLASH_WaitForLastOperation(ProgramTimeout);
 1209              		.loc 1 1004 16
 1210 0082 4FF40050 		mov	r0, #8192
 1211 0086 FFF7FEFF 		bl	FLASH_WaitForLastOperation
 1212 008a 0346     		mov	r3, r0
 1213 008c FB75     		strb	r3, [r7, #23]
 1214              	.L62:
1005:./Libraries/STM32F10x_StdPeriph_Driver/src/stm32f10x_flash.c ****     }
1006:./Libraries/STM32F10x_StdPeriph_Driver/src/stm32f10x_flash.c ****     if((status == FLASH_COMPLETE) && (WRP1_Data != 0xFF))
 1215              		.loc 1 1006 7
 1216 008e FB7D     		ldrb	r3, [r7, #23]	@ zero_extendqisi2
 1217 0090 042B     		cmp	r3, #4
 1218 0092 0BD1     		bne	.L63
 1219              		.loc 1 1006 35 discriminator 1
 1220 0094 7B8A     		ldrh	r3, [r7, #18]
 1221 0096 FF2B     		cmp	r3, #255
 1222 0098 08D0     		beq	.L63
1007:./Libraries/STM32F10x_StdPeriph_Driver/src/stm32f10x_flash.c ****     {
1008:./Libraries/STM32F10x_StdPeriph_Driver/src/stm32f10x_flash.c ****       OB->WRP1 = WRP1_Data;
 1223              		.loc 1 1008 9
 1224 009a 1E4A     		ldr	r2, .L67+12
 1225              		.loc 1 1008 16
 1226 009c 7B8A     		ldrh	r3, [r7, #18]	@ movhi
 1227 009e 5381     		strh	r3, [r2, #10]	@ movhi
1009:./Libraries/STM32F10x_StdPeriph_Driver/src/stm32f10x_flash.c ****       
1010:./Libraries/STM32F10x_StdPeriph_Driver/src/stm32f10x_flash.c ****       /* Wait for last operation to be completed */
1011:./Libraries/STM32F10x_StdPeriph_Driver/src/stm32f10x_flash.c ****       status = FLASH_WaitForLastOperation(ProgramTimeout);
 1228              		.loc 1 1011 16
 1229 00a0 4FF40050 		mov	r0, #8192
 1230 00a4 FFF7FEFF 		bl	FLASH_WaitForLastOperation
 1231 00a8 0346     		mov	r3, r0
 1232 00aa FB75     		strb	r3, [r7, #23]
 1233              	.L63:
1012:./Libraries/STM32F10x_StdPeriph_Driver/src/stm32f10x_flash.c ****     }
1013:./Libraries/STM32F10x_StdPeriph_Driver/src/stm32f10x_flash.c ****     if((status == FLASH_COMPLETE) && (WRP2_Data != 0xFF))
 1234              		.loc 1 1013 7
 1235 00ac FB7D     		ldrb	r3, [r7, #23]	@ zero_extendqisi2
 1236 00ae 042B     		cmp	r3, #4
 1237 00b0 0BD1     		bne	.L64
 1238              		.loc 1 1013 35 discriminator 1
 1239 00b2 3B8A     		ldrh	r3, [r7, #16]
ARM GAS  /tmp/ccE6739X.s 			page 40


 1240 00b4 FF2B     		cmp	r3, #255
 1241 00b6 08D0     		beq	.L64
1014:./Libraries/STM32F10x_StdPeriph_Driver/src/stm32f10x_flash.c ****     {
1015:./Libraries/STM32F10x_StdPeriph_Driver/src/stm32f10x_flash.c ****       OB->WRP2 = WRP2_Data;
 1242              		.loc 1 1015 9
 1243 00b8 164A     		ldr	r2, .L67+12
 1244              		.loc 1 1015 16
 1245 00ba 3B8A     		ldrh	r3, [r7, #16]	@ movhi
 1246 00bc 9381     		strh	r3, [r2, #12]	@ movhi
1016:./Libraries/STM32F10x_StdPeriph_Driver/src/stm32f10x_flash.c ****       
1017:./Libraries/STM32F10x_StdPeriph_Driver/src/stm32f10x_flash.c ****       /* Wait for last operation to be completed */
1018:./Libraries/STM32F10x_StdPeriph_Driver/src/stm32f10x_flash.c ****       status = FLASH_WaitForLastOperation(ProgramTimeout);
 1247              		.loc 1 1018 16
 1248 00be 4FF40050 		mov	r0, #8192
 1249 00c2 FFF7FEFF 		bl	FLASH_WaitForLastOperation
 1250 00c6 0346     		mov	r3, r0
 1251 00c8 FB75     		strb	r3, [r7, #23]
 1252              	.L64:
1019:./Libraries/STM32F10x_StdPeriph_Driver/src/stm32f10x_flash.c ****     }
1020:./Libraries/STM32F10x_StdPeriph_Driver/src/stm32f10x_flash.c ****     
1021:./Libraries/STM32F10x_StdPeriph_Driver/src/stm32f10x_flash.c ****     if((status == FLASH_COMPLETE)&& (WRP3_Data != 0xFF))
 1253              		.loc 1 1021 7
 1254 00ca FB7D     		ldrb	r3, [r7, #23]	@ zero_extendqisi2
 1255 00cc 042B     		cmp	r3, #4
 1256 00ce 0BD1     		bne	.L65
 1257              		.loc 1 1021 34 discriminator 1
 1258 00d0 FB89     		ldrh	r3, [r7, #14]
 1259 00d2 FF2B     		cmp	r3, #255
 1260 00d4 08D0     		beq	.L65
1022:./Libraries/STM32F10x_StdPeriph_Driver/src/stm32f10x_flash.c ****     {
1023:./Libraries/STM32F10x_StdPeriph_Driver/src/stm32f10x_flash.c ****       OB->WRP3 = WRP3_Data;
 1261              		.loc 1 1023 9
 1262 00d6 0F4A     		ldr	r2, .L67+12
 1263              		.loc 1 1023 16
 1264 00d8 FB89     		ldrh	r3, [r7, #14]	@ movhi
 1265 00da D381     		strh	r3, [r2, #14]	@ movhi
1024:./Libraries/STM32F10x_StdPeriph_Driver/src/stm32f10x_flash.c ****      
1025:./Libraries/STM32F10x_StdPeriph_Driver/src/stm32f10x_flash.c ****       /* Wait for last operation to be completed */
1026:./Libraries/STM32F10x_StdPeriph_Driver/src/stm32f10x_flash.c ****       status = FLASH_WaitForLastOperation(ProgramTimeout);
 1266              		.loc 1 1026 16
 1267 00dc 4FF40050 		mov	r0, #8192
 1268 00e0 FFF7FEFF 		bl	FLASH_WaitForLastOperation
 1269 00e4 0346     		mov	r3, r0
 1270 00e6 FB75     		strb	r3, [r7, #23]
 1271              	.L65:
1027:./Libraries/STM32F10x_StdPeriph_Driver/src/stm32f10x_flash.c ****     }
1028:./Libraries/STM32F10x_StdPeriph_Driver/src/stm32f10x_flash.c ****           
1029:./Libraries/STM32F10x_StdPeriph_Driver/src/stm32f10x_flash.c ****     if(status != FLASH_TIMEOUT)
 1272              		.loc 1 1029 7
 1273 00e8 FB7D     		ldrb	r3, [r7, #23]	@ zero_extendqisi2
 1274 00ea 052B     		cmp	r3, #5
 1275 00ec 06D0     		beq	.L61
1030:./Libraries/STM32F10x_StdPeriph_Driver/src/stm32f10x_flash.c ****     {
1031:./Libraries/STM32F10x_StdPeriph_Driver/src/stm32f10x_flash.c ****       /* if the program operation is completed, disable the OPTPG Bit */
1032:./Libraries/STM32F10x_StdPeriph_Driver/src/stm32f10x_flash.c ****       FLASH->CR &= CR_OPTPG_Reset;
 1276              		.loc 1 1032 17
 1277 00ee 064B     		ldr	r3, .L67
ARM GAS  /tmp/ccE6739X.s 			page 41


 1278 00f0 1A69     		ldr	r2, [r3, #16]
 1279 00f2 0549     		ldr	r1, .L67
 1280 00f4 41F6EF73 		movw	r3, #8175
 1281 00f8 1340     		ands	r3, r3, r2
 1282 00fa 0B61     		str	r3, [r1, #16]
 1283              	.L61:
1033:./Libraries/STM32F10x_StdPeriph_Driver/src/stm32f10x_flash.c ****     }
1034:./Libraries/STM32F10x_StdPeriph_Driver/src/stm32f10x_flash.c ****   } 
1035:./Libraries/STM32F10x_StdPeriph_Driver/src/stm32f10x_flash.c ****   /* Return the write protection operation Status */
1036:./Libraries/STM32F10x_StdPeriph_Driver/src/stm32f10x_flash.c ****   return status;       
 1284              		.loc 1 1036 10
 1285 00fc FB7D     		ldrb	r3, [r7, #23]	@ zero_extendqisi2
1037:./Libraries/STM32F10x_StdPeriph_Driver/src/stm32f10x_flash.c **** }
 1286              		.loc 1 1037 1
 1287 00fe 1846     		mov	r0, r3
 1288 0100 1837     		adds	r7, r7, #24
 1289              	.LCFI72:
 1290              		.cfi_def_cfa_offset 8
 1291 0102 BD46     		mov	sp, r7
 1292              	.LCFI73:
 1293              		.cfi_def_cfa_register 13
 1294              		@ sp needed
 1295 0104 80BD     		pop	{r7, pc}
 1296              	.L68:
 1297 0106 00BF     		.align	2
 1298              	.L67:
 1299 0108 00200240 		.word	1073881088
 1300 010c 23016745 		.word	1164378403
 1301 0110 AB89EFCD 		.word	-839939669
 1302 0114 00F8FF1F 		.word	536868864
 1303              		.cfi_endproc
 1304              	.LFE43:
 1306              		.section	.text.FLASH_ReadOutProtection,"ax",%progbits
 1307              		.align	1
 1308              		.global	FLASH_ReadOutProtection
 1309              		.syntax unified
 1310              		.thumb
 1311              		.thumb_func
 1312              		.fpu softvfp
 1314              	FLASH_ReadOutProtection:
 1315              	.LFB44:
1038:./Libraries/STM32F10x_StdPeriph_Driver/src/stm32f10x_flash.c **** 
1039:./Libraries/STM32F10x_StdPeriph_Driver/src/stm32f10x_flash.c **** /**
1040:./Libraries/STM32F10x_StdPeriph_Driver/src/stm32f10x_flash.c ****   * @brief  Enables or disables the read out protection.
1041:./Libraries/STM32F10x_StdPeriph_Driver/src/stm32f10x_flash.c ****   * @note   If the user has already programmed the other option bytes before calling 
1042:./Libraries/STM32F10x_StdPeriph_Driver/src/stm32f10x_flash.c ****   *   this function, he must re-program them since this function erases all option bytes.
1043:./Libraries/STM32F10x_StdPeriph_Driver/src/stm32f10x_flash.c ****   * @note   This function can be used for all STM32F10x devices.
1044:./Libraries/STM32F10x_StdPeriph_Driver/src/stm32f10x_flash.c ****   * @param  Newstate: new state of the ReadOut Protection.
1045:./Libraries/STM32F10x_StdPeriph_Driver/src/stm32f10x_flash.c ****   *   This parameter can be: ENABLE or DISABLE.
1046:./Libraries/STM32F10x_StdPeriph_Driver/src/stm32f10x_flash.c ****   * @retval FLASH Status: The returned value can be: FLASH_ERROR_PG,
1047:./Libraries/STM32F10x_StdPeriph_Driver/src/stm32f10x_flash.c ****   *         FLASH_ERROR_WRP, FLASH_COMPLETE or FLASH_TIMEOUT.
1048:./Libraries/STM32F10x_StdPeriph_Driver/src/stm32f10x_flash.c ****   */
1049:./Libraries/STM32F10x_StdPeriph_Driver/src/stm32f10x_flash.c **** FLASH_Status FLASH_ReadOutProtection(FunctionalState NewState)
1050:./Libraries/STM32F10x_StdPeriph_Driver/src/stm32f10x_flash.c **** {
 1316              		.loc 1 1050 1
 1317              		.cfi_startproc
 1318              		@ args = 0, pretend = 0, frame = 16
ARM GAS  /tmp/ccE6739X.s 			page 42


 1319              		@ frame_needed = 1, uses_anonymous_args = 0
 1320 0000 80B5     		push	{r7, lr}
 1321              	.LCFI74:
 1322              		.cfi_def_cfa_offset 8
 1323              		.cfi_offset 7, -8
 1324              		.cfi_offset 14, -4
 1325 0002 84B0     		sub	sp, sp, #16
 1326              	.LCFI75:
 1327              		.cfi_def_cfa_offset 24
 1328 0004 00AF     		add	r7, sp, #0
 1329              	.LCFI76:
 1330              		.cfi_def_cfa_register 7
 1331 0006 0346     		mov	r3, r0
 1332 0008 FB71     		strb	r3, [r7, #7]
1051:./Libraries/STM32F10x_StdPeriph_Driver/src/stm32f10x_flash.c ****   FLASH_Status status = FLASH_COMPLETE;
 1333              		.loc 1 1051 16
 1334 000a 0423     		movs	r3, #4
 1335 000c FB73     		strb	r3, [r7, #15]
1052:./Libraries/STM32F10x_StdPeriph_Driver/src/stm32f10x_flash.c ****   /* Check the parameters */
1053:./Libraries/STM32F10x_StdPeriph_Driver/src/stm32f10x_flash.c ****   assert_param(IS_FUNCTIONAL_STATE(NewState));
1054:./Libraries/STM32F10x_StdPeriph_Driver/src/stm32f10x_flash.c ****   status = FLASH_WaitForLastOperation(EraseTimeout);
 1336              		.loc 1 1054 12
 1337 000e 4FF43020 		mov	r0, #720896
 1338 0012 FFF7FEFF 		bl	FLASH_WaitForLastOperation
 1339 0016 0346     		mov	r3, r0
 1340 0018 FB73     		strb	r3, [r7, #15]
1055:./Libraries/STM32F10x_StdPeriph_Driver/src/stm32f10x_flash.c ****   if(status == FLASH_COMPLETE)
 1341              		.loc 1 1055 5
 1342 001a FB7B     		ldrb	r3, [r7, #15]	@ zero_extendqisi2
 1343 001c 042B     		cmp	r3, #4
 1344 001e 4CD1     		bne	.L70
1056:./Libraries/STM32F10x_StdPeriph_Driver/src/stm32f10x_flash.c ****   {
1057:./Libraries/STM32F10x_StdPeriph_Driver/src/stm32f10x_flash.c ****     /* Authorizes the small information block programming */
1058:./Libraries/STM32F10x_StdPeriph_Driver/src/stm32f10x_flash.c ****     FLASH->OPTKEYR = FLASH_KEY1;
 1345              		.loc 1 1058 10
 1346 0020 284B     		ldr	r3, .L75
 1347              		.loc 1 1058 20
 1348 0022 294A     		ldr	r2, .L75+4
 1349 0024 9A60     		str	r2, [r3, #8]
1059:./Libraries/STM32F10x_StdPeriph_Driver/src/stm32f10x_flash.c ****     FLASH->OPTKEYR = FLASH_KEY2;
 1350              		.loc 1 1059 10
 1351 0026 274B     		ldr	r3, .L75
 1352              		.loc 1 1059 20
 1353 0028 284A     		ldr	r2, .L75+8
 1354 002a 9A60     		str	r2, [r3, #8]
1060:./Libraries/STM32F10x_StdPeriph_Driver/src/stm32f10x_flash.c ****     FLASH->CR |= CR_OPTER_Set;
 1355              		.loc 1 1060 15
 1356 002c 254B     		ldr	r3, .L75
 1357 002e 1B69     		ldr	r3, [r3, #16]
 1358 0030 244A     		ldr	r2, .L75
 1359 0032 43F02003 		orr	r3, r3, #32
 1360 0036 1361     		str	r3, [r2, #16]
1061:./Libraries/STM32F10x_StdPeriph_Driver/src/stm32f10x_flash.c ****     FLASH->CR |= CR_STRT_Set;
 1361              		.loc 1 1061 15
 1362 0038 224B     		ldr	r3, .L75
 1363 003a 1B69     		ldr	r3, [r3, #16]
 1364 003c 214A     		ldr	r2, .L75
ARM GAS  /tmp/ccE6739X.s 			page 43


 1365 003e 43F04003 		orr	r3, r3, #64
 1366 0042 1361     		str	r3, [r2, #16]
1062:./Libraries/STM32F10x_StdPeriph_Driver/src/stm32f10x_flash.c ****     /* Wait for last operation to be completed */
1063:./Libraries/STM32F10x_StdPeriph_Driver/src/stm32f10x_flash.c ****     status = FLASH_WaitForLastOperation(EraseTimeout);
 1367              		.loc 1 1063 14
 1368 0044 4FF43020 		mov	r0, #720896
 1369 0048 FFF7FEFF 		bl	FLASH_WaitForLastOperation
 1370 004c 0346     		mov	r3, r0
 1371 004e FB73     		strb	r3, [r7, #15]
1064:./Libraries/STM32F10x_StdPeriph_Driver/src/stm32f10x_flash.c ****     if(status == FLASH_COMPLETE)
 1372              		.loc 1 1064 7
 1373 0050 FB7B     		ldrb	r3, [r7, #15]	@ zero_extendqisi2
 1374 0052 042B     		cmp	r3, #4
 1375 0054 27D1     		bne	.L71
1065:./Libraries/STM32F10x_StdPeriph_Driver/src/stm32f10x_flash.c ****     {
1066:./Libraries/STM32F10x_StdPeriph_Driver/src/stm32f10x_flash.c ****       /* if the erase operation is completed, disable the OPTER Bit */
1067:./Libraries/STM32F10x_StdPeriph_Driver/src/stm32f10x_flash.c ****       FLASH->CR &= CR_OPTER_Reset;
 1376              		.loc 1 1067 17
 1377 0056 1B4B     		ldr	r3, .L75
 1378 0058 1A69     		ldr	r2, [r3, #16]
 1379 005a 1A49     		ldr	r1, .L75
 1380 005c 41F6DF73 		movw	r3, #8159
 1381 0060 1340     		ands	r3, r3, r2
 1382 0062 0B61     		str	r3, [r1, #16]
1068:./Libraries/STM32F10x_StdPeriph_Driver/src/stm32f10x_flash.c ****       /* Enable the Option Bytes Programming operation */
1069:./Libraries/STM32F10x_StdPeriph_Driver/src/stm32f10x_flash.c ****       FLASH->CR |= CR_OPTPG_Set; 
 1383              		.loc 1 1069 17
 1384 0064 174B     		ldr	r3, .L75
 1385 0066 1B69     		ldr	r3, [r3, #16]
 1386 0068 164A     		ldr	r2, .L75
 1387 006a 43F01003 		orr	r3, r3, #16
 1388 006e 1361     		str	r3, [r2, #16]
1070:./Libraries/STM32F10x_StdPeriph_Driver/src/stm32f10x_flash.c ****       if(NewState != DISABLE)
 1389              		.loc 1 1070 9
 1390 0070 FB79     		ldrb	r3, [r7, #7]	@ zero_extendqisi2
 1391 0072 002B     		cmp	r3, #0
 1392 0074 03D0     		beq	.L72
1071:./Libraries/STM32F10x_StdPeriph_Driver/src/stm32f10x_flash.c ****       {
1072:./Libraries/STM32F10x_StdPeriph_Driver/src/stm32f10x_flash.c ****         OB->RDP = 0x00;
 1393              		.loc 1 1072 11
 1394 0076 164B     		ldr	r3, .L75+12
 1395              		.loc 1 1072 17
 1396 0078 0022     		movs	r2, #0
 1397 007a 1A80     		strh	r2, [r3]	@ movhi
 1398 007c 02E0     		b	.L73
 1399              	.L72:
1073:./Libraries/STM32F10x_StdPeriph_Driver/src/stm32f10x_flash.c ****       }
1074:./Libraries/STM32F10x_StdPeriph_Driver/src/stm32f10x_flash.c ****       else
1075:./Libraries/STM32F10x_StdPeriph_Driver/src/stm32f10x_flash.c ****       {
1076:./Libraries/STM32F10x_StdPeriph_Driver/src/stm32f10x_flash.c ****         OB->RDP = RDP_Key;  
 1400              		.loc 1 1076 11
 1401 007e 144B     		ldr	r3, .L75+12
 1402              		.loc 1 1076 17
 1403 0080 A522     		movs	r2, #165
 1404 0082 1A80     		strh	r2, [r3]	@ movhi
 1405              	.L73:
1077:./Libraries/STM32F10x_StdPeriph_Driver/src/stm32f10x_flash.c ****       }
ARM GAS  /tmp/ccE6739X.s 			page 44


1078:./Libraries/STM32F10x_StdPeriph_Driver/src/stm32f10x_flash.c ****       /* Wait for last operation to be completed */
1079:./Libraries/STM32F10x_StdPeriph_Driver/src/stm32f10x_flash.c ****       status = FLASH_WaitForLastOperation(EraseTimeout); 
 1406              		.loc 1 1079 16
 1407 0084 4FF43020 		mov	r0, #720896
 1408 0088 FFF7FEFF 		bl	FLASH_WaitForLastOperation
 1409 008c 0346     		mov	r3, r0
 1410 008e FB73     		strb	r3, [r7, #15]
1080:./Libraries/STM32F10x_StdPeriph_Driver/src/stm32f10x_flash.c ****     
1081:./Libraries/STM32F10x_StdPeriph_Driver/src/stm32f10x_flash.c ****       if(status != FLASH_TIMEOUT)
 1411              		.loc 1 1081 9
 1412 0090 FB7B     		ldrb	r3, [r7, #15]	@ zero_extendqisi2
 1413 0092 052B     		cmp	r3, #5
 1414 0094 11D0     		beq	.L70
1082:./Libraries/STM32F10x_StdPeriph_Driver/src/stm32f10x_flash.c ****       {
1083:./Libraries/STM32F10x_StdPeriph_Driver/src/stm32f10x_flash.c ****         /* if the program operation is completed, disable the OPTPG Bit */
1084:./Libraries/STM32F10x_StdPeriph_Driver/src/stm32f10x_flash.c ****         FLASH->CR &= CR_OPTPG_Reset;
 1415              		.loc 1 1084 19
 1416 0096 0B4B     		ldr	r3, .L75
 1417 0098 1A69     		ldr	r2, [r3, #16]
 1418 009a 0A49     		ldr	r1, .L75
 1419 009c 41F6EF73 		movw	r3, #8175
 1420 00a0 1340     		ands	r3, r3, r2
 1421 00a2 0B61     		str	r3, [r1, #16]
 1422 00a4 09E0     		b	.L70
 1423              	.L71:
1085:./Libraries/STM32F10x_StdPeriph_Driver/src/stm32f10x_flash.c ****       }
1086:./Libraries/STM32F10x_StdPeriph_Driver/src/stm32f10x_flash.c ****     }
1087:./Libraries/STM32F10x_StdPeriph_Driver/src/stm32f10x_flash.c ****     else 
1088:./Libraries/STM32F10x_StdPeriph_Driver/src/stm32f10x_flash.c ****     {
1089:./Libraries/STM32F10x_StdPeriph_Driver/src/stm32f10x_flash.c ****       if(status != FLASH_TIMEOUT)
 1424              		.loc 1 1089 9
 1425 00a6 FB7B     		ldrb	r3, [r7, #15]	@ zero_extendqisi2
 1426 00a8 052B     		cmp	r3, #5
 1427 00aa 06D0     		beq	.L70
1090:./Libraries/STM32F10x_StdPeriph_Driver/src/stm32f10x_flash.c ****       {
1091:./Libraries/STM32F10x_StdPeriph_Driver/src/stm32f10x_flash.c ****         /* Disable the OPTER Bit */
1092:./Libraries/STM32F10x_StdPeriph_Driver/src/stm32f10x_flash.c ****         FLASH->CR &= CR_OPTER_Reset;
 1428              		.loc 1 1092 19
 1429 00ac 054B     		ldr	r3, .L75
 1430 00ae 1A69     		ldr	r2, [r3, #16]
 1431 00b0 0449     		ldr	r1, .L75
 1432 00b2 41F6DF73 		movw	r3, #8159
 1433 00b6 1340     		ands	r3, r3, r2
 1434 00b8 0B61     		str	r3, [r1, #16]
 1435              	.L70:
1093:./Libraries/STM32F10x_StdPeriph_Driver/src/stm32f10x_flash.c ****       }
1094:./Libraries/STM32F10x_StdPeriph_Driver/src/stm32f10x_flash.c ****     }
1095:./Libraries/STM32F10x_StdPeriph_Driver/src/stm32f10x_flash.c ****   }
1096:./Libraries/STM32F10x_StdPeriph_Driver/src/stm32f10x_flash.c ****   /* Return the protection operation Status */
1097:./Libraries/STM32F10x_StdPeriph_Driver/src/stm32f10x_flash.c ****   return status;       
 1436              		.loc 1 1097 10
 1437 00ba FB7B     		ldrb	r3, [r7, #15]	@ zero_extendqisi2
1098:./Libraries/STM32F10x_StdPeriph_Driver/src/stm32f10x_flash.c **** }
 1438              		.loc 1 1098 1
 1439 00bc 1846     		mov	r0, r3
 1440 00be 1037     		adds	r7, r7, #16
 1441              	.LCFI77:
ARM GAS  /tmp/ccE6739X.s 			page 45


 1442              		.cfi_def_cfa_offset 8
 1443 00c0 BD46     		mov	sp, r7
 1444              	.LCFI78:
 1445              		.cfi_def_cfa_register 13
 1446              		@ sp needed
 1447 00c2 80BD     		pop	{r7, pc}
 1448              	.L76:
 1449              		.align	2
 1450              	.L75:
 1451 00c4 00200240 		.word	1073881088
 1452 00c8 23016745 		.word	1164378403
 1453 00cc AB89EFCD 		.word	-839939669
 1454 00d0 00F8FF1F 		.word	536868864
 1455              		.cfi_endproc
 1456              	.LFE44:
 1458              		.section	.text.FLASH_UserOptionByteConfig,"ax",%progbits
 1459              		.align	1
 1460              		.global	FLASH_UserOptionByteConfig
 1461              		.syntax unified
 1462              		.thumb
 1463              		.thumb_func
 1464              		.fpu softvfp
 1466              	FLASH_UserOptionByteConfig:
 1467              	.LFB45:
1099:./Libraries/STM32F10x_StdPeriph_Driver/src/stm32f10x_flash.c **** 
1100:./Libraries/STM32F10x_StdPeriph_Driver/src/stm32f10x_flash.c **** /**
1101:./Libraries/STM32F10x_StdPeriph_Driver/src/stm32f10x_flash.c ****   * @brief  Programs the FLASH User Option Byte: IWDG_SW / RST_STOP / RST_STDBY.
1102:./Libraries/STM32F10x_StdPeriph_Driver/src/stm32f10x_flash.c ****   * @note   This function can be used for all STM32F10x devices.
1103:./Libraries/STM32F10x_StdPeriph_Driver/src/stm32f10x_flash.c ****   * @param  OB_IWDG: Selects the IWDG mode
1104:./Libraries/STM32F10x_StdPeriph_Driver/src/stm32f10x_flash.c ****   *   This parameter can be one of the following values:
1105:./Libraries/STM32F10x_StdPeriph_Driver/src/stm32f10x_flash.c ****   *     @arg OB_IWDG_SW: Software IWDG selected
1106:./Libraries/STM32F10x_StdPeriph_Driver/src/stm32f10x_flash.c ****   *     @arg OB_IWDG_HW: Hardware IWDG selected
1107:./Libraries/STM32F10x_StdPeriph_Driver/src/stm32f10x_flash.c ****   * @param  OB_STOP: Reset event when entering STOP mode.
1108:./Libraries/STM32F10x_StdPeriph_Driver/src/stm32f10x_flash.c ****   *   This parameter can be one of the following values:
1109:./Libraries/STM32F10x_StdPeriph_Driver/src/stm32f10x_flash.c ****   *     @arg OB_STOP_NoRST: No reset generated when entering in STOP
1110:./Libraries/STM32F10x_StdPeriph_Driver/src/stm32f10x_flash.c ****   *     @arg OB_STOP_RST: Reset generated when entering in STOP
1111:./Libraries/STM32F10x_StdPeriph_Driver/src/stm32f10x_flash.c ****   * @param  OB_STDBY: Reset event when entering Standby mode.
1112:./Libraries/STM32F10x_StdPeriph_Driver/src/stm32f10x_flash.c ****   *   This parameter can be one of the following values:
1113:./Libraries/STM32F10x_StdPeriph_Driver/src/stm32f10x_flash.c ****   *     @arg OB_STDBY_NoRST: No reset generated when entering in STANDBY
1114:./Libraries/STM32F10x_StdPeriph_Driver/src/stm32f10x_flash.c ****   *     @arg OB_STDBY_RST: Reset generated when entering in STANDBY
1115:./Libraries/STM32F10x_StdPeriph_Driver/src/stm32f10x_flash.c ****   * @retval FLASH Status: The returned value can be: FLASH_ERROR_PG, 
1116:./Libraries/STM32F10x_StdPeriph_Driver/src/stm32f10x_flash.c ****   *         FLASH_ERROR_WRP, FLASH_COMPLETE or FLASH_TIMEOUT.
1117:./Libraries/STM32F10x_StdPeriph_Driver/src/stm32f10x_flash.c ****   */
1118:./Libraries/STM32F10x_StdPeriph_Driver/src/stm32f10x_flash.c **** FLASH_Status FLASH_UserOptionByteConfig(uint16_t OB_IWDG, uint16_t OB_STOP, uint16_t OB_STDBY)
1119:./Libraries/STM32F10x_StdPeriph_Driver/src/stm32f10x_flash.c **** {
 1468              		.loc 1 1119 1
 1469              		.cfi_startproc
 1470              		@ args = 0, pretend = 0, frame = 16
 1471              		@ frame_needed = 1, uses_anonymous_args = 0
 1472 0000 80B5     		push	{r7, lr}
 1473              	.LCFI79:
 1474              		.cfi_def_cfa_offset 8
 1475              		.cfi_offset 7, -8
 1476              		.cfi_offset 14, -4
 1477 0002 84B0     		sub	sp, sp, #16
 1478              	.LCFI80:
 1479              		.cfi_def_cfa_offset 24
ARM GAS  /tmp/ccE6739X.s 			page 46


 1480 0004 00AF     		add	r7, sp, #0
 1481              	.LCFI81:
 1482              		.cfi_def_cfa_register 7
 1483 0006 0346     		mov	r3, r0
 1484 0008 FB80     		strh	r3, [r7, #6]	@ movhi
 1485 000a 0B46     		mov	r3, r1	@ movhi
 1486 000c BB80     		strh	r3, [r7, #4]	@ movhi
 1487 000e 1346     		mov	r3, r2	@ movhi
 1488 0010 7B80     		strh	r3, [r7, #2]	@ movhi
1120:./Libraries/STM32F10x_StdPeriph_Driver/src/stm32f10x_flash.c ****   FLASH_Status status = FLASH_COMPLETE; 
 1489              		.loc 1 1120 16
 1490 0012 0423     		movs	r3, #4
 1491 0014 FB73     		strb	r3, [r7, #15]
1121:./Libraries/STM32F10x_StdPeriph_Driver/src/stm32f10x_flash.c **** 
1122:./Libraries/STM32F10x_StdPeriph_Driver/src/stm32f10x_flash.c ****   /* Check the parameters */
1123:./Libraries/STM32F10x_StdPeriph_Driver/src/stm32f10x_flash.c ****   assert_param(IS_OB_IWDG_SOURCE(OB_IWDG));
1124:./Libraries/STM32F10x_StdPeriph_Driver/src/stm32f10x_flash.c ****   assert_param(IS_OB_STOP_SOURCE(OB_STOP));
1125:./Libraries/STM32F10x_StdPeriph_Driver/src/stm32f10x_flash.c ****   assert_param(IS_OB_STDBY_SOURCE(OB_STDBY));
1126:./Libraries/STM32F10x_StdPeriph_Driver/src/stm32f10x_flash.c **** 
1127:./Libraries/STM32F10x_StdPeriph_Driver/src/stm32f10x_flash.c ****   /* Authorize the small information block programming */
1128:./Libraries/STM32F10x_StdPeriph_Driver/src/stm32f10x_flash.c ****   FLASH->OPTKEYR = FLASH_KEY1;
 1492              		.loc 1 1128 8
 1493 0016 1B4B     		ldr	r3, .L80
 1494              		.loc 1 1128 18
 1495 0018 1B4A     		ldr	r2, .L80+4
 1496 001a 9A60     		str	r2, [r3, #8]
1129:./Libraries/STM32F10x_StdPeriph_Driver/src/stm32f10x_flash.c ****   FLASH->OPTKEYR = FLASH_KEY2;
 1497              		.loc 1 1129 8
 1498 001c 194B     		ldr	r3, .L80
 1499              		.loc 1 1129 18
 1500 001e 1B4A     		ldr	r2, .L80+8
 1501 0020 9A60     		str	r2, [r3, #8]
1130:./Libraries/STM32F10x_StdPeriph_Driver/src/stm32f10x_flash.c ****   
1131:./Libraries/STM32F10x_StdPeriph_Driver/src/stm32f10x_flash.c ****   /* Wait for last operation to be completed */
1132:./Libraries/STM32F10x_StdPeriph_Driver/src/stm32f10x_flash.c ****   status = FLASH_WaitForLastOperation(ProgramTimeout);
 1502              		.loc 1 1132 12
 1503 0022 4FF40050 		mov	r0, #8192
 1504 0026 FFF7FEFF 		bl	FLASH_WaitForLastOperation
 1505 002a 0346     		mov	r3, r0
 1506 002c FB73     		strb	r3, [r7, #15]
1133:./Libraries/STM32F10x_StdPeriph_Driver/src/stm32f10x_flash.c ****   
1134:./Libraries/STM32F10x_StdPeriph_Driver/src/stm32f10x_flash.c ****   if(status == FLASH_COMPLETE)
 1507              		.loc 1 1134 5
 1508 002e FB7B     		ldrb	r3, [r7, #15]	@ zero_extendqisi2
 1509 0030 042B     		cmp	r3, #4
 1510 0032 21D1     		bne	.L78
1135:./Libraries/STM32F10x_StdPeriph_Driver/src/stm32f10x_flash.c ****   {  
1136:./Libraries/STM32F10x_StdPeriph_Driver/src/stm32f10x_flash.c ****     /* Enable the Option Bytes Programming operation */
1137:./Libraries/STM32F10x_StdPeriph_Driver/src/stm32f10x_flash.c ****     FLASH->CR |= CR_OPTPG_Set; 
 1511              		.loc 1 1137 15
 1512 0034 134B     		ldr	r3, .L80
 1513 0036 1B69     		ldr	r3, [r3, #16]
 1514 0038 124A     		ldr	r2, .L80
 1515 003a 43F01003 		orr	r3, r3, #16
 1516 003e 1361     		str	r3, [r2, #16]
1138:./Libraries/STM32F10x_StdPeriph_Driver/src/stm32f10x_flash.c ****            
1139:./Libraries/STM32F10x_StdPeriph_Driver/src/stm32f10x_flash.c ****     OB->USER = OB_IWDG | (uint16_t)(OB_STOP | (uint16_t)(OB_STDBY | ((uint16_t)0xF8))); 
ARM GAS  /tmp/ccE6739X.s 			page 47


 1517              		.loc 1 1139 14
 1518 0040 7A88     		ldrh	r2, [r7, #2]	@ movhi
 1519 0042 BB88     		ldrh	r3, [r7, #4]	@ movhi
 1520 0044 1343     		orrs	r3, r3, r2
 1521 0046 9AB2     		uxth	r2, r3
 1522 0048 FB88     		ldrh	r3, [r7, #6]	@ movhi
 1523 004a 1343     		orrs	r3, r3, r2
 1524 004c 9BB2     		uxth	r3, r3
 1525              		.loc 1 1139 7
 1526 004e 104A     		ldr	r2, .L80+12
 1527              		.loc 1 1139 14
 1528 0050 43F0F803 		orr	r3, r3, #248
 1529 0054 9BB2     		uxth	r3, r3
 1530 0056 5380     		strh	r3, [r2, #2]	@ movhi
1140:./Libraries/STM32F10x_StdPeriph_Driver/src/stm32f10x_flash.c ****   
1141:./Libraries/STM32F10x_StdPeriph_Driver/src/stm32f10x_flash.c ****     /* Wait for last operation to be completed */
1142:./Libraries/STM32F10x_StdPeriph_Driver/src/stm32f10x_flash.c ****     status = FLASH_WaitForLastOperation(ProgramTimeout);
 1531              		.loc 1 1142 14
 1532 0058 4FF40050 		mov	r0, #8192
 1533 005c FFF7FEFF 		bl	FLASH_WaitForLastOperation
 1534 0060 0346     		mov	r3, r0
 1535 0062 FB73     		strb	r3, [r7, #15]
1143:./Libraries/STM32F10x_StdPeriph_Driver/src/stm32f10x_flash.c ****     if(status != FLASH_TIMEOUT)
 1536              		.loc 1 1143 7
 1537 0064 FB7B     		ldrb	r3, [r7, #15]	@ zero_extendqisi2
 1538 0066 052B     		cmp	r3, #5
 1539 0068 06D0     		beq	.L78
1144:./Libraries/STM32F10x_StdPeriph_Driver/src/stm32f10x_flash.c ****     {
1145:./Libraries/STM32F10x_StdPeriph_Driver/src/stm32f10x_flash.c ****       /* if the program operation is completed, disable the OPTPG Bit */
1146:./Libraries/STM32F10x_StdPeriph_Driver/src/stm32f10x_flash.c ****       FLASH->CR &= CR_OPTPG_Reset;
 1540              		.loc 1 1146 17
 1541 006a 064B     		ldr	r3, .L80
 1542 006c 1A69     		ldr	r2, [r3, #16]
 1543 006e 0549     		ldr	r1, .L80
 1544 0070 41F6EF73 		movw	r3, #8175
 1545 0074 1340     		ands	r3, r3, r2
 1546 0076 0B61     		str	r3, [r1, #16]
 1547              	.L78:
1147:./Libraries/STM32F10x_StdPeriph_Driver/src/stm32f10x_flash.c ****     }
1148:./Libraries/STM32F10x_StdPeriph_Driver/src/stm32f10x_flash.c ****   }    
1149:./Libraries/STM32F10x_StdPeriph_Driver/src/stm32f10x_flash.c ****   /* Return the Option Byte program Status */
1150:./Libraries/STM32F10x_StdPeriph_Driver/src/stm32f10x_flash.c ****   return status;
 1548              		.loc 1 1150 10
 1549 0078 FB7B     		ldrb	r3, [r7, #15]	@ zero_extendqisi2
1151:./Libraries/STM32F10x_StdPeriph_Driver/src/stm32f10x_flash.c **** }
 1550              		.loc 1 1151 1
 1551 007a 1846     		mov	r0, r3
 1552 007c 1037     		adds	r7, r7, #16
 1553              	.LCFI82:
 1554              		.cfi_def_cfa_offset 8
 1555 007e BD46     		mov	sp, r7
 1556              	.LCFI83:
 1557              		.cfi_def_cfa_register 13
 1558              		@ sp needed
 1559 0080 80BD     		pop	{r7, pc}
 1560              	.L81:
 1561 0082 00BF     		.align	2
ARM GAS  /tmp/ccE6739X.s 			page 48


 1562              	.L80:
 1563 0084 00200240 		.word	1073881088
 1564 0088 23016745 		.word	1164378403
 1565 008c AB89EFCD 		.word	-839939669
 1566 0090 00F8FF1F 		.word	536868864
 1567              		.cfi_endproc
 1568              	.LFE45:
 1570              		.section	.text.FLASH_GetUserOptionByte,"ax",%progbits
 1571              		.align	1
 1572              		.global	FLASH_GetUserOptionByte
 1573              		.syntax unified
 1574              		.thumb
 1575              		.thumb_func
 1576              		.fpu softvfp
 1578              	FLASH_GetUserOptionByte:
 1579              	.LFB46:
1152:./Libraries/STM32F10x_StdPeriph_Driver/src/stm32f10x_flash.c **** 
1153:./Libraries/STM32F10x_StdPeriph_Driver/src/stm32f10x_flash.c **** #ifdef STM32F10X_XL
1154:./Libraries/STM32F10x_StdPeriph_Driver/src/stm32f10x_flash.c **** /**
1155:./Libraries/STM32F10x_StdPeriph_Driver/src/stm32f10x_flash.c ****   * @brief  Configures to boot from Bank1 or Bank2.  
1156:./Libraries/STM32F10x_StdPeriph_Driver/src/stm32f10x_flash.c ****   * @note   This function can be used only for STM32F10x_XL density devices.
1157:./Libraries/STM32F10x_StdPeriph_Driver/src/stm32f10x_flash.c ****   * @param  FLASH_BOOT: select the FLASH Bank to boot from.
1158:./Libraries/STM32F10x_StdPeriph_Driver/src/stm32f10x_flash.c ****   *   This parameter can be one of the following values:
1159:./Libraries/STM32F10x_StdPeriph_Driver/src/stm32f10x_flash.c ****   *     @arg FLASH_BOOT_Bank1: At startup, if boot pins are set in boot from user Flash
1160:./Libraries/STM32F10x_StdPeriph_Driver/src/stm32f10x_flash.c ****   *        position and this parameter is selected the device will boot from Bank1(Default).
1161:./Libraries/STM32F10x_StdPeriph_Driver/src/stm32f10x_flash.c ****   *     @arg FLASH_BOOT_Bank2: At startup, if boot pins are set in boot from user Flash
1162:./Libraries/STM32F10x_StdPeriph_Driver/src/stm32f10x_flash.c ****   *        position and this parameter is selected the device will boot from Bank2 or Bank1,
1163:./Libraries/STM32F10x_StdPeriph_Driver/src/stm32f10x_flash.c ****   *        depending on the activation of the bank. The active banks are checked in
1164:./Libraries/STM32F10x_StdPeriph_Driver/src/stm32f10x_flash.c ****   *        the following order: Bank2, followed by Bank1.
1165:./Libraries/STM32F10x_StdPeriph_Driver/src/stm32f10x_flash.c ****   *        The active bank is recognized by the value programmed at the base address
1166:./Libraries/STM32F10x_StdPeriph_Driver/src/stm32f10x_flash.c ****   *        of the respective bank (corresponding to the initial stack pointer value
1167:./Libraries/STM32F10x_StdPeriph_Driver/src/stm32f10x_flash.c ****   *        in the interrupt vector table).
1168:./Libraries/STM32F10x_StdPeriph_Driver/src/stm32f10x_flash.c ****   *        For more information, please refer to AN2606 from www.st.com.    
1169:./Libraries/STM32F10x_StdPeriph_Driver/src/stm32f10x_flash.c ****   * @retval FLASH Status: The returned value can be: FLASH_ERROR_PG, 
1170:./Libraries/STM32F10x_StdPeriph_Driver/src/stm32f10x_flash.c ****   *         FLASH_ERROR_WRP, FLASH_COMPLETE or FLASH_TIMEOUT.
1171:./Libraries/STM32F10x_StdPeriph_Driver/src/stm32f10x_flash.c ****   */
1172:./Libraries/STM32F10x_StdPeriph_Driver/src/stm32f10x_flash.c **** FLASH_Status FLASH_BootConfig(uint16_t FLASH_BOOT)
1173:./Libraries/STM32F10x_StdPeriph_Driver/src/stm32f10x_flash.c **** { 
1174:./Libraries/STM32F10x_StdPeriph_Driver/src/stm32f10x_flash.c ****   FLASH_Status status = FLASH_COMPLETE; 
1175:./Libraries/STM32F10x_StdPeriph_Driver/src/stm32f10x_flash.c ****   assert_param(IS_FLASH_BOOT(FLASH_BOOT));
1176:./Libraries/STM32F10x_StdPeriph_Driver/src/stm32f10x_flash.c ****   /* Authorize the small information block programming */
1177:./Libraries/STM32F10x_StdPeriph_Driver/src/stm32f10x_flash.c ****   FLASH->OPTKEYR = FLASH_KEY1;
1178:./Libraries/STM32F10x_StdPeriph_Driver/src/stm32f10x_flash.c ****   FLASH->OPTKEYR = FLASH_KEY2;
1179:./Libraries/STM32F10x_StdPeriph_Driver/src/stm32f10x_flash.c ****   
1180:./Libraries/STM32F10x_StdPeriph_Driver/src/stm32f10x_flash.c ****   /* Wait for last operation to be completed */
1181:./Libraries/STM32F10x_StdPeriph_Driver/src/stm32f10x_flash.c ****   status = FLASH_WaitForLastOperation(ProgramTimeout);
1182:./Libraries/STM32F10x_StdPeriph_Driver/src/stm32f10x_flash.c ****   
1183:./Libraries/STM32F10x_StdPeriph_Driver/src/stm32f10x_flash.c ****   if(status == FLASH_COMPLETE)
1184:./Libraries/STM32F10x_StdPeriph_Driver/src/stm32f10x_flash.c ****   {  
1185:./Libraries/STM32F10x_StdPeriph_Driver/src/stm32f10x_flash.c ****     /* Enable the Option Bytes Programming operation */
1186:./Libraries/STM32F10x_StdPeriph_Driver/src/stm32f10x_flash.c ****     FLASH->CR |= CR_OPTPG_Set; 
1187:./Libraries/STM32F10x_StdPeriph_Driver/src/stm32f10x_flash.c **** 
1188:./Libraries/STM32F10x_StdPeriph_Driver/src/stm32f10x_flash.c ****     if(FLASH_BOOT == FLASH_BOOT_Bank1)
1189:./Libraries/STM32F10x_StdPeriph_Driver/src/stm32f10x_flash.c ****     {
1190:./Libraries/STM32F10x_StdPeriph_Driver/src/stm32f10x_flash.c ****       OB->USER |= OB_USER_BFB2;
1191:./Libraries/STM32F10x_StdPeriph_Driver/src/stm32f10x_flash.c ****     }
1192:./Libraries/STM32F10x_StdPeriph_Driver/src/stm32f10x_flash.c ****     else
ARM GAS  /tmp/ccE6739X.s 			page 49


1193:./Libraries/STM32F10x_StdPeriph_Driver/src/stm32f10x_flash.c ****     {
1194:./Libraries/STM32F10x_StdPeriph_Driver/src/stm32f10x_flash.c ****       OB->USER &= (uint16_t)(~(uint16_t)(OB_USER_BFB2));
1195:./Libraries/STM32F10x_StdPeriph_Driver/src/stm32f10x_flash.c ****     }
1196:./Libraries/STM32F10x_StdPeriph_Driver/src/stm32f10x_flash.c ****     /* Wait for last operation to be completed */
1197:./Libraries/STM32F10x_StdPeriph_Driver/src/stm32f10x_flash.c ****     status = FLASH_WaitForLastOperation(ProgramTimeout);
1198:./Libraries/STM32F10x_StdPeriph_Driver/src/stm32f10x_flash.c ****     if(status != FLASH_TIMEOUT)
1199:./Libraries/STM32F10x_StdPeriph_Driver/src/stm32f10x_flash.c ****     {
1200:./Libraries/STM32F10x_StdPeriph_Driver/src/stm32f10x_flash.c ****       /* if the program operation is completed, disable the OPTPG Bit */
1201:./Libraries/STM32F10x_StdPeriph_Driver/src/stm32f10x_flash.c ****       FLASH->CR &= CR_OPTPG_Reset;
1202:./Libraries/STM32F10x_StdPeriph_Driver/src/stm32f10x_flash.c ****     }
1203:./Libraries/STM32F10x_StdPeriph_Driver/src/stm32f10x_flash.c ****   }    
1204:./Libraries/STM32F10x_StdPeriph_Driver/src/stm32f10x_flash.c ****   /* Return the Option Byte program Status */
1205:./Libraries/STM32F10x_StdPeriph_Driver/src/stm32f10x_flash.c ****   return status;
1206:./Libraries/STM32F10x_StdPeriph_Driver/src/stm32f10x_flash.c **** }
1207:./Libraries/STM32F10x_StdPeriph_Driver/src/stm32f10x_flash.c **** #endif /* STM32F10X_XL */
1208:./Libraries/STM32F10x_StdPeriph_Driver/src/stm32f10x_flash.c **** 
1209:./Libraries/STM32F10x_StdPeriph_Driver/src/stm32f10x_flash.c **** /**
1210:./Libraries/STM32F10x_StdPeriph_Driver/src/stm32f10x_flash.c ****   * @brief  Returns the FLASH User Option Bytes values.
1211:./Libraries/STM32F10x_StdPeriph_Driver/src/stm32f10x_flash.c ****   * @note   This function can be used for all STM32F10x devices.
1212:./Libraries/STM32F10x_StdPeriph_Driver/src/stm32f10x_flash.c ****   * @param  None
1213:./Libraries/STM32F10x_StdPeriph_Driver/src/stm32f10x_flash.c ****   * @retval The FLASH User Option Bytes values:IWDG_SW(Bit0), RST_STOP(Bit1)
1214:./Libraries/STM32F10x_StdPeriph_Driver/src/stm32f10x_flash.c ****   *         and RST_STDBY(Bit2).
1215:./Libraries/STM32F10x_StdPeriph_Driver/src/stm32f10x_flash.c ****   */
1216:./Libraries/STM32F10x_StdPeriph_Driver/src/stm32f10x_flash.c **** uint32_t FLASH_GetUserOptionByte(void)
1217:./Libraries/STM32F10x_StdPeriph_Driver/src/stm32f10x_flash.c **** {
 1580              		.loc 1 1217 1
 1581              		.cfi_startproc
 1582              		@ args = 0, pretend = 0, frame = 0
 1583              		@ frame_needed = 1, uses_anonymous_args = 0
 1584              		@ link register save eliminated.
 1585 0000 80B4     		push	{r7}
 1586              	.LCFI84:
 1587              		.cfi_def_cfa_offset 4
 1588              		.cfi_offset 7, -4
 1589 0002 00AF     		add	r7, sp, #0
 1590              	.LCFI85:
 1591              		.cfi_def_cfa_register 7
1218:./Libraries/STM32F10x_StdPeriph_Driver/src/stm32f10x_flash.c ****   /* Return the User Option Byte */
1219:./Libraries/STM32F10x_StdPeriph_Driver/src/stm32f10x_flash.c ****   return (uint32_t)(FLASH->OBR >> 2);
 1592              		.loc 1 1219 26
 1593 0004 034B     		ldr	r3, .L84
 1594 0006 DB69     		ldr	r3, [r3, #28]
 1595              		.loc 1 1219 10
 1596 0008 9B08     		lsrs	r3, r3, #2
1220:./Libraries/STM32F10x_StdPeriph_Driver/src/stm32f10x_flash.c **** }
 1597              		.loc 1 1220 1
 1598 000a 1846     		mov	r0, r3
 1599 000c BD46     		mov	sp, r7
 1600              	.LCFI86:
 1601              		.cfi_def_cfa_register 13
 1602              		@ sp needed
 1603 000e 80BC     		pop	{r7}
 1604              	.LCFI87:
 1605              		.cfi_restore 7
 1606              		.cfi_def_cfa_offset 0
 1607 0010 7047     		bx	lr
 1608              	.L85:
ARM GAS  /tmp/ccE6739X.s 			page 50


 1609 0012 00BF     		.align	2
 1610              	.L84:
 1611 0014 00200240 		.word	1073881088
 1612              		.cfi_endproc
 1613              	.LFE46:
 1615              		.section	.text.FLASH_GetWriteProtectionOptionByte,"ax",%progbits
 1616              		.align	1
 1617              		.global	FLASH_GetWriteProtectionOptionByte
 1618              		.syntax unified
 1619              		.thumb
 1620              		.thumb_func
 1621              		.fpu softvfp
 1623              	FLASH_GetWriteProtectionOptionByte:
 1624              	.LFB47:
1221:./Libraries/STM32F10x_StdPeriph_Driver/src/stm32f10x_flash.c **** 
1222:./Libraries/STM32F10x_StdPeriph_Driver/src/stm32f10x_flash.c **** /**
1223:./Libraries/STM32F10x_StdPeriph_Driver/src/stm32f10x_flash.c ****   * @brief  Returns the FLASH Write Protection Option Bytes Register value.
1224:./Libraries/STM32F10x_StdPeriph_Driver/src/stm32f10x_flash.c ****   * @note   This function can be used for all STM32F10x devices.
1225:./Libraries/STM32F10x_StdPeriph_Driver/src/stm32f10x_flash.c ****   * @param  None
1226:./Libraries/STM32F10x_StdPeriph_Driver/src/stm32f10x_flash.c ****   * @retval The FLASH Write Protection  Option Bytes Register value
1227:./Libraries/STM32F10x_StdPeriph_Driver/src/stm32f10x_flash.c ****   */
1228:./Libraries/STM32F10x_StdPeriph_Driver/src/stm32f10x_flash.c **** uint32_t FLASH_GetWriteProtectionOptionByte(void)
1229:./Libraries/STM32F10x_StdPeriph_Driver/src/stm32f10x_flash.c **** {
 1625              		.loc 1 1229 1
 1626              		.cfi_startproc
 1627              		@ args = 0, pretend = 0, frame = 0
 1628              		@ frame_needed = 1, uses_anonymous_args = 0
 1629              		@ link register save eliminated.
 1630 0000 80B4     		push	{r7}
 1631              	.LCFI88:
 1632              		.cfi_def_cfa_offset 4
 1633              		.cfi_offset 7, -4
 1634 0002 00AF     		add	r7, sp, #0
 1635              	.LCFI89:
 1636              		.cfi_def_cfa_register 7
1230:./Libraries/STM32F10x_StdPeriph_Driver/src/stm32f10x_flash.c ****   /* Return the Flash write protection Register value */
1231:./Libraries/STM32F10x_StdPeriph_Driver/src/stm32f10x_flash.c ****   return (uint32_t)(FLASH->WRPR);
 1637              		.loc 1 1231 26
 1638 0004 024B     		ldr	r3, .L88
 1639              		.loc 1 1231 10
 1640 0006 1B6A     		ldr	r3, [r3, #32]
1232:./Libraries/STM32F10x_StdPeriph_Driver/src/stm32f10x_flash.c **** }
 1641              		.loc 1 1232 1
 1642 0008 1846     		mov	r0, r3
 1643 000a BD46     		mov	sp, r7
 1644              	.LCFI90:
 1645              		.cfi_def_cfa_register 13
 1646              		@ sp needed
 1647 000c 80BC     		pop	{r7}
 1648              	.LCFI91:
 1649              		.cfi_restore 7
 1650              		.cfi_def_cfa_offset 0
 1651 000e 7047     		bx	lr
 1652              	.L89:
 1653              		.align	2
 1654              	.L88:
 1655 0010 00200240 		.word	1073881088
ARM GAS  /tmp/ccE6739X.s 			page 51


 1656              		.cfi_endproc
 1657              	.LFE47:
 1659              		.section	.text.FLASH_GetReadOutProtectionStatus,"ax",%progbits
 1660              		.align	1
 1661              		.global	FLASH_GetReadOutProtectionStatus
 1662              		.syntax unified
 1663              		.thumb
 1664              		.thumb_func
 1665              		.fpu softvfp
 1667              	FLASH_GetReadOutProtectionStatus:
 1668              	.LFB48:
1233:./Libraries/STM32F10x_StdPeriph_Driver/src/stm32f10x_flash.c **** 
1234:./Libraries/STM32F10x_StdPeriph_Driver/src/stm32f10x_flash.c **** /**
1235:./Libraries/STM32F10x_StdPeriph_Driver/src/stm32f10x_flash.c ****   * @brief  Checks whether the FLASH Read Out Protection Status is set or not.
1236:./Libraries/STM32F10x_StdPeriph_Driver/src/stm32f10x_flash.c ****   * @note   This function can be used for all STM32F10x devices.
1237:./Libraries/STM32F10x_StdPeriph_Driver/src/stm32f10x_flash.c ****   * @param  None
1238:./Libraries/STM32F10x_StdPeriph_Driver/src/stm32f10x_flash.c ****   * @retval FLASH ReadOut Protection Status(SET or RESET)
1239:./Libraries/STM32F10x_StdPeriph_Driver/src/stm32f10x_flash.c ****   */
1240:./Libraries/STM32F10x_StdPeriph_Driver/src/stm32f10x_flash.c **** FlagStatus FLASH_GetReadOutProtectionStatus(void)
1241:./Libraries/STM32F10x_StdPeriph_Driver/src/stm32f10x_flash.c **** {
 1669              		.loc 1 1241 1
 1670              		.cfi_startproc
 1671              		@ args = 0, pretend = 0, frame = 8
 1672              		@ frame_needed = 1, uses_anonymous_args = 0
 1673              		@ link register save eliminated.
 1674 0000 80B4     		push	{r7}
 1675              	.LCFI92:
 1676              		.cfi_def_cfa_offset 4
 1677              		.cfi_offset 7, -4
 1678 0002 83B0     		sub	sp, sp, #12
 1679              	.LCFI93:
 1680              		.cfi_def_cfa_offset 16
 1681 0004 00AF     		add	r7, sp, #0
 1682              	.LCFI94:
 1683              		.cfi_def_cfa_register 7
1242:./Libraries/STM32F10x_StdPeriph_Driver/src/stm32f10x_flash.c ****   FlagStatus readoutstatus = RESET;
 1684              		.loc 1 1242 14
 1685 0006 0023     		movs	r3, #0
 1686 0008 FB71     		strb	r3, [r7, #7]
1243:./Libraries/STM32F10x_StdPeriph_Driver/src/stm32f10x_flash.c ****   if ((FLASH->OBR & RDPRT_Mask) != (uint32_t)RESET)
 1687              		.loc 1 1243 13
 1688 000a 084B     		ldr	r3, .L94
 1689 000c DB69     		ldr	r3, [r3, #28]
 1690              		.loc 1 1243 19
 1691 000e 03F00203 		and	r3, r3, #2
 1692              		.loc 1 1243 6
 1693 0012 002B     		cmp	r3, #0
 1694 0014 02D0     		beq	.L91
1244:./Libraries/STM32F10x_StdPeriph_Driver/src/stm32f10x_flash.c ****   {
1245:./Libraries/STM32F10x_StdPeriph_Driver/src/stm32f10x_flash.c ****     readoutstatus = SET;
 1695              		.loc 1 1245 19
 1696 0016 0123     		movs	r3, #1
 1697 0018 FB71     		strb	r3, [r7, #7]
 1698 001a 01E0     		b	.L92
 1699              	.L91:
1246:./Libraries/STM32F10x_StdPeriph_Driver/src/stm32f10x_flash.c ****   }
1247:./Libraries/STM32F10x_StdPeriph_Driver/src/stm32f10x_flash.c ****   else
ARM GAS  /tmp/ccE6739X.s 			page 52


1248:./Libraries/STM32F10x_StdPeriph_Driver/src/stm32f10x_flash.c ****   {
1249:./Libraries/STM32F10x_StdPeriph_Driver/src/stm32f10x_flash.c ****     readoutstatus = RESET;
 1700              		.loc 1 1249 19
 1701 001c 0023     		movs	r3, #0
 1702 001e FB71     		strb	r3, [r7, #7]
 1703              	.L92:
1250:./Libraries/STM32F10x_StdPeriph_Driver/src/stm32f10x_flash.c ****   }
1251:./Libraries/STM32F10x_StdPeriph_Driver/src/stm32f10x_flash.c ****   return readoutstatus;
 1704              		.loc 1 1251 10
 1705 0020 FB79     		ldrb	r3, [r7, #7]	@ zero_extendqisi2
1252:./Libraries/STM32F10x_StdPeriph_Driver/src/stm32f10x_flash.c **** }
 1706              		.loc 1 1252 1
 1707 0022 1846     		mov	r0, r3
 1708 0024 0C37     		adds	r7, r7, #12
 1709              	.LCFI95:
 1710              		.cfi_def_cfa_offset 4
 1711 0026 BD46     		mov	sp, r7
 1712              	.LCFI96:
 1713              		.cfi_def_cfa_register 13
 1714              		@ sp needed
 1715 0028 80BC     		pop	{r7}
 1716              	.LCFI97:
 1717              		.cfi_restore 7
 1718              		.cfi_def_cfa_offset 0
 1719 002a 7047     		bx	lr
 1720              	.L95:
 1721              		.align	2
 1722              	.L94:
 1723 002c 00200240 		.word	1073881088
 1724              		.cfi_endproc
 1725              	.LFE48:
 1727              		.section	.text.FLASH_GetPrefetchBufferStatus,"ax",%progbits
 1728              		.align	1
 1729              		.global	FLASH_GetPrefetchBufferStatus
 1730              		.syntax unified
 1731              		.thumb
 1732              		.thumb_func
 1733              		.fpu softvfp
 1735              	FLASH_GetPrefetchBufferStatus:
 1736              	.LFB49:
1253:./Libraries/STM32F10x_StdPeriph_Driver/src/stm32f10x_flash.c **** 
1254:./Libraries/STM32F10x_StdPeriph_Driver/src/stm32f10x_flash.c **** /**
1255:./Libraries/STM32F10x_StdPeriph_Driver/src/stm32f10x_flash.c ****   * @brief  Checks whether the FLASH Prefetch Buffer status is set or not.
1256:./Libraries/STM32F10x_StdPeriph_Driver/src/stm32f10x_flash.c ****   * @note   This function can be used for all STM32F10x devices.
1257:./Libraries/STM32F10x_StdPeriph_Driver/src/stm32f10x_flash.c ****   * @param  None
1258:./Libraries/STM32F10x_StdPeriph_Driver/src/stm32f10x_flash.c ****   * @retval FLASH Prefetch Buffer Status (SET or RESET).
1259:./Libraries/STM32F10x_StdPeriph_Driver/src/stm32f10x_flash.c ****   */
1260:./Libraries/STM32F10x_StdPeriph_Driver/src/stm32f10x_flash.c **** FlagStatus FLASH_GetPrefetchBufferStatus(void)
1261:./Libraries/STM32F10x_StdPeriph_Driver/src/stm32f10x_flash.c **** {
 1737              		.loc 1 1261 1
 1738              		.cfi_startproc
 1739              		@ args = 0, pretend = 0, frame = 8
 1740              		@ frame_needed = 1, uses_anonymous_args = 0
 1741              		@ link register save eliminated.
 1742 0000 80B4     		push	{r7}
 1743              	.LCFI98:
 1744              		.cfi_def_cfa_offset 4
ARM GAS  /tmp/ccE6739X.s 			page 53


 1745              		.cfi_offset 7, -4
 1746 0002 83B0     		sub	sp, sp, #12
 1747              	.LCFI99:
 1748              		.cfi_def_cfa_offset 16
 1749 0004 00AF     		add	r7, sp, #0
 1750              	.LCFI100:
 1751              		.cfi_def_cfa_register 7
1262:./Libraries/STM32F10x_StdPeriph_Driver/src/stm32f10x_flash.c ****   FlagStatus bitstatus = RESET;
 1752              		.loc 1 1262 14
 1753 0006 0023     		movs	r3, #0
 1754 0008 FB71     		strb	r3, [r7, #7]
1263:./Libraries/STM32F10x_StdPeriph_Driver/src/stm32f10x_flash.c ****   
1264:./Libraries/STM32F10x_StdPeriph_Driver/src/stm32f10x_flash.c ****   if ((FLASH->ACR & ACR_PRFTBS_Mask) != (uint32_t)RESET)
 1755              		.loc 1 1264 13
 1756 000a 084B     		ldr	r3, .L100
 1757 000c 1B68     		ldr	r3, [r3]
 1758              		.loc 1 1264 19
 1759 000e 03F02003 		and	r3, r3, #32
 1760              		.loc 1 1264 6
 1761 0012 002B     		cmp	r3, #0
 1762 0014 02D0     		beq	.L97
1265:./Libraries/STM32F10x_StdPeriph_Driver/src/stm32f10x_flash.c ****   {
1266:./Libraries/STM32F10x_StdPeriph_Driver/src/stm32f10x_flash.c ****     bitstatus = SET;
 1763              		.loc 1 1266 15
 1764 0016 0123     		movs	r3, #1
 1765 0018 FB71     		strb	r3, [r7, #7]
 1766 001a 01E0     		b	.L98
 1767              	.L97:
1267:./Libraries/STM32F10x_StdPeriph_Driver/src/stm32f10x_flash.c ****   }
1268:./Libraries/STM32F10x_StdPeriph_Driver/src/stm32f10x_flash.c ****   else
1269:./Libraries/STM32F10x_StdPeriph_Driver/src/stm32f10x_flash.c ****   {
1270:./Libraries/STM32F10x_StdPeriph_Driver/src/stm32f10x_flash.c ****     bitstatus = RESET;
 1768              		.loc 1 1270 15
 1769 001c 0023     		movs	r3, #0
 1770 001e FB71     		strb	r3, [r7, #7]
 1771              	.L98:
1271:./Libraries/STM32F10x_StdPeriph_Driver/src/stm32f10x_flash.c ****   }
1272:./Libraries/STM32F10x_StdPeriph_Driver/src/stm32f10x_flash.c ****   /* Return the new state of FLASH Prefetch Buffer Status (SET or RESET) */
1273:./Libraries/STM32F10x_StdPeriph_Driver/src/stm32f10x_flash.c ****   return bitstatus; 
 1772              		.loc 1 1273 10
 1773 0020 FB79     		ldrb	r3, [r7, #7]	@ zero_extendqisi2
1274:./Libraries/STM32F10x_StdPeriph_Driver/src/stm32f10x_flash.c **** }
 1774              		.loc 1 1274 1
 1775 0022 1846     		mov	r0, r3
 1776 0024 0C37     		adds	r7, r7, #12
 1777              	.LCFI101:
 1778              		.cfi_def_cfa_offset 4
 1779 0026 BD46     		mov	sp, r7
 1780              	.LCFI102:
 1781              		.cfi_def_cfa_register 13
 1782              		@ sp needed
 1783 0028 80BC     		pop	{r7}
 1784              	.LCFI103:
 1785              		.cfi_restore 7
 1786              		.cfi_def_cfa_offset 0
 1787 002a 7047     		bx	lr
 1788              	.L101:
ARM GAS  /tmp/ccE6739X.s 			page 54


 1789              		.align	2
 1790              	.L100:
 1791 002c 00200240 		.word	1073881088
 1792              		.cfi_endproc
 1793              	.LFE49:
 1795              		.section	.text.FLASH_ITConfig,"ax",%progbits
 1796              		.align	1
 1797              		.global	FLASH_ITConfig
 1798              		.syntax unified
 1799              		.thumb
 1800              		.thumb_func
 1801              		.fpu softvfp
 1803              	FLASH_ITConfig:
 1804              	.LFB50:
1275:./Libraries/STM32F10x_StdPeriph_Driver/src/stm32f10x_flash.c **** 
1276:./Libraries/STM32F10x_StdPeriph_Driver/src/stm32f10x_flash.c **** /**
1277:./Libraries/STM32F10x_StdPeriph_Driver/src/stm32f10x_flash.c ****   * @brief  Enables or disables the specified FLASH interrupts.
1278:./Libraries/STM32F10x_StdPeriph_Driver/src/stm32f10x_flash.c ****   * @note   This function can be used for all STM32F10x devices.
1279:./Libraries/STM32F10x_StdPeriph_Driver/src/stm32f10x_flash.c ****   *         - For STM32F10X_XL devices, enables or disables the specified FLASH interrupts
1280:./Libraries/STM32F10x_StdPeriph_Driver/src/stm32f10x_flash.c ****               for Bank1 and Bank2.
1281:./Libraries/STM32F10x_StdPeriph_Driver/src/stm32f10x_flash.c ****   *         - For other devices it enables or disables the specified FLASH interrupts for Bank1.
1282:./Libraries/STM32F10x_StdPeriph_Driver/src/stm32f10x_flash.c ****   * @param  FLASH_IT: specifies the FLASH interrupt sources to be enabled or disabled.
1283:./Libraries/STM32F10x_StdPeriph_Driver/src/stm32f10x_flash.c ****   *   This parameter can be any combination of the following values:
1284:./Libraries/STM32F10x_StdPeriph_Driver/src/stm32f10x_flash.c ****   *     @arg FLASH_IT_ERROR: FLASH Error Interrupt
1285:./Libraries/STM32F10x_StdPeriph_Driver/src/stm32f10x_flash.c ****   *     @arg FLASH_IT_EOP: FLASH end of operation Interrupt
1286:./Libraries/STM32F10x_StdPeriph_Driver/src/stm32f10x_flash.c ****   * @param  NewState: new state of the specified Flash interrupts.
1287:./Libraries/STM32F10x_StdPeriph_Driver/src/stm32f10x_flash.c ****   *   This parameter can be: ENABLE or DISABLE.      
1288:./Libraries/STM32F10x_StdPeriph_Driver/src/stm32f10x_flash.c ****   * @retval None 
1289:./Libraries/STM32F10x_StdPeriph_Driver/src/stm32f10x_flash.c ****   */
1290:./Libraries/STM32F10x_StdPeriph_Driver/src/stm32f10x_flash.c **** void FLASH_ITConfig(uint32_t FLASH_IT, FunctionalState NewState)
1291:./Libraries/STM32F10x_StdPeriph_Driver/src/stm32f10x_flash.c **** {
 1805              		.loc 1 1291 1
 1806              		.cfi_startproc
 1807              		@ args = 0, pretend = 0, frame = 8
 1808              		@ frame_needed = 1, uses_anonymous_args = 0
 1809              		@ link register save eliminated.
 1810 0000 80B4     		push	{r7}
 1811              	.LCFI104:
 1812              		.cfi_def_cfa_offset 4
 1813              		.cfi_offset 7, -4
 1814 0002 83B0     		sub	sp, sp, #12
 1815              	.LCFI105:
 1816              		.cfi_def_cfa_offset 16
 1817 0004 00AF     		add	r7, sp, #0
 1818              	.LCFI106:
 1819              		.cfi_def_cfa_register 7
 1820 0006 7860     		str	r0, [r7, #4]
 1821 0008 0B46     		mov	r3, r1
 1822 000a FB70     		strb	r3, [r7, #3]
1292:./Libraries/STM32F10x_StdPeriph_Driver/src/stm32f10x_flash.c **** #ifdef STM32F10X_XL
1293:./Libraries/STM32F10x_StdPeriph_Driver/src/stm32f10x_flash.c ****   /* Check the parameters */
1294:./Libraries/STM32F10x_StdPeriph_Driver/src/stm32f10x_flash.c ****   assert_param(IS_FLASH_IT(FLASH_IT)); 
1295:./Libraries/STM32F10x_StdPeriph_Driver/src/stm32f10x_flash.c ****   assert_param(IS_FUNCTIONAL_STATE(NewState));
1296:./Libraries/STM32F10x_StdPeriph_Driver/src/stm32f10x_flash.c **** 
1297:./Libraries/STM32F10x_StdPeriph_Driver/src/stm32f10x_flash.c ****   if((FLASH_IT & 0x80000000) != 0x0)
1298:./Libraries/STM32F10x_StdPeriph_Driver/src/stm32f10x_flash.c ****   {
1299:./Libraries/STM32F10x_StdPeriph_Driver/src/stm32f10x_flash.c ****     if(NewState != DISABLE)
ARM GAS  /tmp/ccE6739X.s 			page 55


1300:./Libraries/STM32F10x_StdPeriph_Driver/src/stm32f10x_flash.c ****     {
1301:./Libraries/STM32F10x_StdPeriph_Driver/src/stm32f10x_flash.c ****       /* Enable the interrupt sources */
1302:./Libraries/STM32F10x_StdPeriph_Driver/src/stm32f10x_flash.c ****       FLASH->CR2 |= (FLASH_IT & 0x7FFFFFFF);
1303:./Libraries/STM32F10x_StdPeriph_Driver/src/stm32f10x_flash.c ****     }
1304:./Libraries/STM32F10x_StdPeriph_Driver/src/stm32f10x_flash.c ****     else
1305:./Libraries/STM32F10x_StdPeriph_Driver/src/stm32f10x_flash.c ****     {
1306:./Libraries/STM32F10x_StdPeriph_Driver/src/stm32f10x_flash.c ****       /* Disable the interrupt sources */
1307:./Libraries/STM32F10x_StdPeriph_Driver/src/stm32f10x_flash.c ****       FLASH->CR2 &= ~(uint32_t)(FLASH_IT & 0x7FFFFFFF);
1308:./Libraries/STM32F10x_StdPeriph_Driver/src/stm32f10x_flash.c ****     }
1309:./Libraries/STM32F10x_StdPeriph_Driver/src/stm32f10x_flash.c ****   }
1310:./Libraries/STM32F10x_StdPeriph_Driver/src/stm32f10x_flash.c ****   else
1311:./Libraries/STM32F10x_StdPeriph_Driver/src/stm32f10x_flash.c ****   {
1312:./Libraries/STM32F10x_StdPeriph_Driver/src/stm32f10x_flash.c ****     if(NewState != DISABLE)
1313:./Libraries/STM32F10x_StdPeriph_Driver/src/stm32f10x_flash.c ****     {
1314:./Libraries/STM32F10x_StdPeriph_Driver/src/stm32f10x_flash.c ****       /* Enable the interrupt sources */
1315:./Libraries/STM32F10x_StdPeriph_Driver/src/stm32f10x_flash.c ****       FLASH->CR |= FLASH_IT;
1316:./Libraries/STM32F10x_StdPeriph_Driver/src/stm32f10x_flash.c ****     }
1317:./Libraries/STM32F10x_StdPeriph_Driver/src/stm32f10x_flash.c ****     else
1318:./Libraries/STM32F10x_StdPeriph_Driver/src/stm32f10x_flash.c ****     {
1319:./Libraries/STM32F10x_StdPeriph_Driver/src/stm32f10x_flash.c ****       /* Disable the interrupt sources */
1320:./Libraries/STM32F10x_StdPeriph_Driver/src/stm32f10x_flash.c ****       FLASH->CR &= ~(uint32_t)FLASH_IT;
1321:./Libraries/STM32F10x_StdPeriph_Driver/src/stm32f10x_flash.c ****     }
1322:./Libraries/STM32F10x_StdPeriph_Driver/src/stm32f10x_flash.c ****   }
1323:./Libraries/STM32F10x_StdPeriph_Driver/src/stm32f10x_flash.c **** #else
1324:./Libraries/STM32F10x_StdPeriph_Driver/src/stm32f10x_flash.c ****   /* Check the parameters */
1325:./Libraries/STM32F10x_StdPeriph_Driver/src/stm32f10x_flash.c ****   assert_param(IS_FLASH_IT(FLASH_IT)); 
1326:./Libraries/STM32F10x_StdPeriph_Driver/src/stm32f10x_flash.c ****   assert_param(IS_FUNCTIONAL_STATE(NewState));
1327:./Libraries/STM32F10x_StdPeriph_Driver/src/stm32f10x_flash.c **** 
1328:./Libraries/STM32F10x_StdPeriph_Driver/src/stm32f10x_flash.c ****   if(NewState != DISABLE)
 1823              		.loc 1 1328 5
 1824 000c FB78     		ldrb	r3, [r7, #3]	@ zero_extendqisi2
 1825 000e 002B     		cmp	r3, #0
 1826 0010 06D0     		beq	.L103
1329:./Libraries/STM32F10x_StdPeriph_Driver/src/stm32f10x_flash.c ****   {
1330:./Libraries/STM32F10x_StdPeriph_Driver/src/stm32f10x_flash.c ****     /* Enable the interrupt sources */
1331:./Libraries/STM32F10x_StdPeriph_Driver/src/stm32f10x_flash.c ****     FLASH->CR |= FLASH_IT;
 1827              		.loc 1 1331 15
 1828 0012 094B     		ldr	r3, .L106
 1829 0014 1A69     		ldr	r2, [r3, #16]
 1830 0016 0849     		ldr	r1, .L106
 1831 0018 7B68     		ldr	r3, [r7, #4]
 1832 001a 1343     		orrs	r3, r3, r2
 1833 001c 0B61     		str	r3, [r1, #16]
1332:./Libraries/STM32F10x_StdPeriph_Driver/src/stm32f10x_flash.c ****   }
1333:./Libraries/STM32F10x_StdPeriph_Driver/src/stm32f10x_flash.c ****   else
1334:./Libraries/STM32F10x_StdPeriph_Driver/src/stm32f10x_flash.c ****   {
1335:./Libraries/STM32F10x_StdPeriph_Driver/src/stm32f10x_flash.c ****     /* Disable the interrupt sources */
1336:./Libraries/STM32F10x_StdPeriph_Driver/src/stm32f10x_flash.c ****     FLASH->CR &= ~(uint32_t)FLASH_IT;
1337:./Libraries/STM32F10x_StdPeriph_Driver/src/stm32f10x_flash.c ****   }
1338:./Libraries/STM32F10x_StdPeriph_Driver/src/stm32f10x_flash.c **** #endif /* STM32F10X_XL */
1339:./Libraries/STM32F10x_StdPeriph_Driver/src/stm32f10x_flash.c **** }
 1834              		.loc 1 1339 1
 1835 001e 06E0     		b	.L105
 1836              	.L103:
1336:./Libraries/STM32F10x_StdPeriph_Driver/src/stm32f10x_flash.c ****   }
 1837              		.loc 1 1336 15
 1838 0020 054B     		ldr	r3, .L106
ARM GAS  /tmp/ccE6739X.s 			page 56


 1839 0022 1A69     		ldr	r2, [r3, #16]
1336:./Libraries/STM32F10x_StdPeriph_Driver/src/stm32f10x_flash.c ****   }
 1840              		.loc 1 1336 18
 1841 0024 7B68     		ldr	r3, [r7, #4]
 1842 0026 DB43     		mvns	r3, r3
1336:./Libraries/STM32F10x_StdPeriph_Driver/src/stm32f10x_flash.c ****   }
 1843              		.loc 1 1336 15
 1844 0028 0349     		ldr	r1, .L106
 1845 002a 1340     		ands	r3, r3, r2
 1846 002c 0B61     		str	r3, [r1, #16]
 1847              	.L105:
 1848              		.loc 1 1339 1
 1849 002e 00BF     		nop
 1850 0030 0C37     		adds	r7, r7, #12
 1851              	.LCFI107:
 1852              		.cfi_def_cfa_offset 4
 1853 0032 BD46     		mov	sp, r7
 1854              	.LCFI108:
 1855              		.cfi_def_cfa_register 13
 1856              		@ sp needed
 1857 0034 80BC     		pop	{r7}
 1858              	.LCFI109:
 1859              		.cfi_restore 7
 1860              		.cfi_def_cfa_offset 0
 1861 0036 7047     		bx	lr
 1862              	.L107:
 1863              		.align	2
 1864              	.L106:
 1865 0038 00200240 		.word	1073881088
 1866              		.cfi_endproc
 1867              	.LFE50:
 1869              		.section	.text.FLASH_GetFlagStatus,"ax",%progbits
 1870              		.align	1
 1871              		.global	FLASH_GetFlagStatus
 1872              		.syntax unified
 1873              		.thumb
 1874              		.thumb_func
 1875              		.fpu softvfp
 1877              	FLASH_GetFlagStatus:
 1878              	.LFB51:
1340:./Libraries/STM32F10x_StdPeriph_Driver/src/stm32f10x_flash.c **** 
1341:./Libraries/STM32F10x_StdPeriph_Driver/src/stm32f10x_flash.c **** /**
1342:./Libraries/STM32F10x_StdPeriph_Driver/src/stm32f10x_flash.c ****   * @brief  Checks whether the specified FLASH flag is set or not.
1343:./Libraries/STM32F10x_StdPeriph_Driver/src/stm32f10x_flash.c ****   * @note   This function can be used for all STM32F10x devices.
1344:./Libraries/STM32F10x_StdPeriph_Driver/src/stm32f10x_flash.c ****   *         - For STM32F10X_XL devices, this function checks whether the specified 
1345:./Libraries/STM32F10x_StdPeriph_Driver/src/stm32f10x_flash.c ****   *           Bank1 or Bank2 flag is set or not.
1346:./Libraries/STM32F10x_StdPeriph_Driver/src/stm32f10x_flash.c ****   *         - For other devices, it checks whether the specified Bank1 flag is 
1347:./Libraries/STM32F10x_StdPeriph_Driver/src/stm32f10x_flash.c ****   *           set or not.
1348:./Libraries/STM32F10x_StdPeriph_Driver/src/stm32f10x_flash.c ****   * @param  FLASH_FLAG: specifies the FLASH flag to check.
1349:./Libraries/STM32F10x_StdPeriph_Driver/src/stm32f10x_flash.c ****   *   This parameter can be one of the following values:
1350:./Libraries/STM32F10x_StdPeriph_Driver/src/stm32f10x_flash.c ****   *     @arg FLASH_FLAG_BSY: FLASH Busy flag           
1351:./Libraries/STM32F10x_StdPeriph_Driver/src/stm32f10x_flash.c ****   *     @arg FLASH_FLAG_PGERR: FLASH Program error flag       
1352:./Libraries/STM32F10x_StdPeriph_Driver/src/stm32f10x_flash.c ****   *     @arg FLASH_FLAG_WRPRTERR: FLASH Write protected error flag      
1353:./Libraries/STM32F10x_StdPeriph_Driver/src/stm32f10x_flash.c ****   *     @arg FLASH_FLAG_EOP: FLASH End of Operation flag           
1354:./Libraries/STM32F10x_StdPeriph_Driver/src/stm32f10x_flash.c ****   *     @arg FLASH_FLAG_OPTERR:  FLASH Option Byte error flag     
1355:./Libraries/STM32F10x_StdPeriph_Driver/src/stm32f10x_flash.c ****   * @retval The new state of FLASH_FLAG (SET or RESET).
1356:./Libraries/STM32F10x_StdPeriph_Driver/src/stm32f10x_flash.c ****   */
ARM GAS  /tmp/ccE6739X.s 			page 57


1357:./Libraries/STM32F10x_StdPeriph_Driver/src/stm32f10x_flash.c **** FlagStatus FLASH_GetFlagStatus(uint32_t FLASH_FLAG)
1358:./Libraries/STM32F10x_StdPeriph_Driver/src/stm32f10x_flash.c **** {
 1879              		.loc 1 1358 1
 1880              		.cfi_startproc
 1881              		@ args = 0, pretend = 0, frame = 16
 1882              		@ frame_needed = 1, uses_anonymous_args = 0
 1883              		@ link register save eliminated.
 1884 0000 80B4     		push	{r7}
 1885              	.LCFI110:
 1886              		.cfi_def_cfa_offset 4
 1887              		.cfi_offset 7, -4
 1888 0002 85B0     		sub	sp, sp, #20
 1889              	.LCFI111:
 1890              		.cfi_def_cfa_offset 24
 1891 0004 00AF     		add	r7, sp, #0
 1892              	.LCFI112:
 1893              		.cfi_def_cfa_register 7
 1894 0006 7860     		str	r0, [r7, #4]
1359:./Libraries/STM32F10x_StdPeriph_Driver/src/stm32f10x_flash.c ****   FlagStatus bitstatus = RESET;
 1895              		.loc 1 1359 14
 1896 0008 0023     		movs	r3, #0
 1897 000a FB73     		strb	r3, [r7, #15]
1360:./Libraries/STM32F10x_StdPeriph_Driver/src/stm32f10x_flash.c **** 
1361:./Libraries/STM32F10x_StdPeriph_Driver/src/stm32f10x_flash.c **** #ifdef STM32F10X_XL
1362:./Libraries/STM32F10x_StdPeriph_Driver/src/stm32f10x_flash.c ****   /* Check the parameters */
1363:./Libraries/STM32F10x_StdPeriph_Driver/src/stm32f10x_flash.c ****   assert_param(IS_FLASH_GET_FLAG(FLASH_FLAG)) ;
1364:./Libraries/STM32F10x_StdPeriph_Driver/src/stm32f10x_flash.c ****   if(FLASH_FLAG == FLASH_FLAG_OPTERR) 
1365:./Libraries/STM32F10x_StdPeriph_Driver/src/stm32f10x_flash.c ****   {
1366:./Libraries/STM32F10x_StdPeriph_Driver/src/stm32f10x_flash.c ****     if((FLASH->OBR & FLASH_FLAG_OPTERR) != (uint32_t)RESET)
1367:./Libraries/STM32F10x_StdPeriph_Driver/src/stm32f10x_flash.c ****     {
1368:./Libraries/STM32F10x_StdPeriph_Driver/src/stm32f10x_flash.c ****       bitstatus = SET;
1369:./Libraries/STM32F10x_StdPeriph_Driver/src/stm32f10x_flash.c ****     }
1370:./Libraries/STM32F10x_StdPeriph_Driver/src/stm32f10x_flash.c ****     else
1371:./Libraries/STM32F10x_StdPeriph_Driver/src/stm32f10x_flash.c ****     {
1372:./Libraries/STM32F10x_StdPeriph_Driver/src/stm32f10x_flash.c ****       bitstatus = RESET;
1373:./Libraries/STM32F10x_StdPeriph_Driver/src/stm32f10x_flash.c ****     }
1374:./Libraries/STM32F10x_StdPeriph_Driver/src/stm32f10x_flash.c ****   }
1375:./Libraries/STM32F10x_StdPeriph_Driver/src/stm32f10x_flash.c ****   else
1376:./Libraries/STM32F10x_StdPeriph_Driver/src/stm32f10x_flash.c ****   {
1377:./Libraries/STM32F10x_StdPeriph_Driver/src/stm32f10x_flash.c ****     if((FLASH_FLAG & 0x80000000) != 0x0)
1378:./Libraries/STM32F10x_StdPeriph_Driver/src/stm32f10x_flash.c ****     {
1379:./Libraries/STM32F10x_StdPeriph_Driver/src/stm32f10x_flash.c ****       if((FLASH->SR2 & FLASH_FLAG) != (uint32_t)RESET)
1380:./Libraries/STM32F10x_StdPeriph_Driver/src/stm32f10x_flash.c ****       {
1381:./Libraries/STM32F10x_StdPeriph_Driver/src/stm32f10x_flash.c ****         bitstatus = SET;
1382:./Libraries/STM32F10x_StdPeriph_Driver/src/stm32f10x_flash.c ****       }
1383:./Libraries/STM32F10x_StdPeriph_Driver/src/stm32f10x_flash.c ****       else
1384:./Libraries/STM32F10x_StdPeriph_Driver/src/stm32f10x_flash.c ****       {
1385:./Libraries/STM32F10x_StdPeriph_Driver/src/stm32f10x_flash.c ****         bitstatus = RESET;
1386:./Libraries/STM32F10x_StdPeriph_Driver/src/stm32f10x_flash.c ****       }
1387:./Libraries/STM32F10x_StdPeriph_Driver/src/stm32f10x_flash.c ****     }
1388:./Libraries/STM32F10x_StdPeriph_Driver/src/stm32f10x_flash.c ****     else
1389:./Libraries/STM32F10x_StdPeriph_Driver/src/stm32f10x_flash.c ****     {
1390:./Libraries/STM32F10x_StdPeriph_Driver/src/stm32f10x_flash.c ****       if((FLASH->SR & FLASH_FLAG) != (uint32_t)RESET)
1391:./Libraries/STM32F10x_StdPeriph_Driver/src/stm32f10x_flash.c ****       {
1392:./Libraries/STM32F10x_StdPeriph_Driver/src/stm32f10x_flash.c ****         bitstatus = SET;
1393:./Libraries/STM32F10x_StdPeriph_Driver/src/stm32f10x_flash.c ****       }
1394:./Libraries/STM32F10x_StdPeriph_Driver/src/stm32f10x_flash.c ****       else
ARM GAS  /tmp/ccE6739X.s 			page 58


1395:./Libraries/STM32F10x_StdPeriph_Driver/src/stm32f10x_flash.c ****       {
1396:./Libraries/STM32F10x_StdPeriph_Driver/src/stm32f10x_flash.c ****         bitstatus = RESET;
1397:./Libraries/STM32F10x_StdPeriph_Driver/src/stm32f10x_flash.c ****       }
1398:./Libraries/STM32F10x_StdPeriph_Driver/src/stm32f10x_flash.c ****     }
1399:./Libraries/STM32F10x_StdPeriph_Driver/src/stm32f10x_flash.c ****   }
1400:./Libraries/STM32F10x_StdPeriph_Driver/src/stm32f10x_flash.c **** #else
1401:./Libraries/STM32F10x_StdPeriph_Driver/src/stm32f10x_flash.c ****   /* Check the parameters */
1402:./Libraries/STM32F10x_StdPeriph_Driver/src/stm32f10x_flash.c ****   assert_param(IS_FLASH_GET_FLAG(FLASH_FLAG)) ;
1403:./Libraries/STM32F10x_StdPeriph_Driver/src/stm32f10x_flash.c ****   if(FLASH_FLAG == FLASH_FLAG_OPTERR) 
 1898              		.loc 1 1403 5
 1899 000c 7B68     		ldr	r3, [r7, #4]
 1900 000e 012B     		cmp	r3, #1
 1901 0010 0BD1     		bne	.L109
1404:./Libraries/STM32F10x_StdPeriph_Driver/src/stm32f10x_flash.c ****   {
1405:./Libraries/STM32F10x_StdPeriph_Driver/src/stm32f10x_flash.c ****     if((FLASH->OBR & FLASH_FLAG_OPTERR) != (uint32_t)RESET)
 1902              		.loc 1 1405 14
 1903 0012 0E4B     		ldr	r3, .L114
 1904 0014 DB69     		ldr	r3, [r3, #28]
 1905              		.loc 1 1405 20
 1906 0016 03F00103 		and	r3, r3, #1
 1907              		.loc 1 1405 7
 1908 001a 002B     		cmp	r3, #0
 1909 001c 02D0     		beq	.L110
1406:./Libraries/STM32F10x_StdPeriph_Driver/src/stm32f10x_flash.c ****     {
1407:./Libraries/STM32F10x_StdPeriph_Driver/src/stm32f10x_flash.c ****       bitstatus = SET;
 1910              		.loc 1 1407 17
 1911 001e 0123     		movs	r3, #1
 1912 0020 FB73     		strb	r3, [r7, #15]
 1913 0022 0DE0     		b	.L111
 1914              	.L110:
1408:./Libraries/STM32F10x_StdPeriph_Driver/src/stm32f10x_flash.c ****     }
1409:./Libraries/STM32F10x_StdPeriph_Driver/src/stm32f10x_flash.c ****     else
1410:./Libraries/STM32F10x_StdPeriph_Driver/src/stm32f10x_flash.c ****     {
1411:./Libraries/STM32F10x_StdPeriph_Driver/src/stm32f10x_flash.c ****       bitstatus = RESET;
 1915              		.loc 1 1411 17
 1916 0024 0023     		movs	r3, #0
 1917 0026 FB73     		strb	r3, [r7, #15]
 1918 0028 0AE0     		b	.L111
 1919              	.L109:
1412:./Libraries/STM32F10x_StdPeriph_Driver/src/stm32f10x_flash.c ****     }
1413:./Libraries/STM32F10x_StdPeriph_Driver/src/stm32f10x_flash.c ****   }
1414:./Libraries/STM32F10x_StdPeriph_Driver/src/stm32f10x_flash.c ****   else
1415:./Libraries/STM32F10x_StdPeriph_Driver/src/stm32f10x_flash.c ****   {
1416:./Libraries/STM32F10x_StdPeriph_Driver/src/stm32f10x_flash.c ****    if((FLASH->SR & FLASH_FLAG) != (uint32_t)RESET)
 1920              		.loc 1 1416 13
 1921 002a 084B     		ldr	r3, .L114
 1922 002c DA68     		ldr	r2, [r3, #12]
 1923              		.loc 1 1416 18
 1924 002e 7B68     		ldr	r3, [r7, #4]
 1925 0030 1340     		ands	r3, r3, r2
 1926              		.loc 1 1416 6
 1927 0032 002B     		cmp	r3, #0
 1928 0034 02D0     		beq	.L112
1417:./Libraries/STM32F10x_StdPeriph_Driver/src/stm32f10x_flash.c ****     {
1418:./Libraries/STM32F10x_StdPeriph_Driver/src/stm32f10x_flash.c ****       bitstatus = SET;
 1929              		.loc 1 1418 17
 1930 0036 0123     		movs	r3, #1
ARM GAS  /tmp/ccE6739X.s 			page 59


 1931 0038 FB73     		strb	r3, [r7, #15]
 1932 003a 01E0     		b	.L111
 1933              	.L112:
1419:./Libraries/STM32F10x_StdPeriph_Driver/src/stm32f10x_flash.c ****     }
1420:./Libraries/STM32F10x_StdPeriph_Driver/src/stm32f10x_flash.c ****     else
1421:./Libraries/STM32F10x_StdPeriph_Driver/src/stm32f10x_flash.c ****     {
1422:./Libraries/STM32F10x_StdPeriph_Driver/src/stm32f10x_flash.c ****       bitstatus = RESET;
 1934              		.loc 1 1422 17
 1935 003c 0023     		movs	r3, #0
 1936 003e FB73     		strb	r3, [r7, #15]
 1937              	.L111:
1423:./Libraries/STM32F10x_StdPeriph_Driver/src/stm32f10x_flash.c ****     }
1424:./Libraries/STM32F10x_StdPeriph_Driver/src/stm32f10x_flash.c ****   }
1425:./Libraries/STM32F10x_StdPeriph_Driver/src/stm32f10x_flash.c **** #endif /* STM32F10X_XL */
1426:./Libraries/STM32F10x_StdPeriph_Driver/src/stm32f10x_flash.c **** 
1427:./Libraries/STM32F10x_StdPeriph_Driver/src/stm32f10x_flash.c ****   /* Return the new state of FLASH_FLAG (SET or RESET) */
1428:./Libraries/STM32F10x_StdPeriph_Driver/src/stm32f10x_flash.c ****   return bitstatus;
 1938              		.loc 1 1428 10
 1939 0040 FB7B     		ldrb	r3, [r7, #15]	@ zero_extendqisi2
1429:./Libraries/STM32F10x_StdPeriph_Driver/src/stm32f10x_flash.c **** }
 1940              		.loc 1 1429 1
 1941 0042 1846     		mov	r0, r3
 1942 0044 1437     		adds	r7, r7, #20
 1943              	.LCFI113:
 1944              		.cfi_def_cfa_offset 4
 1945 0046 BD46     		mov	sp, r7
 1946              	.LCFI114:
 1947              		.cfi_def_cfa_register 13
 1948              		@ sp needed
 1949 0048 80BC     		pop	{r7}
 1950              	.LCFI115:
 1951              		.cfi_restore 7
 1952              		.cfi_def_cfa_offset 0
 1953 004a 7047     		bx	lr
 1954              	.L115:
 1955              		.align	2
 1956              	.L114:
 1957 004c 00200240 		.word	1073881088
 1958              		.cfi_endproc
 1959              	.LFE51:
 1961              		.section	.text.FLASH_ClearFlag,"ax",%progbits
 1962              		.align	1
 1963              		.global	FLASH_ClearFlag
 1964              		.syntax unified
 1965              		.thumb
 1966              		.thumb_func
 1967              		.fpu softvfp
 1969              	FLASH_ClearFlag:
 1970              	.LFB52:
1430:./Libraries/STM32F10x_StdPeriph_Driver/src/stm32f10x_flash.c **** 
1431:./Libraries/STM32F10x_StdPeriph_Driver/src/stm32f10x_flash.c **** /**
1432:./Libraries/STM32F10x_StdPeriph_Driver/src/stm32f10x_flash.c ****   * @brief  Clears the FLASH's pending flags.
1433:./Libraries/STM32F10x_StdPeriph_Driver/src/stm32f10x_flash.c ****   * @note   This function can be used for all STM32F10x devices.
1434:./Libraries/STM32F10x_StdPeriph_Driver/src/stm32f10x_flash.c ****   *         - For STM32F10X_XL devices, this function clears Bank1 or Bank2s pending flags
1435:./Libraries/STM32F10x_StdPeriph_Driver/src/stm32f10x_flash.c ****   *         - For other devices, it clears Bank1s pending flags.
1436:./Libraries/STM32F10x_StdPeriph_Driver/src/stm32f10x_flash.c ****   * @param  FLASH_FLAG: specifies the FLASH flags to clear.
1437:./Libraries/STM32F10x_StdPeriph_Driver/src/stm32f10x_flash.c ****   *   This parameter can be any combination of the following values:         
ARM GAS  /tmp/ccE6739X.s 			page 60


1438:./Libraries/STM32F10x_StdPeriph_Driver/src/stm32f10x_flash.c ****   *     @arg FLASH_FLAG_PGERR: FLASH Program error flag       
1439:./Libraries/STM32F10x_StdPeriph_Driver/src/stm32f10x_flash.c ****   *     @arg FLASH_FLAG_WRPRTERR: FLASH Write protected error flag      
1440:./Libraries/STM32F10x_StdPeriph_Driver/src/stm32f10x_flash.c ****   *     @arg FLASH_FLAG_EOP: FLASH End of Operation flag           
1441:./Libraries/STM32F10x_StdPeriph_Driver/src/stm32f10x_flash.c ****   * @retval None
1442:./Libraries/STM32F10x_StdPeriph_Driver/src/stm32f10x_flash.c ****   */
1443:./Libraries/STM32F10x_StdPeriph_Driver/src/stm32f10x_flash.c **** void FLASH_ClearFlag(uint32_t FLASH_FLAG)
1444:./Libraries/STM32F10x_StdPeriph_Driver/src/stm32f10x_flash.c **** {
 1971              		.loc 1 1444 1
 1972              		.cfi_startproc
 1973              		@ args = 0, pretend = 0, frame = 8
 1974              		@ frame_needed = 1, uses_anonymous_args = 0
 1975              		@ link register save eliminated.
 1976 0000 80B4     		push	{r7}
 1977              	.LCFI116:
 1978              		.cfi_def_cfa_offset 4
 1979              		.cfi_offset 7, -4
 1980 0002 83B0     		sub	sp, sp, #12
 1981              	.LCFI117:
 1982              		.cfi_def_cfa_offset 16
 1983 0004 00AF     		add	r7, sp, #0
 1984              	.LCFI118:
 1985              		.cfi_def_cfa_register 7
 1986 0006 7860     		str	r0, [r7, #4]
1445:./Libraries/STM32F10x_StdPeriph_Driver/src/stm32f10x_flash.c **** #ifdef STM32F10X_XL
1446:./Libraries/STM32F10x_StdPeriph_Driver/src/stm32f10x_flash.c ****   /* Check the parameters */
1447:./Libraries/STM32F10x_StdPeriph_Driver/src/stm32f10x_flash.c ****   assert_param(IS_FLASH_CLEAR_FLAG(FLASH_FLAG)) ;
1448:./Libraries/STM32F10x_StdPeriph_Driver/src/stm32f10x_flash.c **** 
1449:./Libraries/STM32F10x_StdPeriph_Driver/src/stm32f10x_flash.c ****   if((FLASH_FLAG & 0x80000000) != 0x0)
1450:./Libraries/STM32F10x_StdPeriph_Driver/src/stm32f10x_flash.c ****   {
1451:./Libraries/STM32F10x_StdPeriph_Driver/src/stm32f10x_flash.c ****     /* Clear the flags */
1452:./Libraries/STM32F10x_StdPeriph_Driver/src/stm32f10x_flash.c ****     FLASH->SR2 = FLASH_FLAG;
1453:./Libraries/STM32F10x_StdPeriph_Driver/src/stm32f10x_flash.c ****   }
1454:./Libraries/STM32F10x_StdPeriph_Driver/src/stm32f10x_flash.c ****   else
1455:./Libraries/STM32F10x_StdPeriph_Driver/src/stm32f10x_flash.c ****   {
1456:./Libraries/STM32F10x_StdPeriph_Driver/src/stm32f10x_flash.c ****     /* Clear the flags */
1457:./Libraries/STM32F10x_StdPeriph_Driver/src/stm32f10x_flash.c ****     FLASH->SR = FLASH_FLAG;
1458:./Libraries/STM32F10x_StdPeriph_Driver/src/stm32f10x_flash.c ****   }  
1459:./Libraries/STM32F10x_StdPeriph_Driver/src/stm32f10x_flash.c **** 
1460:./Libraries/STM32F10x_StdPeriph_Driver/src/stm32f10x_flash.c **** #else
1461:./Libraries/STM32F10x_StdPeriph_Driver/src/stm32f10x_flash.c ****   /* Check the parameters */
1462:./Libraries/STM32F10x_StdPeriph_Driver/src/stm32f10x_flash.c ****   assert_param(IS_FLASH_CLEAR_FLAG(FLASH_FLAG)) ;
1463:./Libraries/STM32F10x_StdPeriph_Driver/src/stm32f10x_flash.c ****   
1464:./Libraries/STM32F10x_StdPeriph_Driver/src/stm32f10x_flash.c ****   /* Clear the flags */
1465:./Libraries/STM32F10x_StdPeriph_Driver/src/stm32f10x_flash.c ****   FLASH->SR = FLASH_FLAG;
 1987              		.loc 1 1465 8
 1988 0008 034A     		ldr	r2, .L117
 1989              		.loc 1 1465 13
 1990 000a 7B68     		ldr	r3, [r7, #4]
 1991 000c D360     		str	r3, [r2, #12]
1466:./Libraries/STM32F10x_StdPeriph_Driver/src/stm32f10x_flash.c **** #endif /* STM32F10X_XL */
1467:./Libraries/STM32F10x_StdPeriph_Driver/src/stm32f10x_flash.c **** }
 1992              		.loc 1 1467 1
 1993 000e 00BF     		nop
 1994 0010 0C37     		adds	r7, r7, #12
 1995              	.LCFI119:
 1996              		.cfi_def_cfa_offset 4
 1997 0012 BD46     		mov	sp, r7
ARM GAS  /tmp/ccE6739X.s 			page 61


 1998              	.LCFI120:
 1999              		.cfi_def_cfa_register 13
 2000              		@ sp needed
 2001 0014 80BC     		pop	{r7}
 2002              	.LCFI121:
 2003              		.cfi_restore 7
 2004              		.cfi_def_cfa_offset 0
 2005 0016 7047     		bx	lr
 2006              	.L118:
 2007              		.align	2
 2008              	.L117:
 2009 0018 00200240 		.word	1073881088
 2010              		.cfi_endproc
 2011              	.LFE52:
 2013              		.section	.text.FLASH_GetStatus,"ax",%progbits
 2014              		.align	1
 2015              		.global	FLASH_GetStatus
 2016              		.syntax unified
 2017              		.thumb
 2018              		.thumb_func
 2019              		.fpu softvfp
 2021              	FLASH_GetStatus:
 2022              	.LFB53:
1468:./Libraries/STM32F10x_StdPeriph_Driver/src/stm32f10x_flash.c **** 
1469:./Libraries/STM32F10x_StdPeriph_Driver/src/stm32f10x_flash.c **** /**
1470:./Libraries/STM32F10x_StdPeriph_Driver/src/stm32f10x_flash.c ****   * @brief  Returns the FLASH Status.
1471:./Libraries/STM32F10x_StdPeriph_Driver/src/stm32f10x_flash.c ****   * @note   This function can be used for all STM32F10x devices, it is equivalent
1472:./Libraries/STM32F10x_StdPeriph_Driver/src/stm32f10x_flash.c ****   *         to FLASH_GetBank1Status function.
1473:./Libraries/STM32F10x_StdPeriph_Driver/src/stm32f10x_flash.c ****   * @param  None
1474:./Libraries/STM32F10x_StdPeriph_Driver/src/stm32f10x_flash.c ****   * @retval FLASH Status: The returned value can be: FLASH_BUSY, FLASH_ERROR_PG,
1475:./Libraries/STM32F10x_StdPeriph_Driver/src/stm32f10x_flash.c ****   *         FLASH_ERROR_WRP or FLASH_COMPLETE
1476:./Libraries/STM32F10x_StdPeriph_Driver/src/stm32f10x_flash.c ****   */
1477:./Libraries/STM32F10x_StdPeriph_Driver/src/stm32f10x_flash.c **** FLASH_Status FLASH_GetStatus(void)
1478:./Libraries/STM32F10x_StdPeriph_Driver/src/stm32f10x_flash.c **** {
 2023              		.loc 1 1478 1
 2024              		.cfi_startproc
 2025              		@ args = 0, pretend = 0, frame = 8
 2026              		@ frame_needed = 1, uses_anonymous_args = 0
 2027              		@ link register save eliminated.
 2028 0000 80B4     		push	{r7}
 2029              	.LCFI122:
 2030              		.cfi_def_cfa_offset 4
 2031              		.cfi_offset 7, -4
 2032 0002 83B0     		sub	sp, sp, #12
 2033              	.LCFI123:
 2034              		.cfi_def_cfa_offset 16
 2035 0004 00AF     		add	r7, sp, #0
 2036              	.LCFI124:
 2037              		.cfi_def_cfa_register 7
1479:./Libraries/STM32F10x_StdPeriph_Driver/src/stm32f10x_flash.c ****   FLASH_Status flashstatus = FLASH_COMPLETE;
 2038              		.loc 1 1479 16
 2039 0006 0423     		movs	r3, #4
 2040 0008 FB71     		strb	r3, [r7, #7]
1480:./Libraries/STM32F10x_StdPeriph_Driver/src/stm32f10x_flash.c ****   
1481:./Libraries/STM32F10x_StdPeriph_Driver/src/stm32f10x_flash.c ****   if((FLASH->SR & FLASH_FLAG_BSY) == FLASH_FLAG_BSY) 
 2041              		.loc 1 1481 12
 2042 000a 114B     		ldr	r3, .L125
ARM GAS  /tmp/ccE6739X.s 			page 62


 2043 000c DB68     		ldr	r3, [r3, #12]
 2044              		.loc 1 1481 17
 2045 000e 03F00103 		and	r3, r3, #1
 2046              		.loc 1 1481 5
 2047 0012 012B     		cmp	r3, #1
 2048 0014 02D1     		bne	.L120
1482:./Libraries/STM32F10x_StdPeriph_Driver/src/stm32f10x_flash.c ****   {
1483:./Libraries/STM32F10x_StdPeriph_Driver/src/stm32f10x_flash.c ****     flashstatus = FLASH_BUSY;
 2049              		.loc 1 1483 17
 2050 0016 0123     		movs	r3, #1
 2051 0018 FB71     		strb	r3, [r7, #7]
 2052 001a 13E0     		b	.L121
 2053              	.L120:
1484:./Libraries/STM32F10x_StdPeriph_Driver/src/stm32f10x_flash.c ****   }
1485:./Libraries/STM32F10x_StdPeriph_Driver/src/stm32f10x_flash.c ****   else 
1486:./Libraries/STM32F10x_StdPeriph_Driver/src/stm32f10x_flash.c ****   {  
1487:./Libraries/STM32F10x_StdPeriph_Driver/src/stm32f10x_flash.c ****     if((FLASH->SR & FLASH_FLAG_PGERR) != 0)
 2054              		.loc 1 1487 14
 2055 001c 0C4B     		ldr	r3, .L125
 2056 001e DB68     		ldr	r3, [r3, #12]
 2057              		.loc 1 1487 19
 2058 0020 03F00403 		and	r3, r3, #4
 2059              		.loc 1 1487 7
 2060 0024 002B     		cmp	r3, #0
 2061 0026 02D0     		beq	.L122
1488:./Libraries/STM32F10x_StdPeriph_Driver/src/stm32f10x_flash.c ****     { 
1489:./Libraries/STM32F10x_StdPeriph_Driver/src/stm32f10x_flash.c ****       flashstatus = FLASH_ERROR_PG;
 2062              		.loc 1 1489 19
 2063 0028 0223     		movs	r3, #2
 2064 002a FB71     		strb	r3, [r7, #7]
 2065 002c 0AE0     		b	.L121
 2066              	.L122:
1490:./Libraries/STM32F10x_StdPeriph_Driver/src/stm32f10x_flash.c ****     }
1491:./Libraries/STM32F10x_StdPeriph_Driver/src/stm32f10x_flash.c ****     else 
1492:./Libraries/STM32F10x_StdPeriph_Driver/src/stm32f10x_flash.c ****     {
1493:./Libraries/STM32F10x_StdPeriph_Driver/src/stm32f10x_flash.c ****       if((FLASH->SR & FLASH_FLAG_WRPRTERR) != 0 )
 2067              		.loc 1 1493 16
 2068 002e 084B     		ldr	r3, .L125
 2069 0030 DB68     		ldr	r3, [r3, #12]
 2070              		.loc 1 1493 21
 2071 0032 03F01003 		and	r3, r3, #16
 2072              		.loc 1 1493 9
 2073 0036 002B     		cmp	r3, #0
 2074 0038 02D0     		beq	.L123
1494:./Libraries/STM32F10x_StdPeriph_Driver/src/stm32f10x_flash.c ****       {
1495:./Libraries/STM32F10x_StdPeriph_Driver/src/stm32f10x_flash.c ****         flashstatus = FLASH_ERROR_WRP;
 2075              		.loc 1 1495 21
 2076 003a 0323     		movs	r3, #3
 2077 003c FB71     		strb	r3, [r7, #7]
 2078 003e 01E0     		b	.L121
 2079              	.L123:
1496:./Libraries/STM32F10x_StdPeriph_Driver/src/stm32f10x_flash.c ****       }
1497:./Libraries/STM32F10x_StdPeriph_Driver/src/stm32f10x_flash.c ****       else
1498:./Libraries/STM32F10x_StdPeriph_Driver/src/stm32f10x_flash.c ****       {
1499:./Libraries/STM32F10x_StdPeriph_Driver/src/stm32f10x_flash.c ****         flashstatus = FLASH_COMPLETE;
 2080              		.loc 1 1499 21
 2081 0040 0423     		movs	r3, #4
ARM GAS  /tmp/ccE6739X.s 			page 63


 2082 0042 FB71     		strb	r3, [r7, #7]
 2083              	.L121:
1500:./Libraries/STM32F10x_StdPeriph_Driver/src/stm32f10x_flash.c ****       }
1501:./Libraries/STM32F10x_StdPeriph_Driver/src/stm32f10x_flash.c ****     }
1502:./Libraries/STM32F10x_StdPeriph_Driver/src/stm32f10x_flash.c ****   }
1503:./Libraries/STM32F10x_StdPeriph_Driver/src/stm32f10x_flash.c ****   /* Return the Flash Status */
1504:./Libraries/STM32F10x_StdPeriph_Driver/src/stm32f10x_flash.c ****   return flashstatus;
 2084              		.loc 1 1504 10
 2085 0044 FB79     		ldrb	r3, [r7, #7]	@ zero_extendqisi2
1505:./Libraries/STM32F10x_StdPeriph_Driver/src/stm32f10x_flash.c **** }
 2086              		.loc 1 1505 1
 2087 0046 1846     		mov	r0, r3
 2088 0048 0C37     		adds	r7, r7, #12
 2089              	.LCFI125:
 2090              		.cfi_def_cfa_offset 4
 2091 004a BD46     		mov	sp, r7
 2092              	.LCFI126:
 2093              		.cfi_def_cfa_register 13
 2094              		@ sp needed
 2095 004c 80BC     		pop	{r7}
 2096              	.LCFI127:
 2097              		.cfi_restore 7
 2098              		.cfi_def_cfa_offset 0
 2099 004e 7047     		bx	lr
 2100              	.L126:
 2101              		.align	2
 2102              	.L125:
 2103 0050 00200240 		.word	1073881088
 2104              		.cfi_endproc
 2105              	.LFE53:
 2107              		.section	.text.FLASH_GetBank1Status,"ax",%progbits
 2108              		.align	1
 2109              		.global	FLASH_GetBank1Status
 2110              		.syntax unified
 2111              		.thumb
 2112              		.thumb_func
 2113              		.fpu softvfp
 2115              	FLASH_GetBank1Status:
 2116              	.LFB54:
1506:./Libraries/STM32F10x_StdPeriph_Driver/src/stm32f10x_flash.c **** 
1507:./Libraries/STM32F10x_StdPeriph_Driver/src/stm32f10x_flash.c **** /**
1508:./Libraries/STM32F10x_StdPeriph_Driver/src/stm32f10x_flash.c ****   * @brief  Returns the FLASH Bank1 Status.
1509:./Libraries/STM32F10x_StdPeriph_Driver/src/stm32f10x_flash.c ****   * @note   This function can be used for all STM32F10x devices, it is equivalent
1510:./Libraries/STM32F10x_StdPeriph_Driver/src/stm32f10x_flash.c ****   *         to FLASH_GetStatus function.
1511:./Libraries/STM32F10x_StdPeriph_Driver/src/stm32f10x_flash.c ****   * @param  None
1512:./Libraries/STM32F10x_StdPeriph_Driver/src/stm32f10x_flash.c ****   * @retval FLASH Status: The returned value can be: FLASH_BUSY, FLASH_ERROR_PG,
1513:./Libraries/STM32F10x_StdPeriph_Driver/src/stm32f10x_flash.c ****   *         FLASH_ERROR_WRP or FLASH_COMPLETE
1514:./Libraries/STM32F10x_StdPeriph_Driver/src/stm32f10x_flash.c ****   */
1515:./Libraries/STM32F10x_StdPeriph_Driver/src/stm32f10x_flash.c **** FLASH_Status FLASH_GetBank1Status(void)
1516:./Libraries/STM32F10x_StdPeriph_Driver/src/stm32f10x_flash.c **** {
 2117              		.loc 1 1516 1
 2118              		.cfi_startproc
 2119              		@ args = 0, pretend = 0, frame = 8
 2120              		@ frame_needed = 1, uses_anonymous_args = 0
 2121              		@ link register save eliminated.
 2122 0000 80B4     		push	{r7}
 2123              	.LCFI128:
ARM GAS  /tmp/ccE6739X.s 			page 64


 2124              		.cfi_def_cfa_offset 4
 2125              		.cfi_offset 7, -4
 2126 0002 83B0     		sub	sp, sp, #12
 2127              	.LCFI129:
 2128              		.cfi_def_cfa_offset 16
 2129 0004 00AF     		add	r7, sp, #0
 2130              	.LCFI130:
 2131              		.cfi_def_cfa_register 7
1517:./Libraries/STM32F10x_StdPeriph_Driver/src/stm32f10x_flash.c ****   FLASH_Status flashstatus = FLASH_COMPLETE;
 2132              		.loc 1 1517 16
 2133 0006 0423     		movs	r3, #4
 2134 0008 FB71     		strb	r3, [r7, #7]
1518:./Libraries/STM32F10x_StdPeriph_Driver/src/stm32f10x_flash.c ****   
1519:./Libraries/STM32F10x_StdPeriph_Driver/src/stm32f10x_flash.c ****   if((FLASH->SR & FLASH_FLAG_BANK1_BSY) == FLASH_FLAG_BSY) 
 2135              		.loc 1 1519 12
 2136 000a 114B     		ldr	r3, .L133
 2137 000c DB68     		ldr	r3, [r3, #12]
 2138              		.loc 1 1519 17
 2139 000e 03F00103 		and	r3, r3, #1
 2140              		.loc 1 1519 5
 2141 0012 012B     		cmp	r3, #1
 2142 0014 02D1     		bne	.L128
1520:./Libraries/STM32F10x_StdPeriph_Driver/src/stm32f10x_flash.c ****   {
1521:./Libraries/STM32F10x_StdPeriph_Driver/src/stm32f10x_flash.c ****     flashstatus = FLASH_BUSY;
 2143              		.loc 1 1521 17
 2144 0016 0123     		movs	r3, #1
 2145 0018 FB71     		strb	r3, [r7, #7]
 2146 001a 13E0     		b	.L129
 2147              	.L128:
1522:./Libraries/STM32F10x_StdPeriph_Driver/src/stm32f10x_flash.c ****   }
1523:./Libraries/STM32F10x_StdPeriph_Driver/src/stm32f10x_flash.c ****   else 
1524:./Libraries/STM32F10x_StdPeriph_Driver/src/stm32f10x_flash.c ****   {  
1525:./Libraries/STM32F10x_StdPeriph_Driver/src/stm32f10x_flash.c ****     if((FLASH->SR & FLASH_FLAG_BANK1_PGERR) != 0)
 2148              		.loc 1 1525 14
 2149 001c 0C4B     		ldr	r3, .L133
 2150 001e DB68     		ldr	r3, [r3, #12]
 2151              		.loc 1 1525 19
 2152 0020 03F00403 		and	r3, r3, #4
 2153              		.loc 1 1525 7
 2154 0024 002B     		cmp	r3, #0
 2155 0026 02D0     		beq	.L130
1526:./Libraries/STM32F10x_StdPeriph_Driver/src/stm32f10x_flash.c ****     { 
1527:./Libraries/STM32F10x_StdPeriph_Driver/src/stm32f10x_flash.c ****       flashstatus = FLASH_ERROR_PG;
 2156              		.loc 1 1527 19
 2157 0028 0223     		movs	r3, #2
 2158 002a FB71     		strb	r3, [r7, #7]
 2159 002c 0AE0     		b	.L129
 2160              	.L130:
1528:./Libraries/STM32F10x_StdPeriph_Driver/src/stm32f10x_flash.c ****     }
1529:./Libraries/STM32F10x_StdPeriph_Driver/src/stm32f10x_flash.c ****     else 
1530:./Libraries/STM32F10x_StdPeriph_Driver/src/stm32f10x_flash.c ****     {
1531:./Libraries/STM32F10x_StdPeriph_Driver/src/stm32f10x_flash.c ****       if((FLASH->SR & FLASH_FLAG_BANK1_WRPRTERR) != 0 )
 2161              		.loc 1 1531 16
 2162 002e 084B     		ldr	r3, .L133
 2163 0030 DB68     		ldr	r3, [r3, #12]
 2164              		.loc 1 1531 21
 2165 0032 03F01003 		and	r3, r3, #16
ARM GAS  /tmp/ccE6739X.s 			page 65


 2166              		.loc 1 1531 9
 2167 0036 002B     		cmp	r3, #0
 2168 0038 02D0     		beq	.L131
1532:./Libraries/STM32F10x_StdPeriph_Driver/src/stm32f10x_flash.c ****       {
1533:./Libraries/STM32F10x_StdPeriph_Driver/src/stm32f10x_flash.c ****         flashstatus = FLASH_ERROR_WRP;
 2169              		.loc 1 1533 21
 2170 003a 0323     		movs	r3, #3
 2171 003c FB71     		strb	r3, [r7, #7]
 2172 003e 01E0     		b	.L129
 2173              	.L131:
1534:./Libraries/STM32F10x_StdPeriph_Driver/src/stm32f10x_flash.c ****       }
1535:./Libraries/STM32F10x_StdPeriph_Driver/src/stm32f10x_flash.c ****       else
1536:./Libraries/STM32F10x_StdPeriph_Driver/src/stm32f10x_flash.c ****       {
1537:./Libraries/STM32F10x_StdPeriph_Driver/src/stm32f10x_flash.c ****         flashstatus = FLASH_COMPLETE;
 2174              		.loc 1 1537 21
 2175 0040 0423     		movs	r3, #4
 2176 0042 FB71     		strb	r3, [r7, #7]
 2177              	.L129:
1538:./Libraries/STM32F10x_StdPeriph_Driver/src/stm32f10x_flash.c ****       }
1539:./Libraries/STM32F10x_StdPeriph_Driver/src/stm32f10x_flash.c ****     }
1540:./Libraries/STM32F10x_StdPeriph_Driver/src/stm32f10x_flash.c ****   }
1541:./Libraries/STM32F10x_StdPeriph_Driver/src/stm32f10x_flash.c ****   /* Return the Flash Status */
1542:./Libraries/STM32F10x_StdPeriph_Driver/src/stm32f10x_flash.c ****   return flashstatus;
 2178              		.loc 1 1542 10
 2179 0044 FB79     		ldrb	r3, [r7, #7]	@ zero_extendqisi2
1543:./Libraries/STM32F10x_StdPeriph_Driver/src/stm32f10x_flash.c **** }
 2180              		.loc 1 1543 1
 2181 0046 1846     		mov	r0, r3
 2182 0048 0C37     		adds	r7, r7, #12
 2183              	.LCFI131:
 2184              		.cfi_def_cfa_offset 4
 2185 004a BD46     		mov	sp, r7
 2186              	.LCFI132:
 2187              		.cfi_def_cfa_register 13
 2188              		@ sp needed
 2189 004c 80BC     		pop	{r7}
 2190              	.LCFI133:
 2191              		.cfi_restore 7
 2192              		.cfi_def_cfa_offset 0
 2193 004e 7047     		bx	lr
 2194              	.L134:
 2195              		.align	2
 2196              	.L133:
 2197 0050 00200240 		.word	1073881088
 2198              		.cfi_endproc
 2199              	.LFE54:
 2201              		.section	.text.FLASH_WaitForLastOperation,"ax",%progbits
 2202              		.align	1
 2203              		.global	FLASH_WaitForLastOperation
 2204              		.syntax unified
 2205              		.thumb
 2206              		.thumb_func
 2207              		.fpu softvfp
 2209              	FLASH_WaitForLastOperation:
 2210              	.LFB55:
1544:./Libraries/STM32F10x_StdPeriph_Driver/src/stm32f10x_flash.c **** 
1545:./Libraries/STM32F10x_StdPeriph_Driver/src/stm32f10x_flash.c **** #ifdef STM32F10X_XL
ARM GAS  /tmp/ccE6739X.s 			page 66


1546:./Libraries/STM32F10x_StdPeriph_Driver/src/stm32f10x_flash.c **** /**
1547:./Libraries/STM32F10x_StdPeriph_Driver/src/stm32f10x_flash.c ****   * @brief  Returns the FLASH Bank2 Status.
1548:./Libraries/STM32F10x_StdPeriph_Driver/src/stm32f10x_flash.c ****   * @note   This function can be used for STM32F10x_XL density devices.
1549:./Libraries/STM32F10x_StdPeriph_Driver/src/stm32f10x_flash.c ****   * @param  None
1550:./Libraries/STM32F10x_StdPeriph_Driver/src/stm32f10x_flash.c ****   * @retval FLASH Status: The returned value can be: FLASH_BUSY, FLASH_ERROR_PG,
1551:./Libraries/STM32F10x_StdPeriph_Driver/src/stm32f10x_flash.c ****   *        FLASH_ERROR_WRP or FLASH_COMPLETE
1552:./Libraries/STM32F10x_StdPeriph_Driver/src/stm32f10x_flash.c ****   */
1553:./Libraries/STM32F10x_StdPeriph_Driver/src/stm32f10x_flash.c **** FLASH_Status FLASH_GetBank2Status(void)
1554:./Libraries/STM32F10x_StdPeriph_Driver/src/stm32f10x_flash.c **** {
1555:./Libraries/STM32F10x_StdPeriph_Driver/src/stm32f10x_flash.c ****   FLASH_Status flashstatus = FLASH_COMPLETE;
1556:./Libraries/STM32F10x_StdPeriph_Driver/src/stm32f10x_flash.c ****   
1557:./Libraries/STM32F10x_StdPeriph_Driver/src/stm32f10x_flash.c ****   if((FLASH->SR2 & (FLASH_FLAG_BANK2_BSY & 0x7FFFFFFF)) == (FLASH_FLAG_BANK2_BSY & 0x7FFFFFFF)) 
1558:./Libraries/STM32F10x_StdPeriph_Driver/src/stm32f10x_flash.c ****   {
1559:./Libraries/STM32F10x_StdPeriph_Driver/src/stm32f10x_flash.c ****     flashstatus = FLASH_BUSY;
1560:./Libraries/STM32F10x_StdPeriph_Driver/src/stm32f10x_flash.c ****   }
1561:./Libraries/STM32F10x_StdPeriph_Driver/src/stm32f10x_flash.c ****   else 
1562:./Libraries/STM32F10x_StdPeriph_Driver/src/stm32f10x_flash.c ****   {  
1563:./Libraries/STM32F10x_StdPeriph_Driver/src/stm32f10x_flash.c ****     if((FLASH->SR2 & (FLASH_FLAG_BANK2_PGERR & 0x7FFFFFFF)) != 0)
1564:./Libraries/STM32F10x_StdPeriph_Driver/src/stm32f10x_flash.c ****     { 
1565:./Libraries/STM32F10x_StdPeriph_Driver/src/stm32f10x_flash.c ****       flashstatus = FLASH_ERROR_PG;
1566:./Libraries/STM32F10x_StdPeriph_Driver/src/stm32f10x_flash.c ****     }
1567:./Libraries/STM32F10x_StdPeriph_Driver/src/stm32f10x_flash.c ****     else 
1568:./Libraries/STM32F10x_StdPeriph_Driver/src/stm32f10x_flash.c ****     {
1569:./Libraries/STM32F10x_StdPeriph_Driver/src/stm32f10x_flash.c ****       if((FLASH->SR2 & (FLASH_FLAG_BANK2_WRPRTERR & 0x7FFFFFFF)) != 0 )
1570:./Libraries/STM32F10x_StdPeriph_Driver/src/stm32f10x_flash.c ****       {
1571:./Libraries/STM32F10x_StdPeriph_Driver/src/stm32f10x_flash.c ****         flashstatus = FLASH_ERROR_WRP;
1572:./Libraries/STM32F10x_StdPeriph_Driver/src/stm32f10x_flash.c ****       }
1573:./Libraries/STM32F10x_StdPeriph_Driver/src/stm32f10x_flash.c ****       else
1574:./Libraries/STM32F10x_StdPeriph_Driver/src/stm32f10x_flash.c ****       {
1575:./Libraries/STM32F10x_StdPeriph_Driver/src/stm32f10x_flash.c ****         flashstatus = FLASH_COMPLETE;
1576:./Libraries/STM32F10x_StdPeriph_Driver/src/stm32f10x_flash.c ****       }
1577:./Libraries/STM32F10x_StdPeriph_Driver/src/stm32f10x_flash.c ****     }
1578:./Libraries/STM32F10x_StdPeriph_Driver/src/stm32f10x_flash.c ****   }
1579:./Libraries/STM32F10x_StdPeriph_Driver/src/stm32f10x_flash.c ****   /* Return the Flash Status */
1580:./Libraries/STM32F10x_StdPeriph_Driver/src/stm32f10x_flash.c ****   return flashstatus;
1581:./Libraries/STM32F10x_StdPeriph_Driver/src/stm32f10x_flash.c **** }
1582:./Libraries/STM32F10x_StdPeriph_Driver/src/stm32f10x_flash.c **** #endif /* STM32F10X_XL */
1583:./Libraries/STM32F10x_StdPeriph_Driver/src/stm32f10x_flash.c **** /**
1584:./Libraries/STM32F10x_StdPeriph_Driver/src/stm32f10x_flash.c ****   * @brief  Waits for a Flash operation to complete or a TIMEOUT to occur.
1585:./Libraries/STM32F10x_StdPeriph_Driver/src/stm32f10x_flash.c ****   * @note   This function can be used for all STM32F10x devices, 
1586:./Libraries/STM32F10x_StdPeriph_Driver/src/stm32f10x_flash.c ****   *         it is equivalent to FLASH_WaitForLastBank1Operation.
1587:./Libraries/STM32F10x_StdPeriph_Driver/src/stm32f10x_flash.c ****   *         - For STM32F10X_XL devices this function waits for a Bank1 Flash operation
