ARM GAS  /tmp/ccUdnWCZ.s 			page 1


   1              		.cpu cortex-m3
   2              		.eabi_attribute 20, 1
   3              		.eabi_attribute 21, 1
   4              		.eabi_attribute 23, 3
   5              		.eabi_attribute 24, 1
   6              		.eabi_attribute 25, 1
   7              		.eabi_attribute 26, 1
   8              		.eabi_attribute 30, 6
   9              		.eabi_attribute 34, 1
  10              		.eabi_attribute 18, 4
  11              		.file	"stm32f10x_it.c"
  12              		.text
  13              	.Ltext0:
  14              		.cfi_sections	.debug_frame
  15              		.section	.text.NMI_Handler,"ax",%progbits
  16              		.align	1
  17              		.global	NMI_Handler
  18              		.arch armv7-m
  19              		.syntax unified
  20              		.thumb
  21              		.thumb_func
  22              		.fpu softvfp
  24              	NMI_Handler:
  25              	.LFB29:
  26              		.file 1 "./User/Src/stm32f10x_it.c"
   1:./User/Src/stm32f10x_it.c **** /**
   2:./User/Src/stm32f10x_it.c ****   ******************************************************************************
   3:./User/Src/stm32f10x_it.c ****   * @file    Project/STM32F10x_StdPeriph_Template/stm32f10x_it.c 
   4:./User/Src/stm32f10x_it.c ****   * @author  MCD Application Team
   5:./User/Src/stm32f10x_it.c ****   * @version V3.5.0
   6:./User/Src/stm32f10x_it.c ****   * @date    08-April-2011
   7:./User/Src/stm32f10x_it.c ****   * @brief   Main Interrupt Service Routines.
   8:./User/Src/stm32f10x_it.c ****   *          This file provides template for all exceptions handler and 
   9:./User/Src/stm32f10x_it.c ****   *          peripherals interrupt service routine.
  10:./User/Src/stm32f10x_it.c ****   ******************************************************************************
  11:./User/Src/stm32f10x_it.c ****   * @attention
  12:./User/Src/stm32f10x_it.c ****   *
  13:./User/Src/stm32f10x_it.c ****   * THE PRESENT FIRMWARE WHICH IS FOR GUIDANCE ONLY AIMS AT PROVIDING CUSTOMERS
  14:./User/Src/stm32f10x_it.c ****   * WITH CODING INFORMATION REGARDING THEIR PRODUCTS IN ORDER FOR THEM TO SAVE
  15:./User/Src/stm32f10x_it.c ****   * TIME. AS A RESULT, STMICROELECTRONICS SHALL NOT BE HELD LIABLE FOR ANY
  16:./User/Src/stm32f10x_it.c ****   * DIRECT, INDIRECT OR CONSEQUENTI
  17:./User/Src/stm32f10x_it.c ****   
  18:./User/Src/stm32f10x_it.c ****   AL DAMAGES WITH RESPECT TO ANY CLAIMS ARISING
  19:./User/Src/stm32f10x_it.c ****   * FROM THE CONTENT OF SUCH FIRMWARE AND/OR THE USE MADE BY CUSTOMERS OF THE
  20:./User/Src/stm32f10x_it.c ****   * CODING INFORMATION CONTAINED HEREIN IN CONNECTION WITH THEIR PRODUCTS.
  21:./User/Src/stm32f10x_it.c ****   *
  22:./User/Src/stm32f10x_it.c ****   * <h2><center>&copy; COPYRIGHT 2011 STMicroelectronics</center></h2>
  23:./User/Src/stm32f10x_it.c ****   ******************************************************************************
  24:./User/Src/stm32f10x_it.c ****   */
  25:./User/Src/stm32f10x_it.c **** 
  26:./User/Src/stm32f10x_it.c **** /* Includes ------------------------------------------------------------------*/
  27:./User/Src/stm32f10x_it.c **** #include "stm32f10x_it.h"
  28:./User/Src/stm32f10x_it.c **** extern void TimingDelay_Decrement(void);
  29:./User/Src/stm32f10x_it.c **** /** @addtogroup STM32F10x_StdPeriph_Template
  30:./User/Src/stm32f10x_it.c ****   * @{
  31:./User/Src/stm32f10x_it.c ****   */
  32:./User/Src/stm32f10x_it.c **** 
ARM GAS  /tmp/ccUdnWCZ.s 			page 2


  33:./User/Src/stm32f10x_it.c **** /* Private typedef -----------------------------------------------------------*/
  34:./User/Src/stm32f10x_it.c **** /* Private define ------------------------------------------------------------*/
  35:./User/Src/stm32f10x_it.c **** /* Private macro -------------------------------------------------------------*/
  36:./User/Src/stm32f10x_it.c **** /* Private variables ---------------------------------------------------------*/
  37:./User/Src/stm32f10x_it.c **** /* Private function prototypes -----------------------------------------------*/
  38:./User/Src/stm32f10x_it.c **** /* Private functions ---------------------------------------------------------*/
  39:./User/Src/stm32f10x_it.c **** 
  40:./User/Src/stm32f10x_it.c **** /******************************************************************************/
  41:./User/Src/stm32f10x_it.c **** /*            Cortex-M3 Processor Exceptions Handlers                         */
  42:./User/Src/stm32f10x_it.c **** /******************************************************************************/
  43:./User/Src/stm32f10x_it.c **** 
  44:./User/Src/stm32f10x_it.c **** /**
  45:./User/Src/stm32f10x_it.c ****   * @brief  This function handles NMI exception.
  46:./User/Src/stm32f10x_it.c ****   * @param  None
  47:./User/Src/stm32f10x_it.c ****   * @retval None
  48:./User/Src/stm32f10x_it.c ****   */
  49:./User/Src/stm32f10x_it.c **** void NMI_Handler(void)
  50:./User/Src/stm32f10x_it.c **** {
  27              		.loc 1 50 1
  28              		.cfi_startproc
  29              		@ args = 0, pretend = 0, frame = 0
  30              		@ frame_needed = 1, uses_anonymous_args = 0
  31              		@ link register save eliminated.
  32 0000 80B4     		push	{r7}
  33              	.LCFI0:
  34              		.cfi_def_cfa_offset 4
  35              		.cfi_offset 7, -4
  36 0002 00AF     		add	r7, sp, #0
  37              	.LCFI1:
  38              		.cfi_def_cfa_register 7
  51:./User/Src/stm32f10x_it.c **** }
  39              		.loc 1 51 1
  40 0004 00BF     		nop
  41 0006 BD46     		mov	sp, r7
  42              	.LCFI2:
  43              		.cfi_def_cfa_register 13
  44              		@ sp needed
  45 0008 80BC     		pop	{r7}
  46              	.LCFI3:
  47              		.cfi_restore 7
  48              		.cfi_def_cfa_offset 0
  49 000a 7047     		bx	lr
  50              		.cfi_endproc
  51              	.LFE29:
  53              		.section	.text.HardFault_Handler,"ax",%progbits
  54              		.align	1
  55              		.global	HardFault_Handler
  56              		.syntax unified
  57              		.thumb
  58              		.thumb_func
  59              		.fpu softvfp
  61              	HardFault_Handler:
  62              	.LFB30:
  52:./User/Src/stm32f10x_it.c **** 
  53:./User/Src/stm32f10x_it.c **** /**
  54:./User/Src/stm32f10x_it.c ****   * @brief  This function handles Hard Fault exception.
  55:./User/Src/stm32f10x_it.c ****   * @param  None
ARM GAS  /tmp/ccUdnWCZ.s 			page 3


  56:./User/Src/stm32f10x_it.c ****   * @retval None
  57:./User/Src/stm32f10x_it.c ****   */
  58:./User/Src/stm32f10x_it.c **** void HardFault_Handler(void)
  59:./User/Src/stm32f10x_it.c **** {
  63              		.loc 1 59 1
  64              		.cfi_startproc
  65              		@ args = 0, pretend = 0, frame = 0
  66              		@ frame_needed = 1, uses_anonymous_args = 0
  67              		@ link register save eliminated.
  68 0000 80B4     		push	{r7}
  69              	.LCFI4:
  70              		.cfi_def_cfa_offset 4
  71              		.cfi_offset 7, -4
  72 0002 00AF     		add	r7, sp, #0
  73              	.LCFI5:
  74              		.cfi_def_cfa_register 7
  75              	.L3:
  60:./User/Src/stm32f10x_it.c ****   /* Go to infinite loop when Hard Fault exception occurs */
  61:./User/Src/stm32f10x_it.c ****   while (1)
  76              		.loc 1 61 9 discriminator 1
  77 0004 FEE7     		b	.L3
  78              		.cfi_endproc
  79              	.LFE30:
  81              		.section	.text.MemManage_Handler,"ax",%progbits
  82              		.align	1
  83              		.global	MemManage_Handler
  84              		.syntax unified
  85              		.thumb
  86              		.thumb_func
  87              		.fpu softvfp
  89              	MemManage_Handler:
  90              	.LFB31:
  62:./User/Src/stm32f10x_it.c ****   {
  63:./User/Src/stm32f10x_it.c ****   }
  64:./User/Src/stm32f10x_it.c **** }
  65:./User/Src/stm32f10x_it.c **** 
  66:./User/Src/stm32f10x_it.c **** /**
  67:./User/Src/stm32f10x_it.c ****   * @brief  This function handles Memory Manage exception.
  68:./User/Src/stm32f10x_it.c ****   * @param  None
  69:./User/Src/stm32f10x_it.c ****   * @retval None
  70:./User/Src/stm32f10x_it.c ****   */
  71:./User/Src/stm32f10x_it.c **** void MemManage_Handler(void)
  72:./User/Src/stm32f10x_it.c **** {
  91              		.loc 1 72 1
  92              		.cfi_startproc
  93              		@ args = 0, pretend = 0, frame = 0
  94              		@ frame_needed = 1, uses_anonymous_args = 0
  95              		@ link register save eliminated.
  96 0000 80B4     		push	{r7}
  97              	.LCFI6:
  98              		.cfi_def_cfa_offset 4
  99              		.cfi_offset 7, -4
 100 0002 00AF     		add	r7, sp, #0
 101              	.LCFI7:
 102              		.cfi_def_cfa_register 7
 103              	.L5:
  73:./User/Src/stm32f10x_it.c ****   /* Go to infinite loop when Memory Manage exception occurs */
ARM GAS  /tmp/ccUdnWCZ.s 			page 4


  74:./User/Src/stm32f10x_it.c ****   while (1)
 104              		.loc 1 74 9 discriminator 1
 105 0004 FEE7     		b	.L5
 106              		.cfi_endproc
 107              	.LFE31:
 109              		.section	.text.BusFault_Handler,"ax",%progbits
 110              		.align	1
 111              		.global	BusFault_Handler
 112              		.syntax unified
 113              		.thumb
 114              		.thumb_func
 115              		.fpu softvfp
 117              	BusFault_Handler:
 118              	.LFB32:
  75:./User/Src/stm32f10x_it.c ****   {
  76:./User/Src/stm32f10x_it.c ****   }
  77:./User/Src/stm32f10x_it.c **** }
  78:./User/Src/stm32f10x_it.c **** 
  79:./User/Src/stm32f10x_it.c **** /**
  80:./User/Src/stm32f10x_it.c ****   * @brief  This function handles Bus Fault exception.
  81:./User/Src/stm32f10x_it.c ****   * @param  None
  82:./User/Src/stm32f10x_it.c ****   * @retval None
  83:./User/Src/stm32f10x_it.c ****   */
  84:./User/Src/stm32f10x_it.c **** void BusFault_Handler(void)
  85:./User/Src/stm32f10x_it.c **** {
 119              		.loc 1 85 1
 120              		.cfi_startproc
 121              		@ args = 0, pretend = 0, frame = 0
 122              		@ frame_needed = 1, uses_anonymous_args = 0
 123              		@ link register save eliminated.
 124 0000 80B4     		push	{r7}
 125              	.LCFI8:
 126              		.cfi_def_cfa_offset 4
 127              		.cfi_offset 7, -4
 128 0002 00AF     		add	r7, sp, #0
 129              	.LCFI9:
 130              		.cfi_def_cfa_register 7
 131              	.L7:
  86:./User/Src/stm32f10x_it.c ****   /* Go to infinite loop when Bus Fault exception occurs */
  87:./User/Src/stm32f10x_it.c ****   while (1)
 132              		.loc 1 87 9 discriminator 1
 133 0004 FEE7     		b	.L7
 134              		.cfi_endproc
 135              	.LFE32:
 137              		.section	.text.UsageFault_Handler,"ax",%progbits
 138              		.align	1
 139              		.global	UsageFault_Handler
 140              		.syntax unified
 141              		.thumb
 142              		.thumb_func
 143              		.fpu softvfp
 145              	UsageFault_Handler:
 146              	.LFB33:
  88:./User/Src/stm32f10x_it.c ****   {
  89:./User/Src/stm32f10x_it.c ****   }
  90:./User/Src/stm32f10x_it.c **** }
  91:./User/Src/stm32f10x_it.c **** 
ARM GAS  /tmp/ccUdnWCZ.s 			page 5


  92:./User/Src/stm32f10x_it.c **** /**
  93:./User/Src/stm32f10x_it.c ****   * @brief  This function handles Usage Fault exception.
  94:./User/Src/stm32f10x_it.c ****   * @param  None
  95:./User/Src/stm32f10x_it.c ****   * @retval None
  96:./User/Src/stm32f10x_it.c ****   */
  97:./User/Src/stm32f10x_it.c **** void UsageFault_Handler(void)
  98:./User/Src/stm32f10x_it.c **** {
 147              		.loc 1 98 1
 148              		.cfi_startproc
 149              		@ args = 0, pretend = 0, frame = 0
 150              		@ frame_needed = 1, uses_anonymous_args = 0
 151              		@ link register save eliminated.
 152 0000 80B4     		push	{r7}
 153              	.LCFI10:
 154              		.cfi_def_cfa_offset 4
 155              		.cfi_offset 7, -4
 156 0002 00AF     		add	r7, sp, #0
 157              	.LCFI11:
 158              		.cfi_def_cfa_register 7
 159              	.L9:
  99:./User/Src/stm32f10x_it.c ****   /* Go to infinite loop when Usage Fault exception occurs */
 100:./User/Src/stm32f10x_it.c ****   while (1)
 160              		.loc 1 100 9 discriminator 1
 161 0004 FEE7     		b	.L9
 162              		.cfi_endproc
 163              	.LFE33:
 165              		.section	.text.SVC_Handler,"ax",%progbits
 166              		.align	1
 167              		.global	SVC_Handler
 168              		.syntax unified
 169              		.thumb
 170              		.thumb_func
 171              		.fpu softvfp
 173              	SVC_Handler:
 174              	.LFB34:
 101:./User/Src/stm32f10x_it.c ****   {
 102:./User/Src/stm32f10x_it.c ****   }
 103:./User/Src/stm32f10x_it.c **** }
 104:./User/Src/stm32f10x_it.c **** 
 105:./User/Src/stm32f10x_it.c **** /**
 106:./User/Src/stm32f10x_it.c ****   * @brief  This function handles SVCall exception.
 107:./User/Src/stm32f10x_it.c ****   * @param  None
 108:./User/Src/stm32f10x_it.c ****   * @retval None
 109:./User/Src/stm32f10x_it.c ****   */
 110:./User/Src/stm32f10x_it.c **** void SVC_Handler(void)
 111:./User/Src/stm32f10x_it.c **** {
 175              		.loc 1 111 1
 176              		.cfi_startproc
 177              		@ args = 0, pretend = 0, frame = 0
 178              		@ frame_needed = 1, uses_anonymous_args = 0
 179              		@ link register save eliminated.
 180 0000 80B4     		push	{r7}
 181              	.LCFI12:
 182              		.cfi_def_cfa_offset 4
 183              		.cfi_offset 7, -4
 184 0002 00AF     		add	r7, sp, #0
 185              	.LCFI13:
ARM GAS  /tmp/ccUdnWCZ.s 			page 6


 186              		.cfi_def_cfa_register 7
 112:./User/Src/stm32f10x_it.c **** }
 187              		.loc 1 112 1
 188 0004 00BF     		nop
 189 0006 BD46     		mov	sp, r7
 190              	.LCFI14:
 191              		.cfi_def_cfa_register 13
 192              		@ sp needed
 193 0008 80BC     		pop	{r7}
 194              	.LCFI15:
 195              		.cfi_restore 7
 196              		.cfi_def_cfa_offset 0
 197 000a 7047     		bx	lr
 198              		.cfi_endproc
 199              	.LFE34:
 201              		.section	.text.DebugMon_Handler,"ax",%progbits
 202              		.align	1
 203              		.global	DebugMon_Handler
 204              		.syntax unified
 205              		.thumb
 206              		.thumb_func
 207              		.fpu softvfp
 209              	DebugMon_Handler:
 210              	.LFB35:
 113:./User/Src/stm32f10x_it.c **** 
 114:./User/Src/stm32f10x_it.c **** /**
 115:./User/Src/stm32f10x_it.c ****   * @brief  This function handles Debug Monitor exception.
 116:./User/Src/stm32f10x_it.c ****   * @param  None
 117:./User/Src/stm32f10x_it.c ****   * @retval None
 118:./User/Src/stm32f10x_it.c ****   */
 119:./User/Src/stm32f10x_it.c **** void DebugMon_Handler(void)
 120:./User/Src/stm32f10x_it.c **** {
 211              		.loc 1 120 1
 212              		.cfi_startproc
 213              		@ args = 0, pretend = 0, frame = 0
 214              		@ frame_needed = 1, uses_anonymous_args = 0
 215              		@ link register save eliminated.
 216 0000 80B4     		push	{r7}
 217              	.LCFI16:
 218              		.cfi_def_cfa_offset 4
 219              		.cfi_offset 7, -4
 220 0002 00AF     		add	r7, sp, #0
 221              	.LCFI17:
 222              		.cfi_def_cfa_register 7
 121:./User/Src/stm32f10x_it.c **** }
 223              		.loc 1 121 1
 224 0004 00BF     		nop
 225 0006 BD46     		mov	sp, r7
 226              	.LCFI18:
 227              		.cfi_def_cfa_register 13
 228              		@ sp needed
 229 0008 80BC     		pop	{r7}
 230              	.LCFI19:
 231              		.cfi_restore 7
 232              		.cfi_def_cfa_offset 0
 233 000a 7047     		bx	lr
 234              		.cfi_endproc
ARM GAS  /tmp/ccUdnWCZ.s 			page 7


 235              	.LFE35:
 237              		.section	.text.PendSV_Handler,"ax",%progbits
 238              		.align	1
 239              		.global	PendSV_Handler
 240              		.syntax unified
 241              		.thumb
 242              		.thumb_func
 243              		.fpu softvfp
 245              	PendSV_Handler:
 246              	.LFB36:
 122:./User/Src/stm32f10x_it.c **** 
 123:./User/Src/stm32f10x_it.c **** /**
 124:./User/Src/stm32f10x_it.c ****   * @brief  This function handles PendSVC exception.
 125:./User/Src/stm32f10x_it.c ****   * @param  None
 126:./User/Src/stm32f10x_it.c ****   * @retval None
 127:./User/Src/stm32f10x_it.c ****   */
 128:./User/Src/stm32f10x_it.c **** void PendSV_Handler(void)
 129:./User/Src/stm32f10x_it.c **** {
 247              		.loc 1 129 1
 248              		.cfi_startproc
 249              		@ args = 0, pretend = 0, frame = 0
 250              		@ frame_needed = 1, uses_anonymous_args = 0
 251              		@ link register save eliminated.
 252 0000 80B4     		push	{r7}
 253              	.LCFI20:
 254              		.cfi_def_cfa_offset 4
 255              		.cfi_offset 7, -4
 256 0002 00AF     		add	r7, sp, #0
 257              	.LCFI21:
 258              		.cfi_def_cfa_register 7
 130:./User/Src/stm32f10x_it.c **** }
 259              		.loc 1 130 1
 260 0004 00BF     		nop
 261 0006 BD46     		mov	sp, r7
 262              	.LCFI22:
 263              		.cfi_def_cfa_register 13
 264              		@ sp needed
 265 0008 80BC     		pop	{r7}
 266              	.LCFI23:
 267              		.cfi_restore 7
 268              		.cfi_def_cfa_offset 0
 269 000a 7047     		bx	lr
 270              		.cfi_endproc
 271              	.LFE36:
 273              		.section	.text.SysTick_Handler,"ax",%progbits
 274              		.align	1
 275              		.global	SysTick_Handler
 276              		.syntax unified
 277              		.thumb
 278              		.thumb_func
 279              		.fpu softvfp
 281              	SysTick_Handler:
 282              	.LFB37:
 131:./User/Src/stm32f10x_it.c **** 
 132:./User/Src/stm32f10x_it.c **** /**
 133:./User/Src/stm32f10x_it.c ****   * @brief  This function handles SysTick Handler.
 134:./User/Src/stm32f10x_it.c ****   * @param  None
ARM GAS  /tmp/ccUdnWCZ.s 			page 8


 135:./User/Src/stm32f10x_it.c ****   * @retval None
 136:./User/Src/stm32f10x_it.c ****   */
 137:./User/Src/stm32f10x_it.c **** void SysTick_Handler(void)
 138:./User/Src/stm32f10x_it.c **** {
 283              		.loc 1 138 1
 284              		.cfi_startproc
 285              		@ args = 0, pretend = 0, frame = 0
 286              		@ frame_needed = 1, uses_anonymous_args = 0
 287 0000 80B5     		push	{r7, lr}
 288              	.LCFI24:
 289              		.cfi_def_cfa_offset 8
 290              		.cfi_offset 7, -8
 291              		.cfi_offset 14, -4
 292 0002 00AF     		add	r7, sp, #0
 293              	.LCFI25:
 294              		.cfi_def_cfa_register 7
 139:./User/Src/stm32f10x_it.c ****   TimingDelay_Decrement();
 295              		.loc 1 139 3
 296 0004 FFF7FEFF 		bl	TimingDelay_Decrement
 140:./User/Src/stm32f10x_it.c **** }
 297              		.loc 1 140 1
 298 0008 00BF     		nop
 299 000a 80BD     		pop	{r7, pc}
 300              		.cfi_endproc
 301              	.LFE37:
 303              		.text
 304              	.Letext0:
ARM GAS  /tmp/ccUdnWCZ.s 			page 9

