ARM GAS  /tmp/ccsy3YtW.s 			page 1


   1              		.cpu cortex-m3
   2              		.eabi_attribute 20, 1
   3              		.eabi_attribute 21, 1
   4              		.eabi_attribute 23, 3
   5              		.eabi_attribute 24, 1
   6              		.eabi_attribute 25, 1
   7              		.eabi_attribute 26, 1
   8              		.eabi_attribute 30, 1
   9              		.eabi_attribute 34, 1
  10              		.eabi_attribute 18, 4
  11              		.file	"stm32f10x_it.c"
  12              		.text
  13              	.Ltext0:
  14              		.cfi_sections	.debug_frame
  15              		.section	.text.NMI_Handler,"ax",%progbits
  16              		.align	1
  17              		.global	NMI_Handler
  18              		.arch armv7-m
  19              		.syntax unified
  20              		.thumb
  21              		.thumb_func
  22              		.fpu softvfp
  24              	NMI_Handler:
  25              	.LFB32:
  26              		.file 1 "./User/Src/stm32f10x_it.c"
   1:./User/Src/stm32f10x_it.c **** /**
   2:./User/Src/stm32f10x_it.c ****   ******************************************************************************
   3:./User/Src/stm32f10x_it.c ****   * @file    Project/STM32F10x_StdPeriph_Template/stm32f10x_it.c 
   4:./User/Src/stm32f10x_it.c ****   * @author  MCD Application Team
   5:./User/Src/stm32f10x_it.c ****   * @version V3.5.0
   6:./User/Src/stm32f10x_it.c ****   * @date    08-April-2011
   7:./User/Src/stm32f10x_it.c ****   * @brief   Main Interrupt Service Routines.
   8:./User/Src/stm32f10x_it.c ****   *          This file provides template for all exceptions handler and 
   9:./User/Src/stm32f10x_it.c ****   *          peripherals interrupt service routine.
  10:./User/Src/stm32f10x_it.c ****   ******************************************************************************
  11:./User/Src/stm32f10x_it.c ****   * @attention
  12:./User/Src/stm32f10x_it.c ****   *
  13:./User/Src/stm32f10x_it.c ****   * THE PRESENT FIRMWARE WHICH IS FOR GUIDANCE ONLY AIMS AT PROVIDING CUSTOMERS
  14:./User/Src/stm32f10x_it.c ****   * WITH CODING INFORMATION REGARDING THEIR PRODUCTS IN ORDER FOR THEM TO SAVE
  15:./User/Src/stm32f10x_it.c ****   * TIME. AS A RESULT, STMICROELECTRONICS SHALL NOT BE HELD LIABLE FOR ANY
  16:./User/Src/stm32f10x_it.c ****   * DIRECT, INDIRECT OR CONSEQUENTI
  17:./User/Src/stm32f10x_it.c ****   
  18:./User/Src/stm32f10x_it.c ****   AL DAMAGES WITH RESPECT TO ANY CLAIMS ARISING
  19:./User/Src/stm32f10x_it.c ****   * FROM THE CONTENT OF SUCH FIRMWARE AND/OR THE USE MADE BY CUSTOMERS OF THE
  20:./User/Src/stm32f10x_it.c ****   * CODING INFORMATION CONTAINED HEREIN IN CONNECTION WITH THEIR PRODUCTS.
  21:./User/Src/stm32f10x_it.c ****   *
  22:./User/Src/stm32f10x_it.c ****   * <h2><center>&copy; COPYRIGHT 2011 STMicroelectronics</center></h2>
  23:./User/Src/stm32f10x_it.c ****   ******************************************************************************
  24:./User/Src/stm32f10x_it.c ****   */
  25:./User/Src/stm32f10x_it.c **** 
  26:./User/Src/stm32f10x_it.c **** /* Includes ------------------------------------------------------------------*/
  27:./User/Src/stm32f10x_it.c **** #include "stm32f10x_it.h"
  28:./User/Src/stm32f10x_it.c **** #include <stdio.h>
  29:./User/Src/stm32f10x_it.c **** #include <string.h> 
  30:./User/Src/stm32f10x_it.c **** #include "bsp_SysTick.h"
  31:./User/Src/stm32f10x_it.c **** #include "bsp_esp8266.h"
  32:./User/Src/stm32f10x_it.c **** #include "bsp_esp8266_test.h"
ARM GAS  /tmp/ccsy3YtW.s 			page 2


  33:./User/Src/stm32f10x_it.c **** #include "bsp_usart.h"
  34:./User/Src/stm32f10x_it.c **** 
  35:./User/Src/stm32f10x_it.c **** 
  36:./User/Src/stm32f10x_it.c **** 
  37:./User/Src/stm32f10x_it.c **** /** @addtogroup STM32F10x_StdPeriph_Template
  38:./User/Src/stm32f10x_it.c ****   * @{
  39:./User/Src/stm32f10x_it.c ****   */
  40:./User/Src/stm32f10x_it.c **** 
  41:./User/Src/stm32f10x_it.c **** /* Private typedef -----------------------------------------------------------*/
  42:./User/Src/stm32f10x_it.c **** /* Private define ------------------------------------------------------------*/
  43:./User/Src/stm32f10x_it.c **** /* Private macro -------------------------------------------------------------*/
  44:./User/Src/stm32f10x_it.c **** /* Private variables ---------------------------------------------------------*/
  45:./User/Src/stm32f10x_it.c **** /* Private function prototypes -----------------------------------------------*/
  46:./User/Src/stm32f10x_it.c **** /* Private functions ---------------------------------------------------------*/
  47:./User/Src/stm32f10x_it.c **** 
  48:./User/Src/stm32f10x_it.c **** /******************************************************************************/
  49:./User/Src/stm32f10x_it.c **** /*            Cortex-M3 Processor Exceptions Handlers                         */
  50:./User/Src/stm32f10x_it.c **** /******************************************************************************/
  51:./User/Src/stm32f10x_it.c **** 
  52:./User/Src/stm32f10x_it.c **** /**
  53:./User/Src/stm32f10x_it.c ****   * @brief  This function handles NMI exception.
  54:./User/Src/stm32f10x_it.c ****   * @param  None
  55:./User/Src/stm32f10x_it.c ****   * @retval None
  56:./User/Src/stm32f10x_it.c ****   */
  57:./User/Src/stm32f10x_it.c **** void NMI_Handler(void)
  58:./User/Src/stm32f10x_it.c **** {
  27              		.loc 1 58 1 view -0
  28              		.cfi_startproc
  29              		@ args = 0, pretend = 0, frame = 0
  30              		@ frame_needed = 0, uses_anonymous_args = 0
  31              		@ link register save eliminated.
  59:./User/Src/stm32f10x_it.c **** }
  32              		.loc 1 59 1 view .LVU1
  33 0000 7047     		bx	lr
  34              		.cfi_endproc
  35              	.LFE32:
  37              		.section	.text.HardFault_Handler,"ax",%progbits
  38              		.align	1
  39              		.global	HardFault_Handler
  40              		.syntax unified
  41              		.thumb
  42              		.thumb_func
  43              		.fpu softvfp
  45              	HardFault_Handler:
  46              	.LFB33:
  60:./User/Src/stm32f10x_it.c **** 
  61:./User/Src/stm32f10x_it.c **** /**
  62:./User/Src/stm32f10x_it.c ****   * @brief  This function handles Hard Fault exception.
  63:./User/Src/stm32f10x_it.c ****   * @param  None
  64:./User/Src/stm32f10x_it.c ****   * @retval None
  65:./User/Src/stm32f10x_it.c ****   */
  66:./User/Src/stm32f10x_it.c **** void HardFault_Handler(void)
  67:./User/Src/stm32f10x_it.c **** {
  47              		.loc 1 67 1 view -0
  48              		.cfi_startproc
  49              		@ Volatile: function does not return.
  50              		@ args = 0, pretend = 0, frame = 0
ARM GAS  /tmp/ccsy3YtW.s 			page 3


  51              		@ frame_needed = 0, uses_anonymous_args = 0
  52              		@ link register save eliminated.
  53              	.L3:
  68:./User/Src/stm32f10x_it.c ****   /* Go to infinite loop when Hard Fault exception occurs */
  69:./User/Src/stm32f10x_it.c ****   while (1)
  54              		.loc 1 69 3 discriminator 1 view .LVU3
  70:./User/Src/stm32f10x_it.c ****   {
  71:./User/Src/stm32f10x_it.c ****   }
  55              		.loc 1 71 3 discriminator 1 view .LVU4
  69:./User/Src/stm32f10x_it.c ****   {
  56              		.loc 1 69 9 discriminator 1 view .LVU5
  57 0000 FEE7     		b	.L3
  58              		.cfi_endproc
  59              	.LFE33:
  61              		.section	.text.MemManage_Handler,"ax",%progbits
  62              		.align	1
  63              		.global	MemManage_Handler
  64              		.syntax unified
  65              		.thumb
  66              		.thumb_func
  67              		.fpu softvfp
  69              	MemManage_Handler:
  70              	.LFB34:
  72:./User/Src/stm32f10x_it.c **** }
  73:./User/Src/stm32f10x_it.c **** 
  74:./User/Src/stm32f10x_it.c **** /**
  75:./User/Src/stm32f10x_it.c ****   * @brief  This function handles Memory Manage exception.
  76:./User/Src/stm32f10x_it.c ****   * @param  None
  77:./User/Src/stm32f10x_it.c ****   * @retval None
  78:./User/Src/stm32f10x_it.c ****   */
  79:./User/Src/stm32f10x_it.c **** void MemManage_Handler(void)
  80:./User/Src/stm32f10x_it.c **** {
  71              		.loc 1 80 1 view -0
  72              		.cfi_startproc
  73              		@ Volatile: function does not return.
  74              		@ args = 0, pretend = 0, frame = 0
  75              		@ frame_needed = 0, uses_anonymous_args = 0
  76              		@ link register save eliminated.
  77              	.L5:
  81:./User/Src/stm32f10x_it.c ****   /* Go to infinite loop when Memory Manage exception occurs */
  82:./User/Src/stm32f10x_it.c ****   while (1)
  78              		.loc 1 82 3 discriminator 1 view .LVU7
  83:./User/Src/stm32f10x_it.c ****   {
  84:./User/Src/stm32f10x_it.c ****   }
  79              		.loc 1 84 3 discriminator 1 view .LVU8
  82:./User/Src/stm32f10x_it.c ****   {
  80              		.loc 1 82 9 discriminator 1 view .LVU9
  81 0000 FEE7     		b	.L5
  82              		.cfi_endproc
  83              	.LFE34:
  85              		.section	.text.BusFault_Handler,"ax",%progbits
  86              		.align	1
  87              		.global	BusFault_Handler
  88              		.syntax unified
  89              		.thumb
  90              		.thumb_func
  91              		.fpu softvfp
ARM GAS  /tmp/ccsy3YtW.s 			page 4


  93              	BusFault_Handler:
  94              	.LFB35:
  85:./User/Src/stm32f10x_it.c **** }
  86:./User/Src/stm32f10x_it.c **** 
  87:./User/Src/stm32f10x_it.c **** /**
  88:./User/Src/stm32f10x_it.c ****   * @brief  This function handles Bus Fault exception.
  89:./User/Src/stm32f10x_it.c ****   * @param  None
  90:./User/Src/stm32f10x_it.c ****   * @retval None
  91:./User/Src/stm32f10x_it.c ****   */
  92:./User/Src/stm32f10x_it.c **** void BusFault_Handler(void)
  93:./User/Src/stm32f10x_it.c **** {
  95              		.loc 1 93 1 view -0
  96              		.cfi_startproc
  97              		@ Volatile: function does not return.
  98              		@ args = 0, pretend = 0, frame = 0
  99              		@ frame_needed = 0, uses_anonymous_args = 0
 100              		@ link register save eliminated.
 101              	.L7:
  94:./User/Src/stm32f10x_it.c ****   /* Go to infinite loop when Bus Fault exception occurs */
  95:./User/Src/stm32f10x_it.c ****   while (1)
 102              		.loc 1 95 3 discriminator 1 view .LVU11
  96:./User/Src/stm32f10x_it.c ****   {
  97:./User/Src/stm32f10x_it.c ****   }
 103              		.loc 1 97 3 discriminator 1 view .LVU12
  95:./User/Src/stm32f10x_it.c ****   {
 104              		.loc 1 95 9 discriminator 1 view .LVU13
 105 0000 FEE7     		b	.L7
 106              		.cfi_endproc
 107              	.LFE35:
 109              		.section	.text.UsageFault_Handler,"ax",%progbits
 110              		.align	1
 111              		.global	UsageFault_Handler
 112              		.syntax unified
 113              		.thumb
 114              		.thumb_func
 115              		.fpu softvfp
 117              	UsageFault_Handler:
 118              	.LFB36:
  98:./User/Src/stm32f10x_it.c **** }
  99:./User/Src/stm32f10x_it.c **** 
 100:./User/Src/stm32f10x_it.c **** /**
 101:./User/Src/stm32f10x_it.c ****   * @brief  This function handles Usage Fault exception.
 102:./User/Src/stm32f10x_it.c ****   * @param  None
 103:./User/Src/stm32f10x_it.c ****   * @retval None
 104:./User/Src/stm32f10x_it.c ****   */
 105:./User/Src/stm32f10x_it.c **** void UsageFault_Handler(void)
 106:./User/Src/stm32f10x_it.c **** {
 119              		.loc 1 106 1 view -0
 120              		.cfi_startproc
 121              		@ Volatile: function does not return.
 122              		@ args = 0, pretend = 0, frame = 0
 123              		@ frame_needed = 0, uses_anonymous_args = 0
 124              		@ link register save eliminated.
 125              	.L9:
 107:./User/Src/stm32f10x_it.c ****   /* Go to infinite loop when Usage Fault exception occurs */
 108:./User/Src/stm32f10x_it.c ****   while (1)
 126              		.loc 1 108 3 discriminator 1 view .LVU15
ARM GAS  /tmp/ccsy3YtW.s 			page 5


 109:./User/Src/stm32f10x_it.c ****   {
 110:./User/Src/stm32f10x_it.c ****   }
 127              		.loc 1 110 3 discriminator 1 view .LVU16
 108:./User/Src/stm32f10x_it.c ****   {
 128              		.loc 1 108 9 discriminator 1 view .LVU17
 129 0000 FEE7     		b	.L9
 130              		.cfi_endproc
 131              	.LFE36:
 133              		.section	.text.SVC_Handler,"ax",%progbits
 134              		.align	1
 135              		.global	SVC_Handler
 136              		.syntax unified
 137              		.thumb
 138              		.thumb_func
 139              		.fpu softvfp
 141              	SVC_Handler:
 142              	.LFB37:
 111:./User/Src/stm32f10x_it.c **** }
 112:./User/Src/stm32f10x_it.c **** 
 113:./User/Src/stm32f10x_it.c **** /**
 114:./User/Src/stm32f10x_it.c ****   * @brief  This function handles SVCall exception.
 115:./User/Src/stm32f10x_it.c ****   * @param  None
 116:./User/Src/stm32f10x_it.c ****   * @retval None
 117:./User/Src/stm32f10x_it.c ****   */
 118:./User/Src/stm32f10x_it.c **** void SVC_Handler(void)
 119:./User/Src/stm32f10x_it.c **** {
 143              		.loc 1 119 1 view -0
 144              		.cfi_startproc
 145              		@ args = 0, pretend = 0, frame = 0
 146              		@ frame_needed = 0, uses_anonymous_args = 0
 147              		@ link register save eliminated.
 120:./User/Src/stm32f10x_it.c **** }
 148              		.loc 1 120 1 view .LVU19
 149 0000 7047     		bx	lr
 150              		.cfi_endproc
 151              	.LFE37:
 153              		.section	.text.DebugMon_Handler,"ax",%progbits
 154              		.align	1
 155              		.global	DebugMon_Handler
 156              		.syntax unified
 157              		.thumb
 158              		.thumb_func
 159              		.fpu softvfp
 161              	DebugMon_Handler:
 162              	.LFB38:
 121:./User/Src/stm32f10x_it.c **** 
 122:./User/Src/stm32f10x_it.c **** /**
 123:./User/Src/stm32f10x_it.c ****   * @brief  This function handles Debug Monitor exception.
 124:./User/Src/stm32f10x_it.c ****   * @param  None
 125:./User/Src/stm32f10x_it.c ****   * @retval None
 126:./User/Src/stm32f10x_it.c ****   */
 127:./User/Src/stm32f10x_it.c **** void DebugMon_Handler(void)
 128:./User/Src/stm32f10x_it.c **** {
 163              		.loc 1 128 1 view -0
 164              		.cfi_startproc
 165              		@ args = 0, pretend = 0, frame = 0
 166              		@ frame_needed = 0, uses_anonymous_args = 0
ARM GAS  /tmp/ccsy3YtW.s 			page 6


 167              		@ link register save eliminated.
 129:./User/Src/stm32f10x_it.c **** }
 168              		.loc 1 129 1 view .LVU21
 169 0000 7047     		bx	lr
 170              		.cfi_endproc
 171              	.LFE38:
 173              		.section	.text.PendSV_Handler,"ax",%progbits
 174              		.align	1
 175              		.global	PendSV_Handler
 176              		.syntax unified
 177              		.thumb
 178              		.thumb_func
 179              		.fpu softvfp
 181              	PendSV_Handler:
 182              	.LFB39:
 130:./User/Src/stm32f10x_it.c **** 
 131:./User/Src/stm32f10x_it.c **** /**
 132:./User/Src/stm32f10x_it.c ****   * @brief  This function handles PendSVC exception.
 133:./User/Src/stm32f10x_it.c ****   * @param  None
 134:./User/Src/stm32f10x_it.c ****   * @retval None
 135:./User/Src/stm32f10x_it.c ****   */
 136:./User/Src/stm32f10x_it.c **** void PendSV_Handler(void)
 137:./User/Src/stm32f10x_it.c **** {
 183              		.loc 1 137 1 view -0
 184              		.cfi_startproc
 185              		@ args = 0, pretend = 0, frame = 0
 186              		@ frame_needed = 0, uses_anonymous_args = 0
 187              		@ link register save eliminated.
 138:./User/Src/stm32f10x_it.c **** }
 188              		.loc 1 138 1 view .LVU23
 189 0000 7047     		bx	lr
 190              		.cfi_endproc
 191              	.LFE39:
 193              		.section	.text.SysTick_Handler,"ax",%progbits
 194              		.align	1
 195              		.global	SysTick_Handler
 196              		.syntax unified
 197              		.thumb
 198              		.thumb_func
 199              		.fpu softvfp
 201              	SysTick_Handler:
 202              	.LFB40:
 139:./User/Src/stm32f10x_it.c **** 
 140:./User/Src/stm32f10x_it.c **** /**
 141:./User/Src/stm32f10x_it.c ****   * @brief  This function handles SysTick Handler.
 142:./User/Src/stm32f10x_it.c ****   * @param  None
 143:./User/Src/stm32f10x_it.c ****   * @retval None
 144:./User/Src/stm32f10x_it.c ****   */
 145:./User/Src/stm32f10x_it.c **** void SysTick_Handler(void)
 146:./User/Src/stm32f10x_it.c **** {
 203              		.loc 1 146 1 view -0
 204              		.cfi_startproc
 205              		@ args = 0, pretend = 0, frame = 0
 206              		@ frame_needed = 0, uses_anonymous_args = 0
 207              		@ link register save eliminated.
 147:./User/Src/stm32f10x_it.c **** 
 148:./User/Src/stm32f10x_it.c **** }
ARM GAS  /tmp/ccsy3YtW.s 			page 7


 208              		.loc 1 148 1 view .LVU25
 209 0000 7047     		bx	lr
 210              		.cfi_endproc
 211              	.LFE40:
 213              		.section	.text.USART1_IRQHandler,"ax",%progbits
 214              		.align	1
 215              		.global	USART1_IRQHandler
 216              		.syntax unified
 217              		.thumb
 218              		.thumb_func
 219              		.fpu softvfp
 221              	USART1_IRQHandler:
 222              	.LFB41:
 149:./User/Src/stm32f10x_it.c **** 
 150:./User/Src/stm32f10x_it.c **** 
 151:./User/Src/stm32f10x_it.c **** /******************************************************************************/
 152:./User/Src/stm32f10x_it.c **** /*                 STM32F10x Peripherals Interrupt Handlers                   */
 153:./User/Src/stm32f10x_it.c **** /*  Add here the Interrupt Handler for the used peripheral(s) (PPP), for the  */
 154:./User/Src/stm32f10x_it.c **** /*  available peripheral interrupt handler's name please refer to the startup */
 155:./User/Src/stm32f10x_it.c **** /*  file (startup_stm32f10x_xx.s).                                            */
 156:./User/Src/stm32f10x_it.c **** /******************************************************************************/
 157:./User/Src/stm32f10x_it.c **** 
 158:./User/Src/stm32f10x_it.c **** /**
 159:./User/Src/stm32f10x_it.c ****   * @brief  串口1中断服务函数
 160:./User/Src/stm32f10x_it.c ****   * @param  None
 161:./User/Src/stm32f10x_it.c ****   * @retval None
 162:./User/Src/stm32f10x_it.c ****   */
 163:./User/Src/stm32f10x_it.c **** void DEBUG_USART_IRQHandler(void)
 164:./User/Src/stm32f10x_it.c **** {
 223              		.loc 1 164 1 view -0
 224              		.cfi_startproc
 225              		@ args = 0, pretend = 0, frame = 0
 226              		@ frame_needed = 0, uses_anonymous_args = 0
 227 0000 08B5     		push	{r3, lr}
 228              	.LCFI0:
 229              		.cfi_def_cfa_offset 8
 230              		.cfi_offset 3, -8
 231              		.cfi_offset 14, -4
 165:./User/Src/stm32f10x_it.c ****   uint8_t ucCh;
 232              		.loc 1 165 3 view .LVU27
 166:./User/Src/stm32f10x_it.c **** 	if ( USART_GetITStatus ( DEBUG_USARTx, USART_IT_RXNE ) != RESET )
 233              		.loc 1 166 2 view .LVU28
 234              		.loc 1 166 7 is_stmt 0 view .LVU29
 235 0002 40F22551 		movw	r1, #1317
 236 0006 1948     		ldr	r0, .L20
 237 0008 FFF7FEFF 		bl	USART_GetITStatus
 238              	.LVL0:
 239              		.loc 1 166 5 view .LVU30
 240 000c 38B9     		cbnz	r0, .L18
 241              	.L15:
 167:./User/Src/stm32f10x_it.c **** 	{
 168:./User/Src/stm32f10x_it.c **** 		ucCh  = USART_ReceiveData( DEBUG_USARTx );
 169:./User/Src/stm32f10x_it.c **** 		
 170:./User/Src/stm32f10x_it.c **** 		if ( strUSART_Fram_Record .InfBit .FramLength < ( RX_BUF_MAX_LEN - 1 ) )                       //
 171:./User/Src/stm32f10x_it.c **** 			   strUSART_Fram_Record .Data_RX_BUF [ strUSART_Fram_Record .InfBit .FramLength ++ ]  = ucCh;
 172:./User/Src/stm32f10x_it.c **** 
 173:./User/Src/stm32f10x_it.c **** 	}
ARM GAS  /tmp/ccsy3YtW.s 			page 8


 174:./User/Src/stm32f10x_it.c **** 	 	 
 175:./User/Src/stm32f10x_it.c **** 	if ( USART_GetITStatus( DEBUG_USARTx, USART_IT_IDLE ) == SET )                                    
 242              		.loc 1 175 2 is_stmt 1 view .LVU31
 243              		.loc 1 175 7 is_stmt 0 view .LVU32
 244 000e 40F22441 		movw	r1, #1060
 245 0012 1648     		ldr	r0, .L20
 246 0014 FFF7FEFF 		bl	USART_GetITStatus
 247              	.LVL1:
 248              		.loc 1 175 5 view .LVU33
 249 0018 0128     		cmp	r0, #1
 250 001a 1CD0     		beq	.L19
 251              	.L14:
 176:./User/Src/stm32f10x_it.c **** 	{
 177:./User/Src/stm32f10x_it.c ****     strUSART_Fram_Record .InfBit .FramFinishFlag = 1;		
 178:./User/Src/stm32f10x_it.c **** 		
 179:./User/Src/stm32f10x_it.c **** 		ucCh = USART_ReceiveData( DEBUG_USARTx );                                                        
 180:./User/Src/stm32f10x_it.c ****   }	
 181:./User/Src/stm32f10x_it.c **** }
 252              		.loc 1 181 1 view .LVU34
 253 001c 08BD     		pop	{r3, pc}
 254              	.L18:
 168:./User/Src/stm32f10x_it.c **** 		
 255              		.loc 1 168 3 is_stmt 1 view .LVU35
 168:./User/Src/stm32f10x_it.c **** 		
 256              		.loc 1 168 11 is_stmt 0 view .LVU36
 257 001e 1348     		ldr	r0, .L20
 258 0020 FFF7FEFF 		bl	USART_ReceiveData
 259              	.LVL2:
 168:./User/Src/stm32f10x_it.c **** 		
 260              		.loc 1 168 9 view .LVU37
 261 0024 C0B2     		uxtb	r0, r0
 262              	.LVL3:
 170:./User/Src/stm32f10x_it.c **** 			   strUSART_Fram_Record .Data_RX_BUF [ strUSART_Fram_Record .InfBit .FramLength ++ ]  = ucCh;
 263              		.loc 1 170 3 is_stmt 1 view .LVU38
 170:./User/Src/stm32f10x_it.c **** 			   strUSART_Fram_Record .Data_RX_BUF [ strUSART_Fram_Record .InfBit .FramLength ++ ]  = ucCh;
 264              		.loc 1 170 37 is_stmt 0 view .LVU39
 265 0026 124B     		ldr	r3, .L20+4
 266 0028 B3F80034 		ldrh	r3, [r3, #1024]
 267 002c C3F30E03 		ubfx	r3, r3, #0, #15
 170:./User/Src/stm32f10x_it.c **** 			   strUSART_Fram_Record .Data_RX_BUF [ strUSART_Fram_Record .InfBit .FramLength ++ ]  = ucCh;
 268              		.loc 1 170 6 view .LVU40
 269 0030 40F2FE32 		movw	r2, #1022
 270 0034 9342     		cmp	r3, r2
 271 0036 EAD8     		bhi	.L15
 171:./User/Src/stm32f10x_it.c **** 
 272              		.loc 1 171 7 is_stmt 1 view .LVU41
 171:./User/Src/stm32f10x_it.c **** 
 273              		.loc 1 171 72 is_stmt 0 view .LVU42
 274 0038 0D4A     		ldr	r2, .L20+4
 275 003a B2F80034 		ldrh	r3, [r2, #1024]
 276 003e C3F30E03 		ubfx	r3, r3, #0, #15
 171:./User/Src/stm32f10x_it.c **** 
 277              		.loc 1 171 84 view .LVU43
 278 0042 03F1010C 		add	ip, r3, #1
 279 0046 B2F80014 		ldrh	r1, [r2, #1024]
 280 004a 6CF30E01 		bfi	r1, ip, #0, #15
 281 004e A2F80014 		strh	r1, [r2, #1024]	@ movhi
ARM GAS  /tmp/ccsy3YtW.s 			page 9


 171:./User/Src/stm32f10x_it.c **** 
 282              		.loc 1 171 90 view .LVU44
 283 0052 D054     		strb	r0, [r2, r3]
 284 0054 DBE7     		b	.L15
 285              	.LVL4:
 286              	.L19:
 177:./User/Src/stm32f10x_it.c **** 		
 287              		.loc 1 177 5 is_stmt 1 view .LVU45
 177:./User/Src/stm32f10x_it.c **** 		
 288              		.loc 1 177 50 is_stmt 0 view .LVU46
 289 0056 064A     		ldr	r2, .L20+4
 290 0058 B2F80034 		ldrh	r3, [r2, #1024]
 291 005c 43F40043 		orr	r3, r3, #32768
 292 0060 A2F80034 		strh	r3, [r2, #1024]	@ movhi
 179:./User/Src/stm32f10x_it.c ****   }	
 293              		.loc 1 179 3 is_stmt 1 view .LVU47
 179:./User/Src/stm32f10x_it.c ****   }	
 294              		.loc 1 179 10 is_stmt 0 view .LVU48
 295 0064 0148     		ldr	r0, .L20
 296 0066 FFF7FEFF 		bl	USART_ReceiveData
 297              	.LVL5:
 298              		.loc 1 181 1 view .LVU49
 299 006a D7E7     		b	.L14
 300              	.L21:
 301              		.align	2
 302              	.L20:
 303 006c 00380140 		.word	1073821696
 304 0070 00000000 		.word	strUSART_Fram_Record
 305              		.cfi_endproc
 306              	.LFE41:
 308              		.section	.rodata.USART2_IRQHandler.str1.4,"aMS",%progbits,1
 309              		.align	2
 310              	.LC0:
 311 0000 434C4F53 		.ascii	"CLOSED\015\012\000"
 311      45440D0A 
 311      00
 312              		.section	.text.USART2_IRQHandler,"ax",%progbits
 313              		.align	1
 314              		.global	USART2_IRQHandler
 315              		.syntax unified
 316              		.thumb
 317              		.thumb_func
 318              		.fpu softvfp
 320              	USART2_IRQHandler:
 321              	.LFB42:
 182:./User/Src/stm32f10x_it.c **** 
 183:./User/Src/stm32f10x_it.c **** /**
 184:./User/Src/stm32f10x_it.c ****   * @brief  This function handles macESP8266_USARTx Handler.
 185:./User/Src/stm32f10x_it.c ****   * @param  None
 186:./User/Src/stm32f10x_it.c ****   * @retval None
 187:./User/Src/stm32f10x_it.c ****   */
 188:./User/Src/stm32f10x_it.c **** void macESP8266_USART_INT_FUN ( void )
 189:./User/Src/stm32f10x_it.c **** {	
 322              		.loc 1 189 1 is_stmt 1 view -0
 323              		.cfi_startproc
 324              		@ args = 0, pretend = 0, frame = 0
 325              		@ frame_needed = 0, uses_anonymous_args = 0
ARM GAS  /tmp/ccsy3YtW.s 			page 10


 326 0000 10B5     		push	{r4, lr}
 327              	.LCFI1:
 328              		.cfi_def_cfa_offset 8
 329              		.cfi_offset 4, -8
 330              		.cfi_offset 14, -4
 190:./User/Src/stm32f10x_it.c **** 	uint8_t ucCh;
 331              		.loc 1 190 2 view .LVU51
 191:./User/Src/stm32f10x_it.c **** 	
 192:./User/Src/stm32f10x_it.c **** 	if ( USART_GetITStatus ( macESP8266_USARTx, USART_IT_RXNE ) != RESET )
 332              		.loc 1 192 2 view .LVU52
 333              		.loc 1 192 7 is_stmt 0 view .LVU53
 334 0002 40F22551 		movw	r1, #1317
 335 0006 1D48     		ldr	r0, .L28
 336 0008 FFF7FEFF 		bl	USART_GetITStatus
 337              	.LVL6:
 338              		.loc 1 192 5 view .LVU54
 339 000c 38B9     		cbnz	r0, .L26
 340              	.L23:
 193:./User/Src/stm32f10x_it.c **** 	{
 194:./User/Src/stm32f10x_it.c **** 		ucCh  = USART_ReceiveData( macESP8266_USARTx );
 195:./User/Src/stm32f10x_it.c **** 		
 196:./User/Src/stm32f10x_it.c **** 		if ( strEsp8266_Fram_Record .InfBit .FramLength < ( RX_BUF_MAX_LEN - 1 ) )                       
 197:./User/Src/stm32f10x_it.c **** 			strEsp8266_Fram_Record .Data_RX_BUF [ strEsp8266_Fram_Record .InfBit .FramLength ++ ]  = ucCh;
 198:./User/Src/stm32f10x_it.c ****     
 199:./User/Src/stm32f10x_it.c **** 	}
 200:./User/Src/stm32f10x_it.c **** 	 	 
 201:./User/Src/stm32f10x_it.c **** 	if ( USART_GetITStatus( macESP8266_USARTx, USART_IT_IDLE ) == SET )                               
 341              		.loc 1 201 2 is_stmt 1 view .LVU55
 342              		.loc 1 201 7 is_stmt 0 view .LVU56
 343 000e 40F22441 		movw	r1, #1060
 344 0012 1A48     		ldr	r0, .L28
 345 0014 FFF7FEFF 		bl	USART_GetITStatus
 346              	.LVL7:
 347              		.loc 1 201 5 view .LVU57
 348 0018 0128     		cmp	r0, #1
 349 001a 1BD0     		beq	.L27
 350              	.L22:
 202:./User/Src/stm32f10x_it.c **** 	{
 203:./User/Src/stm32f10x_it.c ****     strEsp8266_Fram_Record .InfBit .FramFinishFlag = 1;
 204:./User/Src/stm32f10x_it.c **** 		
 205:./User/Src/stm32f10x_it.c **** 		ucCh = USART_ReceiveData( macESP8266_USARTx );                                                   
 206:./User/Src/stm32f10x_it.c **** 	
 207:./User/Src/stm32f10x_it.c **** 		ucTcpClosedFlag = strstr ( strEsp8266_Fram_Record .Data_RX_BUF, "CLOSED\r\n" ) ? 1 : 0;          
 208:./User/Src/stm32f10x_it.c **** 		
 209:./User/Src/stm32f10x_it.c ****   }	
 210:./User/Src/stm32f10x_it.c **** 
 211:./User/Src/stm32f10x_it.c **** }
 351              		.loc 1 211 1 view .LVU58
 352 001c 10BD     		pop	{r4, pc}
 353              	.L26:
 194:./User/Src/stm32f10x_it.c **** 		
 354              		.loc 1 194 3 is_stmt 1 view .LVU59
 194:./User/Src/stm32f10x_it.c **** 		
 355              		.loc 1 194 11 is_stmt 0 view .LVU60
 356 001e 1748     		ldr	r0, .L28
 357 0020 FFF7FEFF 		bl	USART_ReceiveData
 358              	.LVL8:
ARM GAS  /tmp/ccsy3YtW.s 			page 11


 194:./User/Src/stm32f10x_it.c **** 		
 359              		.loc 1 194 9 view .LVU61
 360 0024 C0B2     		uxtb	r0, r0
 361              	.LVL9:
 196:./User/Src/stm32f10x_it.c **** 			strEsp8266_Fram_Record .Data_RX_BUF [ strEsp8266_Fram_Record .InfBit .FramLength ++ ]  = ucCh;
 362              		.loc 1 196 3 is_stmt 1 view .LVU62
 196:./User/Src/stm32f10x_it.c **** 			strEsp8266_Fram_Record .Data_RX_BUF [ strEsp8266_Fram_Record .InfBit .FramLength ++ ]  = ucCh;
 363              		.loc 1 196 39 is_stmt 0 view .LVU63
 364 0026 164B     		ldr	r3, .L28+4
 365 0028 B3F80034 		ldrh	r3, [r3, #1024]
 366 002c C3F30E03 		ubfx	r3, r3, #0, #15
 196:./User/Src/stm32f10x_it.c **** 			strEsp8266_Fram_Record .Data_RX_BUF [ strEsp8266_Fram_Record .InfBit .FramLength ++ ]  = ucCh;
 367              		.loc 1 196 6 view .LVU64
 368 0030 40F2FE32 		movw	r2, #1022
 369 0034 9342     		cmp	r3, r2
 370 0036 EAD8     		bhi	.L23
 197:./User/Src/stm32f10x_it.c ****     
 371              		.loc 1 197 4 is_stmt 1 view .LVU65
 197:./User/Src/stm32f10x_it.c ****     
 372              		.loc 1 197 73 is_stmt 0 view .LVU66
 373 0038 114A     		ldr	r2, .L28+4
 374 003a B2F80034 		ldrh	r3, [r2, #1024]
 375 003e C3F30E03 		ubfx	r3, r3, #0, #15
 197:./User/Src/stm32f10x_it.c ****     
 376              		.loc 1 197 85 view .LVU67
 377 0042 5C1C     		adds	r4, r3, #1
 378 0044 B2F80014 		ldrh	r1, [r2, #1024]
 379 0048 64F30E01 		bfi	r1, r4, #0, #15
 380 004c A2F80014 		strh	r1, [r2, #1024]	@ movhi
 197:./User/Src/stm32f10x_it.c ****     
 381              		.loc 1 197 91 view .LVU68
 382 0050 D054     		strb	r0, [r2, r3]
 383 0052 DCE7     		b	.L23
 384              	.LVL10:
 385              	.L27:
 203:./User/Src/stm32f10x_it.c **** 		
 386              		.loc 1 203 5 is_stmt 1 view .LVU69
 203:./User/Src/stm32f10x_it.c **** 		
 387              		.loc 1 203 52 is_stmt 0 view .LVU70
 388 0054 0A4C     		ldr	r4, .L28+4
 389 0056 B4F80034 		ldrh	r3, [r4, #1024]
 390 005a 43F40043 		orr	r3, r3, #32768
 391 005e A4F80034 		strh	r3, [r4, #1024]	@ movhi
 205:./User/Src/stm32f10x_it.c **** 	
 392              		.loc 1 205 3 is_stmt 1 view .LVU71
 205:./User/Src/stm32f10x_it.c **** 	
 393              		.loc 1 205 10 is_stmt 0 view .LVU72
 394 0062 0648     		ldr	r0, .L28
 395 0064 FFF7FEFF 		bl	USART_ReceiveData
 396              	.LVL11:
 207:./User/Src/stm32f10x_it.c **** 		
 397              		.loc 1 207 3 is_stmt 1 view .LVU73
 207:./User/Src/stm32f10x_it.c **** 		
 398              		.loc 1 207 21 is_stmt 0 view .LVU74
 399 0068 0649     		ldr	r1, .L28+8
 400 006a 2046     		mov	r0, r4
 401 006c FFF7FEFF 		bl	strstr
ARM GAS  /tmp/ccsy3YtW.s 			page 12


 402              	.LVL12:
 207:./User/Src/stm32f10x_it.c **** 		
 403              		.loc 1 207 86 view .LVU75
 404 0070 0038     		subs	r0, r0, #0
 405 0072 18BF     		it	ne
 406 0074 0120     		movne	r0, #1
 207:./User/Src/stm32f10x_it.c **** 		
 407              		.loc 1 207 19 view .LVU76
 408 0076 044B     		ldr	r3, .L28+12
 409 0078 1870     		strb	r0, [r3]
 410              		.loc 1 211 1 view .LVU77
 411 007a CFE7     		b	.L22
 412              	.L29:
 413              		.align	2
 414              	.L28:
 415 007c 00440040 		.word	1073759232
 416 0080 00000000 		.word	strEsp8266_Fram_Record
 417 0084 00000000 		.word	.LC0
 418 0088 00000000 		.word	ucTcpClosedFlag
 419              		.cfi_endproc
 420              	.LFE42:
 422              		.text
 423              	.Letext0:
 424              		.file 2 "/home/hao/Documents/gcc-arm-none-eabi/arm-none-eabi/include/machine/_default_types.h"
 425              		.file 3 "/home/hao/Documents/gcc-arm-none-eabi/arm-none-eabi/include/sys/_stdint.h"
 426              		.file 4 "./Libraries/CMSIS/stm32f10x.h"
 427              		.file 5 "./Hardware/ESP8266/bsp_esp8266.h"
 428              		.file 6 "./Hardware/ESP8266/bsp_esp8266_test.h"
 429              		.file 7 "./Libraries/STM32F10x_StdPeriph_Driver/inc/stm32f10x_usart.h"
 430              		.file 8 "/home/hao/Documents/gcc-arm-none-eabi/arm-none-eabi/include/string.h"
ARM GAS  /tmp/ccsy3YtW.s 			page 13

