ARM GAS  /tmp/ccV0cNik.s 			page 1


   1              		.cpu cortex-m3
   2              		.eabi_attribute 20, 1
   3              		.eabi_attribute 21, 1
   4              		.eabi_attribute 23, 3
   5              		.eabi_attribute 24, 1
   6              		.eabi_attribute 25, 1
   7              		.eabi_attribute 26, 1
   8              		.eabi_attribute 30, 1
   9              		.eabi_attribute 34, 1
  10              		.eabi_attribute 18, 4
  11              		.file	"stm32f10x_flash.c"
  12              		.text
  13              	.Ltext0:
  14              		.cfi_sections	.debug_frame
  15              		.section	.text.FLASH_SetLatency,"ax",%progbits
  16              		.align	1
  17              		.global	FLASH_SetLatency
  18              		.arch armv7-m
  19              		.syntax unified
  20              		.thumb
  21              		.thumb_func
  22              		.fpu softvfp
  24              	FLASH_SetLatency:
  25              	.LVL0:
  26              	.LFB29:
  27              		.file 1 "./Libraries/STM32F10x_StdPeriph_Driver/src/stm32f10x_flash.c"
   1:./Libraries/STM32F10x_StdPeriph_Driver/src/stm32f10x_flash.c **** /**
   2:./Libraries/STM32F10x_StdPeriph_Driver/src/stm32f10x_flash.c ****   ******************************************************************************
   3:./Libraries/STM32F10x_StdPeriph_Driver/src/stm32f10x_flash.c ****   * @file    stm32f10x_flash.c
   4:./Libraries/STM32F10x_StdPeriph_Driver/src/stm32f10x_flash.c ****   * @author  MCD Application Team
   5:./Libraries/STM32F10x_StdPeriph_Driver/src/stm32f10x_flash.c ****   * @version V3.5.0
   6:./Libraries/STM32F10x_StdPeriph_Driver/src/stm32f10x_flash.c ****   * @date    11-March-2011
   7:./Libraries/STM32F10x_StdPeriph_Driver/src/stm32f10x_flash.c ****   * @brief   This file provides all the FLASH firmware functions.
   8:./Libraries/STM32F10x_StdPeriph_Driver/src/stm32f10x_flash.c ****   ******************************************************************************
   9:./Libraries/STM32F10x_StdPeriph_Driver/src/stm32f10x_flash.c ****   * @attention
  10:./Libraries/STM32F10x_StdPeriph_Driver/src/stm32f10x_flash.c ****   *
  11:./Libraries/STM32F10x_StdPeriph_Driver/src/stm32f10x_flash.c ****   * THE PRESENT FIRMWARE WHICH IS FOR GUIDANCE ONLY AIMS AT PROVIDING CUSTOMERS
  12:./Libraries/STM32F10x_StdPeriph_Driver/src/stm32f10x_flash.c ****   * WITH CODING INFORMATION REGARDING THEIR PRODUCTS IN ORDER FOR THEM TO SAVE
  13:./Libraries/STM32F10x_StdPeriph_Driver/src/stm32f10x_flash.c ****   * TIME. AS A RESULT, STMICROELECTRONICS SHALL NOT BE HELD LIABLE FOR ANY
  14:./Libraries/STM32F10x_StdPeriph_Driver/src/stm32f10x_flash.c ****   * DIRECT, INDIRECT OR CONSEQUENTIAL DAMAGES WITH RESPECT TO ANY CLAIMS ARISING
  15:./Libraries/STM32F10x_StdPeriph_Driver/src/stm32f10x_flash.c ****   * FROM THE CONTENT OF SUCH FIRMWARE AND/OR THE USE MADE BY CUSTOMERS OF THE
  16:./Libraries/STM32F10x_StdPeriph_Driver/src/stm32f10x_flash.c ****   * CODING INFORMATION CONTAINED HEREIN IN CONNECTION WITH THEIR PRODUCTS.
  17:./Libraries/STM32F10x_StdPeriph_Driver/src/stm32f10x_flash.c ****   *
  18:./Libraries/STM32F10x_StdPeriph_Driver/src/stm32f10x_flash.c ****   * <h2><center>&copy; COPYRIGHT 2011 STMicroelectronics</center></h2>
  19:./Libraries/STM32F10x_StdPeriph_Driver/src/stm32f10x_flash.c ****   ******************************************************************************
  20:./Libraries/STM32F10x_StdPeriph_Driver/src/stm32f10x_flash.c ****   */
  21:./Libraries/STM32F10x_StdPeriph_Driver/src/stm32f10x_flash.c **** 
  22:./Libraries/STM32F10x_StdPeriph_Driver/src/stm32f10x_flash.c **** /* Includes ------------------------------------------------------------------*/
  23:./Libraries/STM32F10x_StdPeriph_Driver/src/stm32f10x_flash.c **** #include "stm32f10x_flash.h"
  24:./Libraries/STM32F10x_StdPeriph_Driver/src/stm32f10x_flash.c **** 
  25:./Libraries/STM32F10x_StdPeriph_Driver/src/stm32f10x_flash.c **** /** @addtogroup STM32F10x_StdPeriph_Driver
  26:./Libraries/STM32F10x_StdPeriph_Driver/src/stm32f10x_flash.c ****   * @{
  27:./Libraries/STM32F10x_StdPeriph_Driver/src/stm32f10x_flash.c ****   */
  28:./Libraries/STM32F10x_StdPeriph_Driver/src/stm32f10x_flash.c **** 
  29:./Libraries/STM32F10x_StdPeriph_Driver/src/stm32f10x_flash.c **** /** @defgroup FLASH 
  30:./Libraries/STM32F10x_StdPeriph_Driver/src/stm32f10x_flash.c ****   * @brief FLASH driver modules
  31:./Libraries/STM32F10x_StdPeriph_Driver/src/stm32f10x_flash.c ****   * @{
ARM GAS  /tmp/ccV0cNik.s 			page 2


  32:./Libraries/STM32F10x_StdPeriph_Driver/src/stm32f10x_flash.c ****   */ 
  33:./Libraries/STM32F10x_StdPeriph_Driver/src/stm32f10x_flash.c **** 
  34:./Libraries/STM32F10x_StdPeriph_Driver/src/stm32f10x_flash.c **** /** @defgroup FLASH_Private_TypesDefinitions
  35:./Libraries/STM32F10x_StdPeriph_Driver/src/stm32f10x_flash.c ****   * @{
  36:./Libraries/STM32F10x_StdPeriph_Driver/src/stm32f10x_flash.c ****   */
  37:./Libraries/STM32F10x_StdPeriph_Driver/src/stm32f10x_flash.c **** 
  38:./Libraries/STM32F10x_StdPeriph_Driver/src/stm32f10x_flash.c **** /**
  39:./Libraries/STM32F10x_StdPeriph_Driver/src/stm32f10x_flash.c ****   * @}
  40:./Libraries/STM32F10x_StdPeriph_Driver/src/stm32f10x_flash.c ****   */ 
  41:./Libraries/STM32F10x_StdPeriph_Driver/src/stm32f10x_flash.c **** 
  42:./Libraries/STM32F10x_StdPeriph_Driver/src/stm32f10x_flash.c **** /** @defgroup FLASH_Private_Defines
  43:./Libraries/STM32F10x_StdPeriph_Driver/src/stm32f10x_flash.c ****   * @{
  44:./Libraries/STM32F10x_StdPeriph_Driver/src/stm32f10x_flash.c ****   */ 
  45:./Libraries/STM32F10x_StdPeriph_Driver/src/stm32f10x_flash.c **** 
  46:./Libraries/STM32F10x_StdPeriph_Driver/src/stm32f10x_flash.c **** /* Flash Access Control Register bits */
  47:./Libraries/STM32F10x_StdPeriph_Driver/src/stm32f10x_flash.c **** #define ACR_LATENCY_Mask         ((uint32_t)0x00000038)
  48:./Libraries/STM32F10x_StdPeriph_Driver/src/stm32f10x_flash.c **** #define ACR_HLFCYA_Mask          ((uint32_t)0xFFFFFFF7)
  49:./Libraries/STM32F10x_StdPeriph_Driver/src/stm32f10x_flash.c **** #define ACR_PRFTBE_Mask          ((uint32_t)0xFFFFFFEF)
  50:./Libraries/STM32F10x_StdPeriph_Driver/src/stm32f10x_flash.c **** 
  51:./Libraries/STM32F10x_StdPeriph_Driver/src/stm32f10x_flash.c **** /* Flash Access Control Register bits */
  52:./Libraries/STM32F10x_StdPeriph_Driver/src/stm32f10x_flash.c **** #define ACR_PRFTBS_Mask          ((uint32_t)0x00000020) 
  53:./Libraries/STM32F10x_StdPeriph_Driver/src/stm32f10x_flash.c **** 
  54:./Libraries/STM32F10x_StdPeriph_Driver/src/stm32f10x_flash.c **** /* Flash Control Register bits */
  55:./Libraries/STM32F10x_StdPeriph_Driver/src/stm32f10x_flash.c **** #define CR_PG_Set                ((uint32_t)0x00000001)
  56:./Libraries/STM32F10x_StdPeriph_Driver/src/stm32f10x_flash.c **** #define CR_PG_Reset              ((uint32_t)0x00001FFE) 
  57:./Libraries/STM32F10x_StdPeriph_Driver/src/stm32f10x_flash.c **** #define CR_PER_Set               ((uint32_t)0x00000002)
  58:./Libraries/STM32F10x_StdPeriph_Driver/src/stm32f10x_flash.c **** #define CR_PER_Reset             ((uint32_t)0x00001FFD)
  59:./Libraries/STM32F10x_StdPeriph_Driver/src/stm32f10x_flash.c **** #define CR_MER_Set               ((uint32_t)0x00000004)
  60:./Libraries/STM32F10x_StdPeriph_Driver/src/stm32f10x_flash.c **** #define CR_MER_Reset             ((uint32_t)0x00001FFB)
  61:./Libraries/STM32F10x_StdPeriph_Driver/src/stm32f10x_flash.c **** #define CR_OPTPG_Set             ((uint32_t)0x00000010)
  62:./Libraries/STM32F10x_StdPeriph_Driver/src/stm32f10x_flash.c **** #define CR_OPTPG_Reset           ((uint32_t)0x00001FEF)
  63:./Libraries/STM32F10x_StdPeriph_Driver/src/stm32f10x_flash.c **** #define CR_OPTER_Set             ((uint32_t)0x00000020)
  64:./Libraries/STM32F10x_StdPeriph_Driver/src/stm32f10x_flash.c **** #define CR_OPTER_Reset           ((uint32_t)0x00001FDF)
  65:./Libraries/STM32F10x_StdPeriph_Driver/src/stm32f10x_flash.c **** #define CR_STRT_Set              ((uint32_t)0x00000040)
  66:./Libraries/STM32F10x_StdPeriph_Driver/src/stm32f10x_flash.c **** #define CR_LOCK_Set              ((uint32_t)0x00000080)
  67:./Libraries/STM32F10x_StdPeriph_Driver/src/stm32f10x_flash.c **** 
  68:./Libraries/STM32F10x_StdPeriph_Driver/src/stm32f10x_flash.c **** /* FLASH Mask */
  69:./Libraries/STM32F10x_StdPeriph_Driver/src/stm32f10x_flash.c **** #define RDPRT_Mask               ((uint32_t)0x00000002)
  70:./Libraries/STM32F10x_StdPeriph_Driver/src/stm32f10x_flash.c **** #define WRP0_Mask                ((uint32_t)0x000000FF)
  71:./Libraries/STM32F10x_StdPeriph_Driver/src/stm32f10x_flash.c **** #define WRP1_Mask                ((uint32_t)0x0000FF00)
  72:./Libraries/STM32F10x_StdPeriph_Driver/src/stm32f10x_flash.c **** #define WRP2_Mask                ((uint32_t)0x00FF0000)
  73:./Libraries/STM32F10x_StdPeriph_Driver/src/stm32f10x_flash.c **** #define WRP3_Mask                ((uint32_t)0xFF000000)
  74:./Libraries/STM32F10x_StdPeriph_Driver/src/stm32f10x_flash.c **** #define OB_USER_BFB2             ((uint16_t)0x0008)
  75:./Libraries/STM32F10x_StdPeriph_Driver/src/stm32f10x_flash.c **** 
  76:./Libraries/STM32F10x_StdPeriph_Driver/src/stm32f10x_flash.c **** /* FLASH Keys */
  77:./Libraries/STM32F10x_StdPeriph_Driver/src/stm32f10x_flash.c **** #define RDP_Key                  ((uint16_t)0x00A5)
  78:./Libraries/STM32F10x_StdPeriph_Driver/src/stm32f10x_flash.c **** #define FLASH_KEY1               ((uint32_t)0x45670123)
  79:./Libraries/STM32F10x_StdPeriph_Driver/src/stm32f10x_flash.c **** #define FLASH_KEY2               ((uint32_t)0xCDEF89AB)
  80:./Libraries/STM32F10x_StdPeriph_Driver/src/stm32f10x_flash.c **** 
  81:./Libraries/STM32F10x_StdPeriph_Driver/src/stm32f10x_flash.c **** /* FLASH BANK address */
  82:./Libraries/STM32F10x_StdPeriph_Driver/src/stm32f10x_flash.c **** #define FLASH_BANK1_END_ADDRESS   ((uint32_t)0x807FFFF)
  83:./Libraries/STM32F10x_StdPeriph_Driver/src/stm32f10x_flash.c **** 
  84:./Libraries/STM32F10x_StdPeriph_Driver/src/stm32f10x_flash.c **** /* Delay definition */   
  85:./Libraries/STM32F10x_StdPeriph_Driver/src/stm32f10x_flash.c **** #define EraseTimeout          ((uint32_t)0x000B0000)
  86:./Libraries/STM32F10x_StdPeriph_Driver/src/stm32f10x_flash.c **** #define ProgramTimeout        ((uint32_t)0x00002000)
  87:./Libraries/STM32F10x_StdPeriph_Driver/src/stm32f10x_flash.c **** /**
  88:./Libraries/STM32F10x_StdPeriph_Driver/src/stm32f10x_flash.c ****   * @}
ARM GAS  /tmp/ccV0cNik.s 			page 3


  89:./Libraries/STM32F10x_StdPeriph_Driver/src/stm32f10x_flash.c ****   */ 
  90:./Libraries/STM32F10x_StdPeriph_Driver/src/stm32f10x_flash.c **** 
  91:./Libraries/STM32F10x_StdPeriph_Driver/src/stm32f10x_flash.c **** /** @defgroup FLASH_Private_Macros
  92:./Libraries/STM32F10x_StdPeriph_Driver/src/stm32f10x_flash.c ****   * @{
  93:./Libraries/STM32F10x_StdPeriph_Driver/src/stm32f10x_flash.c ****   */
  94:./Libraries/STM32F10x_StdPeriph_Driver/src/stm32f10x_flash.c **** 
  95:./Libraries/STM32F10x_StdPeriph_Driver/src/stm32f10x_flash.c **** /**
  96:./Libraries/STM32F10x_StdPeriph_Driver/src/stm32f10x_flash.c ****   * @}
  97:./Libraries/STM32F10x_StdPeriph_Driver/src/stm32f10x_flash.c ****   */ 
  98:./Libraries/STM32F10x_StdPeriph_Driver/src/stm32f10x_flash.c **** 
  99:./Libraries/STM32F10x_StdPeriph_Driver/src/stm32f10x_flash.c **** /** @defgroup FLASH_Private_Variables
 100:./Libraries/STM32F10x_StdPeriph_Driver/src/stm32f10x_flash.c ****   * @{
 101:./Libraries/STM32F10x_StdPeriph_Driver/src/stm32f10x_flash.c ****   */
 102:./Libraries/STM32F10x_StdPeriph_Driver/src/stm32f10x_flash.c **** 
 103:./Libraries/STM32F10x_StdPeriph_Driver/src/stm32f10x_flash.c **** /**
 104:./Libraries/STM32F10x_StdPeriph_Driver/src/stm32f10x_flash.c ****   * @}
 105:./Libraries/STM32F10x_StdPeriph_Driver/src/stm32f10x_flash.c ****   */ 
 106:./Libraries/STM32F10x_StdPeriph_Driver/src/stm32f10x_flash.c **** 
 107:./Libraries/STM32F10x_StdPeriph_Driver/src/stm32f10x_flash.c **** /** @defgroup FLASH_Private_FunctionPrototypes
 108:./Libraries/STM32F10x_StdPeriph_Driver/src/stm32f10x_flash.c ****   * @{
 109:./Libraries/STM32F10x_StdPeriph_Driver/src/stm32f10x_flash.c ****   */
 110:./Libraries/STM32F10x_StdPeriph_Driver/src/stm32f10x_flash.c ****   
 111:./Libraries/STM32F10x_StdPeriph_Driver/src/stm32f10x_flash.c **** /**
 112:./Libraries/STM32F10x_StdPeriph_Driver/src/stm32f10x_flash.c ****   * @}
 113:./Libraries/STM32F10x_StdPeriph_Driver/src/stm32f10x_flash.c ****   */
 114:./Libraries/STM32F10x_StdPeriph_Driver/src/stm32f10x_flash.c **** 
 115:./Libraries/STM32F10x_StdPeriph_Driver/src/stm32f10x_flash.c **** /** @defgroup FLASH_Private_Functions
 116:./Libraries/STM32F10x_StdPeriph_Driver/src/stm32f10x_flash.c ****   * @{
 117:./Libraries/STM32F10x_StdPeriph_Driver/src/stm32f10x_flash.c ****   */
 118:./Libraries/STM32F10x_StdPeriph_Driver/src/stm32f10x_flash.c **** 
 119:./Libraries/STM32F10x_StdPeriph_Driver/src/stm32f10x_flash.c **** /**
 120:./Libraries/STM32F10x_StdPeriph_Driver/src/stm32f10x_flash.c **** @code  
 121:./Libraries/STM32F10x_StdPeriph_Driver/src/stm32f10x_flash.c ****  
 122:./Libraries/STM32F10x_StdPeriph_Driver/src/stm32f10x_flash.c ****  This driver provides functions to configure and program the Flash memory of all STM32F10x devices,
 123:./Libraries/STM32F10x_StdPeriph_Driver/src/stm32f10x_flash.c ****  including the latest STM32F10x_XL density devices. 
 124:./Libraries/STM32F10x_StdPeriph_Driver/src/stm32f10x_flash.c **** 
 125:./Libraries/STM32F10x_StdPeriph_Driver/src/stm32f10x_flash.c ****  STM32F10x_XL devices feature up to 1 Mbyte with dual bank architecture for read-while-write (RWW) 
 126:./Libraries/STM32F10x_StdPeriph_Driver/src/stm32f10x_flash.c ****     - bank1: fixed size of 512 Kbytes (256 pages of 2Kbytes each)
 127:./Libraries/STM32F10x_StdPeriph_Driver/src/stm32f10x_flash.c ****     - bank2: up to 512 Kbytes (up to 256 pages of 2Kbytes each)
 128:./Libraries/STM32F10x_StdPeriph_Driver/src/stm32f10x_flash.c ****  While other STM32F10x devices features only one bank with memory up to 512 Kbytes.
 129:./Libraries/STM32F10x_StdPeriph_Driver/src/stm32f10x_flash.c **** 
 130:./Libraries/STM32F10x_StdPeriph_Driver/src/stm32f10x_flash.c ****  In version V3.3.0, some functions were updated and new ones were added to support
 131:./Libraries/STM32F10x_StdPeriph_Driver/src/stm32f10x_flash.c ****  STM32F10x_XL devices. Thus some functions manages all devices, while other are 
 132:./Libraries/STM32F10x_StdPeriph_Driver/src/stm32f10x_flash.c ****  dedicated for XL devices only.
 133:./Libraries/STM32F10x_StdPeriph_Driver/src/stm32f10x_flash.c ****  
 134:./Libraries/STM32F10x_StdPeriph_Driver/src/stm32f10x_flash.c ****  The table below presents the list of available functions depending on the used STM32F10x devices. 
 135:./Libraries/STM32F10x_StdPeriph_Driver/src/stm32f10x_flash.c ****       
 136:./Libraries/STM32F10x_StdPeriph_Driver/src/stm32f10x_flash.c ****    ***************************************************
 137:./Libraries/STM32F10x_StdPeriph_Driver/src/stm32f10x_flash.c ****    * Legacy functions used for all STM32F10x devices *
 138:./Libraries/STM32F10x_StdPeriph_Driver/src/stm32f10x_flash.c ****    ***************************************************
 139:./Libraries/STM32F10x_StdPeriph_Driver/src/stm32f10x_flash.c ****    +-----------------------------------------------------------------------------------------------
 140:./Libraries/STM32F10x_StdPeriph_Driver/src/stm32f10x_flash.c ****    |       Functions prototypes         |STM32F10x_XL|Other STM32F10x|    Comments                 
 141:./Libraries/STM32F10x_StdPeriph_Driver/src/stm32f10x_flash.c ****    |                                    |   devices  |  devices      |                             
 142:./Libraries/STM32F10x_StdPeriph_Driver/src/stm32f10x_flash.c ****    |-----------------------------------------------------------------------------------------------
 143:./Libraries/STM32F10x_StdPeriph_Driver/src/stm32f10x_flash.c ****    |FLASH_SetLatency                    |    Yes     |      Yes      | No change                   
 144:./Libraries/STM32F10x_StdPeriph_Driver/src/stm32f10x_flash.c ****    |-----------------------------------------------------------------------------------------------
 145:./Libraries/STM32F10x_StdPeriph_Driver/src/stm32f10x_flash.c ****    |FLASH_HalfCycleAccessCmd            |    Yes     |      Yes      | No change                   
ARM GAS  /tmp/ccV0cNik.s 			page 4


 146:./Libraries/STM32F10x_StdPeriph_Driver/src/stm32f10x_flash.c ****    |-----------------------------------------------------------------------------------------------
 147:./Libraries/STM32F10x_StdPeriph_Driver/src/stm32f10x_flash.c ****    |FLASH_PrefetchBufferCmd             |    Yes     |      Yes      | No change                   
 148:./Libraries/STM32F10x_StdPeriph_Driver/src/stm32f10x_flash.c ****    |-----------------------------------------------------------------------------------------------
 149:./Libraries/STM32F10x_StdPeriph_Driver/src/stm32f10x_flash.c ****    |FLASH_Unlock                        |    Yes     |      Yes      | - For STM32F10X_XL devices: 
 150:./Libraries/STM32F10x_StdPeriph_Driver/src/stm32f10x_flash.c ****    |                                    |            |               | - For other devices: unlock 
 151:./Libraries/STM32F10x_StdPeriph_Driver/src/stm32f10x_flash.c ****    |                                    |            |               |   to FLASH_UnlockBank1 funct
 152:./Libraries/STM32F10x_StdPeriph_Driver/src/stm32f10x_flash.c ****    |-----------------------------------------------------------------------------------------------
 153:./Libraries/STM32F10x_StdPeriph_Driver/src/stm32f10x_flash.c ****    |FLASH_Lock                          |    Yes     |      Yes      | - For STM32F10X_XL devices: 
 154:./Libraries/STM32F10x_StdPeriph_Driver/src/stm32f10x_flash.c ****    |                                    |            |               | - For other devices: lock Ba
 155:./Libraries/STM32F10x_StdPeriph_Driver/src/stm32f10x_flash.c ****    |                                    |            |               |   to FLASH_LockBank1 functio
 156:./Libraries/STM32F10x_StdPeriph_Driver/src/stm32f10x_flash.c ****    |-----------------------------------------------------------------------------------------------
 157:./Libraries/STM32F10x_StdPeriph_Driver/src/stm32f10x_flash.c ****    |FLASH_ErasePage                     |    Yes     |      Yes      | - For STM32F10x_XL devices: 
 158:./Libraries/STM32F10x_StdPeriph_Driver/src/stm32f10x_flash.c ****    |                                    |            |               | - For other devices: erase a
 159:./Libraries/STM32F10x_StdPeriph_Driver/src/stm32f10x_flash.c ****    |-----------------------------------------------------------------------------------------------
 160:./Libraries/STM32F10x_StdPeriph_Driver/src/stm32f10x_flash.c ****    |FLASH_EraseAllPages                 |    Yes     |      Yes      | - For STM32F10x_XL devices: 
 161:./Libraries/STM32F10x_StdPeriph_Driver/src/stm32f10x_flash.c ****    |                                    |            |               | - For other devices: erase a
 162:./Libraries/STM32F10x_StdPeriph_Driver/src/stm32f10x_flash.c ****    |-----------------------------------------------------------------------------------------------
 163:./Libraries/STM32F10x_StdPeriph_Driver/src/stm32f10x_flash.c ****    |FLASH_EraseOptionBytes              |    Yes     |      Yes      | No change                   
 164:./Libraries/STM32F10x_StdPeriph_Driver/src/stm32f10x_flash.c ****    |-----------------------------------------------------------------------------------------------
 165:./Libraries/STM32F10x_StdPeriph_Driver/src/stm32f10x_flash.c ****    |FLASH_ProgramWord                   |    Yes     |      Yes      | Updated to program up to 1MB
 166:./Libraries/STM32F10x_StdPeriph_Driver/src/stm32f10x_flash.c ****    |-----------------------------------------------------------------------------------------------
 167:./Libraries/STM32F10x_StdPeriph_Driver/src/stm32f10x_flash.c ****    |FLASH_ProgramHalfWord               |    Yes     |      Yes      | Updated to program up to 1MB
 168:./Libraries/STM32F10x_StdPeriph_Driver/src/stm32f10x_flash.c ****    |-----------------------------------------------------------------------------------------------
 169:./Libraries/STM32F10x_StdPeriph_Driver/src/stm32f10x_flash.c ****    |FLASH_ProgramOptionByteData         |    Yes     |      Yes      | No change                   
 170:./Libraries/STM32F10x_StdPeriph_Driver/src/stm32f10x_flash.c ****    |-----------------------------------------------------------------------------------------------
 171:./Libraries/STM32F10x_StdPeriph_Driver/src/stm32f10x_flash.c ****    |FLASH_EnableWriteProtection         |    Yes     |      Yes      | No change                   
 172:./Libraries/STM32F10x_StdPeriph_Driver/src/stm32f10x_flash.c ****    |-----------------------------------------------------------------------------------------------
 173:./Libraries/STM32F10x_StdPeriph_Driver/src/stm32f10x_flash.c ****    |FLASH_ReadOutProtection             |    Yes     |      Yes      | No change                   
 174:./Libraries/STM32F10x_StdPeriph_Driver/src/stm32f10x_flash.c ****    |-----------------------------------------------------------------------------------------------
 175:./Libraries/STM32F10x_StdPeriph_Driver/src/stm32f10x_flash.c ****    |FLASH_UserOptionByteConfig          |    Yes     |      Yes      | No change                   
 176:./Libraries/STM32F10x_StdPeriph_Driver/src/stm32f10x_flash.c ****    |-----------------------------------------------------------------------------------------------
 177:./Libraries/STM32F10x_StdPeriph_Driver/src/stm32f10x_flash.c ****    |FLASH_GetUserOptionByte             |    Yes     |      Yes      | No change                   
 178:./Libraries/STM32F10x_StdPeriph_Driver/src/stm32f10x_flash.c ****    |-----------------------------------------------------------------------------------------------
 179:./Libraries/STM32F10x_StdPeriph_Driver/src/stm32f10x_flash.c ****    |FLASH_GetWriteProtectionOptionByte  |    Yes     |      Yes      | No change                   
 180:./Libraries/STM32F10x_StdPeriph_Driver/src/stm32f10x_flash.c ****    |-----------------------------------------------------------------------------------------------
 181:./Libraries/STM32F10x_StdPeriph_Driver/src/stm32f10x_flash.c ****    |FLASH_GetReadOutProtectionStatus    |    Yes     |      Yes      | No change                   
 182:./Libraries/STM32F10x_StdPeriph_Driver/src/stm32f10x_flash.c ****    |-----------------------------------------------------------------------------------------------
 183:./Libraries/STM32F10x_StdPeriph_Driver/src/stm32f10x_flash.c ****    |FLASH_GetPrefetchBufferStatus       |    Yes     |      Yes      | No change                   
 184:./Libraries/STM32F10x_StdPeriph_Driver/src/stm32f10x_flash.c ****    |-----------------------------------------------------------------------------------------------
 185:./Libraries/STM32F10x_StdPeriph_Driver/src/stm32f10x_flash.c ****    |FLASH_ITConfig                      |    Yes     |      Yes      | - For STM32F10x_XL devices: 
 186:./Libraries/STM32F10x_StdPeriph_Driver/src/stm32f10x_flash.c ****    |                                    |            |               | - For other devices: enable 
 187:./Libraries/STM32F10x_StdPeriph_Driver/src/stm32f10x_flash.c ****    |-----------------------------------------------------------------------------------------------
 188:./Libraries/STM32F10x_StdPeriph_Driver/src/stm32f10x_flash.c ****    |FLASH_GetFlagStatus                 |    Yes     |      Yes      | - For STM32F10x_XL devices: 
 189:./Libraries/STM32F10x_StdPeriph_Driver/src/stm32f10x_flash.c ****    |                                    |            |               | - For other devices: return 
 190:./Libraries/STM32F10x_StdPeriph_Driver/src/stm32f10x_flash.c ****    |-----------------------------------------------------------------------------------------------
 191:./Libraries/STM32F10x_StdPeriph_Driver/src/stm32f10x_flash.c ****    |FLASH_ClearFlag                     |    Yes     |      Yes      | - For STM32F10x_XL devices: 
 192:./Libraries/STM32F10x_StdPeriph_Driver/src/stm32f10x_flash.c ****    |                                    |            |               | - For other devices: clear B
 193:./Libraries/STM32F10x_StdPeriph_Driver/src/stm32f10x_flash.c ****    |-----------------------------------------------------------------------------------------------
 194:./Libraries/STM32F10x_StdPeriph_Driver/src/stm32f10x_flash.c ****    |FLASH_GetStatus                     |    Yes     |      Yes      | - Return the status of Bank1
 195:./Libraries/STM32F10x_StdPeriph_Driver/src/stm32f10x_flash.c ****    |                                    |            |               |   equivalent to FLASH_GetBan
 196:./Libraries/STM32F10x_StdPeriph_Driver/src/stm32f10x_flash.c ****    |-----------------------------------------------------------------------------------------------
 197:./Libraries/STM32F10x_StdPeriph_Driver/src/stm32f10x_flash.c ****    |FLASH_WaitForLastOperation          |    Yes     |      Yes      | - Wait for Bank1 last operat
 198:./Libraries/STM32F10x_StdPeriph_Driver/src/stm32f10x_flash.c ****    |                                    |            |               |   equivalent to: FLASH_WaitF
 199:./Libraries/STM32F10x_StdPeriph_Driver/src/stm32f10x_flash.c ****    +-----------------------------------------------------------------------------------------------
 200:./Libraries/STM32F10x_StdPeriph_Driver/src/stm32f10x_flash.c **** 
 201:./Libraries/STM32F10x_StdPeriph_Driver/src/stm32f10x_flash.c ****    ************************************************************************************************
 202:./Libraries/STM32F10x_StdPeriph_Driver/src/stm32f10x_flash.c ****    * New functions used for all STM32F10x devices to manage Bank1:                                 
ARM GAS  /tmp/ccV0cNik.s 			page 5


 203:./Libraries/STM32F10x_StdPeriph_Driver/src/stm32f10x_flash.c ****    *   - These functions are mainly useful for STM32F10x_XL density devices, to have separate contr
 204:./Libraries/STM32F10x_StdPeriph_Driver/src/stm32f10x_flash.c ****    *   - For other devices, these functions are optional (covered by functions listed above)       
 205:./Libraries/STM32F10x_StdPeriph_Driver/src/stm32f10x_flash.c ****    ************************************************************************************************
 206:./Libraries/STM32F10x_StdPeriph_Driver/src/stm32f10x_flash.c ****    +-----------------------------------------------------------------------------------------------
 207:./Libraries/STM32F10x_StdPeriph_Driver/src/stm32f10x_flash.c ****    |       Functions prototypes         |STM32F10x_XL|Other STM32F10x|    Comments                 
 208:./Libraries/STM32F10x_StdPeriph_Driver/src/stm32f10x_flash.c ****    |                                    |   devices  |  devices      |                             
 209:./Libraries/STM32F10x_StdPeriph_Driver/src/stm32f10x_flash.c ****    |-----------------------------------------------------------------------------------------------
 210:./Libraries/STM32F10x_StdPeriph_Driver/src/stm32f10x_flash.c ****    | FLASH_UnlockBank1                  |    Yes     |      Yes      | - Unlock Bank1              
 211:./Libraries/STM32F10x_StdPeriph_Driver/src/stm32f10x_flash.c ****    |-----------------------------------------------------------------------------------------------
 212:./Libraries/STM32F10x_StdPeriph_Driver/src/stm32f10x_flash.c ****    |FLASH_LockBank1                     |    Yes     |      Yes      | - Lock Bank1                
 213:./Libraries/STM32F10x_StdPeriph_Driver/src/stm32f10x_flash.c ****    |-----------------------------------------------------------------------------------------------
 214:./Libraries/STM32F10x_StdPeriph_Driver/src/stm32f10x_flash.c ****    | FLASH_EraseAllBank1Pages           |    Yes     |      Yes      | - Erase all pages in Bank1  
 215:./Libraries/STM32F10x_StdPeriph_Driver/src/stm32f10x_flash.c ****    |-----------------------------------------------------------------------------------------------
 216:./Libraries/STM32F10x_StdPeriph_Driver/src/stm32f10x_flash.c ****    | FLASH_GetBank1Status               |    Yes     |      Yes      | - Return the status of Bank1
 217:./Libraries/STM32F10x_StdPeriph_Driver/src/stm32f10x_flash.c ****    |-----------------------------------------------------------------------------------------------
 218:./Libraries/STM32F10x_StdPeriph_Driver/src/stm32f10x_flash.c ****    | FLASH_WaitForLastBank1Operation    |    Yes     |      Yes      | - Wait for Bank1 last operat
 219:./Libraries/STM32F10x_StdPeriph_Driver/src/stm32f10x_flash.c ****    +-----------------------------------------------------------------------------------------------
 220:./Libraries/STM32F10x_StdPeriph_Driver/src/stm32f10x_flash.c **** 
 221:./Libraries/STM32F10x_StdPeriph_Driver/src/stm32f10x_flash.c ****    *****************************************************************************
 222:./Libraries/STM32F10x_StdPeriph_Driver/src/stm32f10x_flash.c ****    * New Functions used only with STM32F10x_XL density devices to manage Bank2 *
 223:./Libraries/STM32F10x_StdPeriph_Driver/src/stm32f10x_flash.c ****    *****************************************************************************
 224:./Libraries/STM32F10x_StdPeriph_Driver/src/stm32f10x_flash.c ****    +-----------------------------------------------------------------------------------------------
 225:./Libraries/STM32F10x_StdPeriph_Driver/src/stm32f10x_flash.c ****    |       Functions prototypes         |STM32F10x_XL|Other STM32F10x|    Comments                 
 226:./Libraries/STM32F10x_StdPeriph_Driver/src/stm32f10x_flash.c ****    |                                    |   devices  |  devices      |                             
 227:./Libraries/STM32F10x_StdPeriph_Driver/src/stm32f10x_flash.c ****    |-----------------------------------------------------------------------------------------------
 228:./Libraries/STM32F10x_StdPeriph_Driver/src/stm32f10x_flash.c ****    | FLASH_UnlockBank2                  |    Yes     |      No       | - Unlock Bank2              
 229:./Libraries/STM32F10x_StdPeriph_Driver/src/stm32f10x_flash.c ****    |-----------------------------------------------------------------------------------------------
 230:./Libraries/STM32F10x_StdPeriph_Driver/src/stm32f10x_flash.c ****    |FLASH_LockBank2                     |    Yes     |      No       | - Lock Bank2                
 231:./Libraries/STM32F10x_StdPeriph_Driver/src/stm32f10x_flash.c ****    |-----------------------------------------------------------------------------------------------
 232:./Libraries/STM32F10x_StdPeriph_Driver/src/stm32f10x_flash.c ****    | FLASH_EraseAllBank2Pages           |    Yes     |      No       | - Erase all pages in Bank2  
 233:./Libraries/STM32F10x_StdPeriph_Driver/src/stm32f10x_flash.c ****    |-----------------------------------------------------------------------------------------------
 234:./Libraries/STM32F10x_StdPeriph_Driver/src/stm32f10x_flash.c ****    | FLASH_GetBank2Status               |    Yes     |      No       | - Return the status of Bank2
 235:./Libraries/STM32F10x_StdPeriph_Driver/src/stm32f10x_flash.c ****    |-----------------------------------------------------------------------------------------------
 236:./Libraries/STM32F10x_StdPeriph_Driver/src/stm32f10x_flash.c ****    | FLASH_WaitForLastBank2Operation    |    Yes     |      No       | - Wait for Bank2 last operat
 237:./Libraries/STM32F10x_StdPeriph_Driver/src/stm32f10x_flash.c ****    |-----------------------------------------------------------------------------------------------
 238:./Libraries/STM32F10x_StdPeriph_Driver/src/stm32f10x_flash.c ****    | FLASH_BootConfig                   |    Yes     |      No       | - Configure to boot from Ban
 239:./Libraries/STM32F10x_StdPeriph_Driver/src/stm32f10x_flash.c ****    +-----------------------------------------------------------------------------------------------
 240:./Libraries/STM32F10x_StdPeriph_Driver/src/stm32f10x_flash.c **** @endcode
 241:./Libraries/STM32F10x_StdPeriph_Driver/src/stm32f10x_flash.c **** */
 242:./Libraries/STM32F10x_StdPeriph_Driver/src/stm32f10x_flash.c **** 
 243:./Libraries/STM32F10x_StdPeriph_Driver/src/stm32f10x_flash.c **** 
 244:./Libraries/STM32F10x_StdPeriph_Driver/src/stm32f10x_flash.c **** /**
 245:./Libraries/STM32F10x_StdPeriph_Driver/src/stm32f10x_flash.c ****   * @brief  Sets the code latency value.
 246:./Libraries/STM32F10x_StdPeriph_Driver/src/stm32f10x_flash.c ****   * @note   This function can be used for all STM32F10x devices.
 247:./Libraries/STM32F10x_StdPeriph_Driver/src/stm32f10x_flash.c ****   * @param  FLASH_Latency: specifies the FLASH Latency value.
 248:./Libraries/STM32F10x_StdPeriph_Driver/src/stm32f10x_flash.c ****   *   This parameter can be one of the following values:
 249:./Libraries/STM32F10x_StdPeriph_Driver/src/stm32f10x_flash.c ****   *     @arg FLASH_Latency_0: FLASH Zero Latency cycle
 250:./Libraries/STM32F10x_StdPeriph_Driver/src/stm32f10x_flash.c ****   *     @arg FLASH_Latency_1: FLASH One Latency cycle
 251:./Libraries/STM32F10x_StdPeriph_Driver/src/stm32f10x_flash.c ****   *     @arg FLASH_Latency_2: FLASH Two Latency cycles
 252:./Libraries/STM32F10x_StdPeriph_Driver/src/stm32f10x_flash.c ****   * @retval None
 253:./Libraries/STM32F10x_StdPeriph_Driver/src/stm32f10x_flash.c ****   */
 254:./Libraries/STM32F10x_StdPeriph_Driver/src/stm32f10x_flash.c **** void FLASH_SetLatency(uint32_t FLASH_Latency)
 255:./Libraries/STM32F10x_StdPeriph_Driver/src/stm32f10x_flash.c **** {
  28              		.loc 1 255 1 view -0
  29              		.cfi_startproc
  30              		@ args = 0, pretend = 0, frame = 0
  31              		@ frame_needed = 0, uses_anonymous_args = 0
ARM GAS  /tmp/ccV0cNik.s 			page 6


  32              		@ link register save eliminated.
 256:./Libraries/STM32F10x_StdPeriph_Driver/src/stm32f10x_flash.c ****   uint32_t tmpreg = 0;
  33              		.loc 1 256 3 view .LVU1
 257:./Libraries/STM32F10x_StdPeriph_Driver/src/stm32f10x_flash.c ****   
 258:./Libraries/STM32F10x_StdPeriph_Driver/src/stm32f10x_flash.c ****   /* Check the parameters */
 259:./Libraries/STM32F10x_StdPeriph_Driver/src/stm32f10x_flash.c ****   assert_param(IS_FLASH_LATENCY(FLASH_Latency));
  34              		.loc 1 259 3 view .LVU2
 260:./Libraries/STM32F10x_StdPeriph_Driver/src/stm32f10x_flash.c ****   
 261:./Libraries/STM32F10x_StdPeriph_Driver/src/stm32f10x_flash.c ****   /* Read the ACR register */
 262:./Libraries/STM32F10x_StdPeriph_Driver/src/stm32f10x_flash.c ****   tmpreg = FLASH->ACR;  
  35              		.loc 1 262 3 view .LVU3
  36              		.loc 1 262 10 is_stmt 0 view .LVU4
  37 0000 034A     		ldr	r2, .L2
  38 0002 1368     		ldr	r3, [r2]
  39              	.LVL1:
 263:./Libraries/STM32F10x_StdPeriph_Driver/src/stm32f10x_flash.c ****   
 264:./Libraries/STM32F10x_StdPeriph_Driver/src/stm32f10x_flash.c ****   /* Sets the Latency value */
 265:./Libraries/STM32F10x_StdPeriph_Driver/src/stm32f10x_flash.c ****   tmpreg &= ACR_LATENCY_Mask;
  40              		.loc 1 265 3 is_stmt 1 view .LVU5
  41              		.loc 1 265 10 is_stmt 0 view .LVU6
  42 0004 03F03803 		and	r3, r3, #56
  43              	.LVL2:
 266:./Libraries/STM32F10x_StdPeriph_Driver/src/stm32f10x_flash.c ****   tmpreg |= FLASH_Latency;
  44              		.loc 1 266 3 is_stmt 1 view .LVU7
  45              		.loc 1 266 10 is_stmt 0 view .LVU8
  46 0008 0343     		orrs	r3, r3, r0
  47              	.LVL3:
 267:./Libraries/STM32F10x_StdPeriph_Driver/src/stm32f10x_flash.c ****   
 268:./Libraries/STM32F10x_StdPeriph_Driver/src/stm32f10x_flash.c ****   /* Write the ACR register */
 269:./Libraries/STM32F10x_StdPeriph_Driver/src/stm32f10x_flash.c ****   FLASH->ACR = tmpreg;
  48              		.loc 1 269 3 is_stmt 1 view .LVU9
  49              		.loc 1 269 14 is_stmt 0 view .LVU10
  50 000a 1360     		str	r3, [r2]
 270:./Libraries/STM32F10x_StdPeriph_Driver/src/stm32f10x_flash.c **** }
  51              		.loc 1 270 1 view .LVU11
  52 000c 7047     		bx	lr
  53              	.L3:
  54 000e 00BF     		.align	2
  55              	.L2:
  56 0010 00200240 		.word	1073881088
  57              		.cfi_endproc
  58              	.LFE29:
  60              		.section	.text.FLASH_HalfCycleAccessCmd,"ax",%progbits
  61              		.align	1
  62              		.global	FLASH_HalfCycleAccessCmd
  63              		.syntax unified
  64              		.thumb
  65              		.thumb_func
  66              		.fpu softvfp
  68              	FLASH_HalfCycleAccessCmd:
  69              	.LVL4:
  70              	.LFB30:
 271:./Libraries/STM32F10x_StdPeriph_Driver/src/stm32f10x_flash.c **** 
 272:./Libraries/STM32F10x_StdPeriph_Driver/src/stm32f10x_flash.c **** /**
 273:./Libraries/STM32F10x_StdPeriph_Driver/src/stm32f10x_flash.c ****   * @brief  Enables or disables the Half cycle flash access.
 274:./Libraries/STM32F10x_StdPeriph_Driver/src/stm32f10x_flash.c ****   * @note   This function can be used for all STM32F10x devices.
 275:./Libraries/STM32F10x_StdPeriph_Driver/src/stm32f10x_flash.c ****   * @param  FLASH_HalfCycleAccess: specifies the FLASH Half cycle Access mode.
ARM GAS  /tmp/ccV0cNik.s 			page 7


 276:./Libraries/STM32F10x_StdPeriph_Driver/src/stm32f10x_flash.c ****   *   This parameter can be one of the following values:
 277:./Libraries/STM32F10x_StdPeriph_Driver/src/stm32f10x_flash.c ****   *     @arg FLASH_HalfCycleAccess_Enable: FLASH Half Cycle Enable
 278:./Libraries/STM32F10x_StdPeriph_Driver/src/stm32f10x_flash.c ****   *     @arg FLASH_HalfCycleAccess_Disable: FLASH Half Cycle Disable
 279:./Libraries/STM32F10x_StdPeriph_Driver/src/stm32f10x_flash.c ****   * @retval None
 280:./Libraries/STM32F10x_StdPeriph_Driver/src/stm32f10x_flash.c ****   */
 281:./Libraries/STM32F10x_StdPeriph_Driver/src/stm32f10x_flash.c **** void FLASH_HalfCycleAccessCmd(uint32_t FLASH_HalfCycleAccess)
 282:./Libraries/STM32F10x_StdPeriph_Driver/src/stm32f10x_flash.c **** {
  71              		.loc 1 282 1 is_stmt 1 view -0
  72              		.cfi_startproc
  73              		@ args = 0, pretend = 0, frame = 0
  74              		@ frame_needed = 0, uses_anonymous_args = 0
  75              		@ link register save eliminated.
 283:./Libraries/STM32F10x_StdPeriph_Driver/src/stm32f10x_flash.c ****   /* Check the parameters */
 284:./Libraries/STM32F10x_StdPeriph_Driver/src/stm32f10x_flash.c ****   assert_param(IS_FLASH_HALFCYCLEACCESS_STATE(FLASH_HalfCycleAccess));
  76              		.loc 1 284 3 view .LVU13
 285:./Libraries/STM32F10x_StdPeriph_Driver/src/stm32f10x_flash.c ****   
 286:./Libraries/STM32F10x_StdPeriph_Driver/src/stm32f10x_flash.c ****   /* Enable or disable the Half cycle access */
 287:./Libraries/STM32F10x_StdPeriph_Driver/src/stm32f10x_flash.c ****   FLASH->ACR &= ACR_HLFCYA_Mask;
  77              		.loc 1 287 3 view .LVU14
  78              		.loc 1 287 14 is_stmt 0 view .LVU15
  79 0000 044B     		ldr	r3, .L5
  80 0002 1968     		ldr	r1, [r3]
  81 0004 21F00801 		bic	r1, r1, #8
  82 0008 1960     		str	r1, [r3]
 288:./Libraries/STM32F10x_StdPeriph_Driver/src/stm32f10x_flash.c ****   FLASH->ACR |= FLASH_HalfCycleAccess;
  83              		.loc 1 288 3 is_stmt 1 view .LVU16
  84              		.loc 1 288 14 is_stmt 0 view .LVU17
  85 000a 1A68     		ldr	r2, [r3]
  86 000c 0243     		orrs	r2, r2, r0
  87 000e 1A60     		str	r2, [r3]
 289:./Libraries/STM32F10x_StdPeriph_Driver/src/stm32f10x_flash.c **** }
  88              		.loc 1 289 1 view .LVU18
  89 0010 7047     		bx	lr
  90              	.L6:
  91 0012 00BF     		.align	2
  92              	.L5:
  93 0014 00200240 		.word	1073881088
  94              		.cfi_endproc
  95              	.LFE30:
  97              		.section	.text.FLASH_PrefetchBufferCmd,"ax",%progbits
  98              		.align	1
  99              		.global	FLASH_PrefetchBufferCmd
 100              		.syntax unified
 101              		.thumb
 102              		.thumb_func
 103              		.fpu softvfp
 105              	FLASH_PrefetchBufferCmd:
 106              	.LVL5:
 107              	.LFB31:
 290:./Libraries/STM32F10x_StdPeriph_Driver/src/stm32f10x_flash.c **** 
 291:./Libraries/STM32F10x_StdPeriph_Driver/src/stm32f10x_flash.c **** /**
 292:./Libraries/STM32F10x_StdPeriph_Driver/src/stm32f10x_flash.c ****   * @brief  Enables or disables the Prefetch Buffer.
 293:./Libraries/STM32F10x_StdPeriph_Driver/src/stm32f10x_flash.c ****   * @note   This function can be used for all STM32F10x devices.
 294:./Libraries/STM32F10x_StdPeriph_Driver/src/stm32f10x_flash.c ****   * @param  FLASH_PrefetchBuffer: specifies the Prefetch buffer status.
 295:./Libraries/STM32F10x_StdPeriph_Driver/src/stm32f10x_flash.c ****   *   This parameter can be one of the following values:
 296:./Libraries/STM32F10x_StdPeriph_Driver/src/stm32f10x_flash.c ****   *     @arg FLASH_PrefetchBuffer_Enable: FLASH Prefetch Buffer Enable
 297:./Libraries/STM32F10x_StdPeriph_Driver/src/stm32f10x_flash.c ****   *     @arg FLASH_PrefetchBuffer_Disable: FLASH Prefetch Buffer Disable
ARM GAS  /tmp/ccV0cNik.s 			page 8


 298:./Libraries/STM32F10x_StdPeriph_Driver/src/stm32f10x_flash.c ****   * @retval None
 299:./Libraries/STM32F10x_StdPeriph_Driver/src/stm32f10x_flash.c ****   */
 300:./Libraries/STM32F10x_StdPeriph_Driver/src/stm32f10x_flash.c **** void FLASH_PrefetchBufferCmd(uint32_t FLASH_PrefetchBuffer)
 301:./Libraries/STM32F10x_StdPeriph_Driver/src/stm32f10x_flash.c **** {
 108              		.loc 1 301 1 is_stmt 1 view -0
 109              		.cfi_startproc
 110              		@ args = 0, pretend = 0, frame = 0
 111              		@ frame_needed = 0, uses_anonymous_args = 0
 112              		@ link register save eliminated.
 302:./Libraries/STM32F10x_StdPeriph_Driver/src/stm32f10x_flash.c ****   /* Check the parameters */
 303:./Libraries/STM32F10x_StdPeriph_Driver/src/stm32f10x_flash.c ****   assert_param(IS_FLASH_PREFETCHBUFFER_STATE(FLASH_PrefetchBuffer));
 113              		.loc 1 303 3 view .LVU20
 304:./Libraries/STM32F10x_StdPeriph_Driver/src/stm32f10x_flash.c ****   
 305:./Libraries/STM32F10x_StdPeriph_Driver/src/stm32f10x_flash.c ****   /* Enable or disable the Prefetch Buffer */
 306:./Libraries/STM32F10x_StdPeriph_Driver/src/stm32f10x_flash.c ****   FLASH->ACR &= ACR_PRFTBE_Mask;
 114              		.loc 1 306 3 view .LVU21
 115              		.loc 1 306 14 is_stmt 0 view .LVU22
 116 0000 044B     		ldr	r3, .L8
 117 0002 1968     		ldr	r1, [r3]
 118 0004 21F01001 		bic	r1, r1, #16
 119 0008 1960     		str	r1, [r3]
 307:./Libraries/STM32F10x_StdPeriph_Driver/src/stm32f10x_flash.c ****   FLASH->ACR |= FLASH_PrefetchBuffer;
 120              		.loc 1 307 3 is_stmt 1 view .LVU23
 121              		.loc 1 307 14 is_stmt 0 view .LVU24
 122 000a 1A68     		ldr	r2, [r3]
 123 000c 0243     		orrs	r2, r2, r0
 124 000e 1A60     		str	r2, [r3]
 308:./Libraries/STM32F10x_StdPeriph_Driver/src/stm32f10x_flash.c **** }
 125              		.loc 1 308 1 view .LVU25
 126 0010 7047     		bx	lr
 127              	.L9:
 128 0012 00BF     		.align	2
 129              	.L8:
 130 0014 00200240 		.word	1073881088
 131              		.cfi_endproc
 132              	.LFE31:
 134              		.section	.text.FLASH_Unlock,"ax",%progbits
 135              		.align	1
 136              		.global	FLASH_Unlock
 137              		.syntax unified
 138              		.thumb
 139              		.thumb_func
 140              		.fpu softvfp
 142              	FLASH_Unlock:
 143              	.LFB32:
 309:./Libraries/STM32F10x_StdPeriph_Driver/src/stm32f10x_flash.c **** 
 310:./Libraries/STM32F10x_StdPeriph_Driver/src/stm32f10x_flash.c **** /**
 311:./Libraries/STM32F10x_StdPeriph_Driver/src/stm32f10x_flash.c ****   * @brief  Unlocks the FLASH Program Erase Controller.
 312:./Libraries/STM32F10x_StdPeriph_Driver/src/stm32f10x_flash.c ****   * @note   This function can be used for all STM32F10x devices.
 313:./Libraries/STM32F10x_StdPeriph_Driver/src/stm32f10x_flash.c ****   *         - For STM32F10X_XL devices this function unlocks Bank1 and Bank2.
 314:./Libraries/STM32F10x_StdPeriph_Driver/src/stm32f10x_flash.c ****   *         - For all other devices it unlocks Bank1 and it is equivalent 
 315:./Libraries/STM32F10x_StdPeriph_Driver/src/stm32f10x_flash.c ****   *           to FLASH_UnlockBank1 function.. 
 316:./Libraries/STM32F10x_StdPeriph_Driver/src/stm32f10x_flash.c ****   * @param  None
 317:./Libraries/STM32F10x_StdPeriph_Driver/src/stm32f10x_flash.c ****   * @retval None
 318:./Libraries/STM32F10x_StdPeriph_Driver/src/stm32f10x_flash.c ****   */
 319:./Libraries/STM32F10x_StdPeriph_Driver/src/stm32f10x_flash.c **** void FLASH_Unlock(void)
 320:./Libraries/STM32F10x_StdPeriph_Driver/src/stm32f10x_flash.c **** {
ARM GAS  /tmp/ccV0cNik.s 			page 9


 144              		.loc 1 320 1 is_stmt 1 view -0
 145              		.cfi_startproc
 146              		@ args = 0, pretend = 0, frame = 0
 147              		@ frame_needed = 0, uses_anonymous_args = 0
 148              		@ link register save eliminated.
 321:./Libraries/STM32F10x_StdPeriph_Driver/src/stm32f10x_flash.c ****   /* Authorize the FPEC of Bank1 Access */
 322:./Libraries/STM32F10x_StdPeriph_Driver/src/stm32f10x_flash.c ****   FLASH->KEYR = FLASH_KEY1;
 149              		.loc 1 322 3 view .LVU27
 150              		.loc 1 322 15 is_stmt 0 view .LVU28
 151 0000 034B     		ldr	r3, .L11
 152 0002 044A     		ldr	r2, .L11+4
 153 0004 5A60     		str	r2, [r3, #4]
 323:./Libraries/STM32F10x_StdPeriph_Driver/src/stm32f10x_flash.c ****   FLASH->KEYR = FLASH_KEY2;
 154              		.loc 1 323 3 is_stmt 1 view .LVU29
 155              		.loc 1 323 15 is_stmt 0 view .LVU30
 156 0006 02F18832 		add	r2, r2, #-2004318072
 157 000a 5A60     		str	r2, [r3, #4]
 324:./Libraries/STM32F10x_StdPeriph_Driver/src/stm32f10x_flash.c **** 
 325:./Libraries/STM32F10x_StdPeriph_Driver/src/stm32f10x_flash.c **** #ifdef STM32F10X_XL
 326:./Libraries/STM32F10x_StdPeriph_Driver/src/stm32f10x_flash.c ****   /* Authorize the FPEC of Bank2 Access */
 327:./Libraries/STM32F10x_StdPeriph_Driver/src/stm32f10x_flash.c ****   FLASH->KEYR2 = FLASH_KEY1;
 328:./Libraries/STM32F10x_StdPeriph_Driver/src/stm32f10x_flash.c ****   FLASH->KEYR2 = FLASH_KEY2;
 329:./Libraries/STM32F10x_StdPeriph_Driver/src/stm32f10x_flash.c **** #endif /* STM32F10X_XL */
 330:./Libraries/STM32F10x_StdPeriph_Driver/src/stm32f10x_flash.c **** }
 158              		.loc 1 330 1 view .LVU31
 159 000c 7047     		bx	lr
 160              	.L12:
 161 000e 00BF     		.align	2
 162              	.L11:
 163 0010 00200240 		.word	1073881088
 164 0014 23016745 		.word	1164378403
 165              		.cfi_endproc
 166              	.LFE32:
 168              		.section	.text.FLASH_UnlockBank1,"ax",%progbits
 169              		.align	1
 170              		.global	FLASH_UnlockBank1
 171              		.syntax unified
 172              		.thumb
 173              		.thumb_func
 174              		.fpu softvfp
 176              	FLASH_UnlockBank1:
 177              	.LFB33:
 331:./Libraries/STM32F10x_StdPeriph_Driver/src/stm32f10x_flash.c **** /**
 332:./Libraries/STM32F10x_StdPeriph_Driver/src/stm32f10x_flash.c ****   * @brief  Unlocks the FLASH Bank1 Program Erase Controller.
 333:./Libraries/STM32F10x_StdPeriph_Driver/src/stm32f10x_flash.c ****   * @note   This function can be used for all STM32F10x devices.
 334:./Libraries/STM32F10x_StdPeriph_Driver/src/stm32f10x_flash.c ****   *         - For STM32F10X_XL devices this function unlocks Bank1.
 335:./Libraries/STM32F10x_StdPeriph_Driver/src/stm32f10x_flash.c ****   *         - For all other devices it unlocks Bank1 and it is 
 336:./Libraries/STM32F10x_StdPeriph_Driver/src/stm32f10x_flash.c ****   *           equivalent to FLASH_Unlock function.
 337:./Libraries/STM32F10x_StdPeriph_Driver/src/stm32f10x_flash.c ****   * @param  None
 338:./Libraries/STM32F10x_StdPeriph_Driver/src/stm32f10x_flash.c ****   * @retval None
 339:./Libraries/STM32F10x_StdPeriph_Driver/src/stm32f10x_flash.c ****   */
 340:./Libraries/STM32F10x_StdPeriph_Driver/src/stm32f10x_flash.c **** void FLASH_UnlockBank1(void)
 341:./Libraries/STM32F10x_StdPeriph_Driver/src/stm32f10x_flash.c **** {
 178              		.loc 1 341 1 is_stmt 1 view -0
 179              		.cfi_startproc
 180              		@ args = 0, pretend = 0, frame = 0
 181              		@ frame_needed = 0, uses_anonymous_args = 0
ARM GAS  /tmp/ccV0cNik.s 			page 10


 182              		@ link register save eliminated.
 342:./Libraries/STM32F10x_StdPeriph_Driver/src/stm32f10x_flash.c ****   /* Authorize the FPEC of Bank1 Access */
 343:./Libraries/STM32F10x_StdPeriph_Driver/src/stm32f10x_flash.c ****   FLASH->KEYR = FLASH_KEY1;
 183              		.loc 1 343 3 view .LVU33
 184              		.loc 1 343 15 is_stmt 0 view .LVU34
 185 0000 034B     		ldr	r3, .L14
 186 0002 044A     		ldr	r2, .L14+4
 187 0004 5A60     		str	r2, [r3, #4]
 344:./Libraries/STM32F10x_StdPeriph_Driver/src/stm32f10x_flash.c ****   FLASH->KEYR = FLASH_KEY2;
 188              		.loc 1 344 3 is_stmt 1 view .LVU35
 189              		.loc 1 344 15 is_stmt 0 view .LVU36
 190 0006 02F18832 		add	r2, r2, #-2004318072
 191 000a 5A60     		str	r2, [r3, #4]
 345:./Libraries/STM32F10x_StdPeriph_Driver/src/stm32f10x_flash.c **** }
 192              		.loc 1 345 1 view .LVU37
 193 000c 7047     		bx	lr
 194              	.L15:
 195 000e 00BF     		.align	2
 196              	.L14:
 197 0010 00200240 		.word	1073881088
 198 0014 23016745 		.word	1164378403
 199              		.cfi_endproc
 200              	.LFE33:
 202              		.section	.text.FLASH_Lock,"ax",%progbits
 203              		.align	1
 204              		.global	FLASH_Lock
 205              		.syntax unified
 206              		.thumb
 207              		.thumb_func
 208              		.fpu softvfp
 210              	FLASH_Lock:
 211              	.LFB34:
 346:./Libraries/STM32F10x_StdPeriph_Driver/src/stm32f10x_flash.c **** 
 347:./Libraries/STM32F10x_StdPeriph_Driver/src/stm32f10x_flash.c **** #ifdef STM32F10X_XL
 348:./Libraries/STM32F10x_StdPeriph_Driver/src/stm32f10x_flash.c **** /**
 349:./Libraries/STM32F10x_StdPeriph_Driver/src/stm32f10x_flash.c ****   * @brief  Unlocks the FLASH Bank2 Program Erase Controller.
 350:./Libraries/STM32F10x_StdPeriph_Driver/src/stm32f10x_flash.c ****   * @note   This function can be used only for STM32F10X_XL density devices.
 351:./Libraries/STM32F10x_StdPeriph_Driver/src/stm32f10x_flash.c ****   * @param  None
 352:./Libraries/STM32F10x_StdPeriph_Driver/src/stm32f10x_flash.c ****   * @retval None
 353:./Libraries/STM32F10x_StdPeriph_Driver/src/stm32f10x_flash.c ****   */
 354:./Libraries/STM32F10x_StdPeriph_Driver/src/stm32f10x_flash.c **** void FLASH_UnlockBank2(void)
 355:./Libraries/STM32F10x_StdPeriph_Driver/src/stm32f10x_flash.c **** {
 356:./Libraries/STM32F10x_StdPeriph_Driver/src/stm32f10x_flash.c ****   /* Authorize the FPEC of Bank2 Access */
 357:./Libraries/STM32F10x_StdPeriph_Driver/src/stm32f10x_flash.c ****   FLASH->KEYR2 = FLASH_KEY1;
 358:./Libraries/STM32F10x_StdPeriph_Driver/src/stm32f10x_flash.c ****   FLASH->KEYR2 = FLASH_KEY2;
 359:./Libraries/STM32F10x_StdPeriph_Driver/src/stm32f10x_flash.c **** 
 360:./Libraries/STM32F10x_StdPeriph_Driver/src/stm32f10x_flash.c **** }
 361:./Libraries/STM32F10x_StdPeriph_Driver/src/stm32f10x_flash.c **** #endif /* STM32F10X_XL */
 362:./Libraries/STM32F10x_StdPeriph_Driver/src/stm32f10x_flash.c **** 
 363:./Libraries/STM32F10x_StdPeriph_Driver/src/stm32f10x_flash.c **** /**
 364:./Libraries/STM32F10x_StdPeriph_Driver/src/stm32f10x_flash.c ****   * @brief  Locks the FLASH Program Erase Controller.
 365:./Libraries/STM32F10x_StdPeriph_Driver/src/stm32f10x_flash.c ****   * @note   This function can be used for all STM32F10x devices.
 366:./Libraries/STM32F10x_StdPeriph_Driver/src/stm32f10x_flash.c ****   *         - For STM32F10X_XL devices this function Locks Bank1 and Bank2.
 367:./Libraries/STM32F10x_StdPeriph_Driver/src/stm32f10x_flash.c ****   *         - For all other devices it Locks Bank1 and it is equivalent 
 368:./Libraries/STM32F10x_StdPeriph_Driver/src/stm32f10x_flash.c ****   *           to FLASH_LockBank1 function.
 369:./Libraries/STM32F10x_StdPeriph_Driver/src/stm32f10x_flash.c ****   * @param  None
 370:./Libraries/STM32F10x_StdPeriph_Driver/src/stm32f10x_flash.c ****   * @retval None
ARM GAS  /tmp/ccV0cNik.s 			page 11


 371:./Libraries/STM32F10x_StdPeriph_Driver/src/stm32f10x_flash.c ****   */
 372:./Libraries/STM32F10x_StdPeriph_Driver/src/stm32f10x_flash.c **** void FLASH_Lock(void)
 373:./Libraries/STM32F10x_StdPeriph_Driver/src/stm32f10x_flash.c **** {
 212              		.loc 1 373 1 is_stmt 1 view -0
 213              		.cfi_startproc
 214              		@ args = 0, pretend = 0, frame = 0
 215              		@ frame_needed = 0, uses_anonymous_args = 0
 216              		@ link register save eliminated.
 374:./Libraries/STM32F10x_StdPeriph_Driver/src/stm32f10x_flash.c ****   /* Set the Lock Bit to lock the FPEC and the CR of  Bank1 */
 375:./Libraries/STM32F10x_StdPeriph_Driver/src/stm32f10x_flash.c ****   FLASH->CR |= CR_LOCK_Set;
 217              		.loc 1 375 3 view .LVU39
 218              		.loc 1 375 13 is_stmt 0 view .LVU40
 219 0000 024A     		ldr	r2, .L17
 220 0002 1369     		ldr	r3, [r2, #16]
 221 0004 43F08003 		orr	r3, r3, #128
 222 0008 1361     		str	r3, [r2, #16]
 376:./Libraries/STM32F10x_StdPeriph_Driver/src/stm32f10x_flash.c **** 
 377:./Libraries/STM32F10x_StdPeriph_Driver/src/stm32f10x_flash.c **** #ifdef STM32F10X_XL
 378:./Libraries/STM32F10x_StdPeriph_Driver/src/stm32f10x_flash.c ****   /* Set the Lock Bit to lock the FPEC and the CR of  Bank2 */
 379:./Libraries/STM32F10x_StdPeriph_Driver/src/stm32f10x_flash.c ****   FLASH->CR2 |= CR_LOCK_Set;
 380:./Libraries/STM32F10x_StdPeriph_Driver/src/stm32f10x_flash.c **** #endif /* STM32F10X_XL */
 381:./Libraries/STM32F10x_StdPeriph_Driver/src/stm32f10x_flash.c **** }
 223              		.loc 1 381 1 view .LVU41
 224 000a 7047     		bx	lr
 225              	.L18:
 226              		.align	2
 227              	.L17:
 228 000c 00200240 		.word	1073881088
 229              		.cfi_endproc
 230              	.LFE34:
 232              		.section	.text.FLASH_LockBank1,"ax",%progbits
 233              		.align	1
 234              		.global	FLASH_LockBank1
 235              		.syntax unified
 236              		.thumb
 237              		.thumb_func
 238              		.fpu softvfp
 240              	FLASH_LockBank1:
 241              	.LFB35:
 382:./Libraries/STM32F10x_StdPeriph_Driver/src/stm32f10x_flash.c **** 
 383:./Libraries/STM32F10x_StdPeriph_Driver/src/stm32f10x_flash.c **** /**
 384:./Libraries/STM32F10x_StdPeriph_Driver/src/stm32f10x_flash.c ****   * @brief  Locks the FLASH Bank1 Program Erase Controller.
 385:./Libraries/STM32F10x_StdPeriph_Driver/src/stm32f10x_flash.c ****   * @note   this function can be used for all STM32F10x devices.
 386:./Libraries/STM32F10x_StdPeriph_Driver/src/stm32f10x_flash.c ****   *         - For STM32F10X_XL devices this function Locks Bank1.
 387:./Libraries/STM32F10x_StdPeriph_Driver/src/stm32f10x_flash.c ****   *         - For all other devices it Locks Bank1 and it is equivalent 
 388:./Libraries/STM32F10x_StdPeriph_Driver/src/stm32f10x_flash.c ****   *           to FLASH_Lock function.
 389:./Libraries/STM32F10x_StdPeriph_Driver/src/stm32f10x_flash.c ****   * @param  None
 390:./Libraries/STM32F10x_StdPeriph_Driver/src/stm32f10x_flash.c ****   * @retval None
 391:./Libraries/STM32F10x_StdPeriph_Driver/src/stm32f10x_flash.c ****   */
 392:./Libraries/STM32F10x_StdPeriph_Driver/src/stm32f10x_flash.c **** void FLASH_LockBank1(void)
 393:./Libraries/STM32F10x_StdPeriph_Driver/src/stm32f10x_flash.c **** {
 242              		.loc 1 393 1 is_stmt 1 view -0
 243              		.cfi_startproc
 244              		@ args = 0, pretend = 0, frame = 0
 245              		@ frame_needed = 0, uses_anonymous_args = 0
 246              		@ link register save eliminated.
 394:./Libraries/STM32F10x_StdPeriph_Driver/src/stm32f10x_flash.c ****   /* Set the Lock Bit to lock the FPEC and the CR of  Bank1 */
ARM GAS  /tmp/ccV0cNik.s 			page 12


 395:./Libraries/STM32F10x_StdPeriph_Driver/src/stm32f10x_flash.c ****   FLASH->CR |= CR_LOCK_Set;
 247              		.loc 1 395 3 view .LVU43
 248              		.loc 1 395 13 is_stmt 0 view .LVU44
 249 0000 024A     		ldr	r2, .L20
 250 0002 1369     		ldr	r3, [r2, #16]
 251 0004 43F08003 		orr	r3, r3, #128
 252 0008 1361     		str	r3, [r2, #16]
 396:./Libraries/STM32F10x_StdPeriph_Driver/src/stm32f10x_flash.c **** }
 253              		.loc 1 396 1 view .LVU45
 254 000a 7047     		bx	lr
 255              	.L21:
 256              		.align	2
 257              	.L20:
 258 000c 00200240 		.word	1073881088
 259              		.cfi_endproc
 260              	.LFE35:
 262              		.section	.text.FLASH_GetUserOptionByte,"ax",%progbits
 263              		.align	1
 264              		.global	FLASH_GetUserOptionByte
 265              		.syntax unified
 266              		.thumb
 267              		.thumb_func
 268              		.fpu softvfp
 270              	FLASH_GetUserOptionByte:
 271              	.LFB46:
 397:./Libraries/STM32F10x_StdPeriph_Driver/src/stm32f10x_flash.c **** 
 398:./Libraries/STM32F10x_StdPeriph_Driver/src/stm32f10x_flash.c **** #ifdef STM32F10X_XL
 399:./Libraries/STM32F10x_StdPeriph_Driver/src/stm32f10x_flash.c **** /**
 400:./Libraries/STM32F10x_StdPeriph_Driver/src/stm32f10x_flash.c ****   * @brief  Locks the FLASH Bank2 Program Erase Controller.
 401:./Libraries/STM32F10x_StdPeriph_Driver/src/stm32f10x_flash.c ****   * @note   This function can be used only for STM32F10X_XL density devices.
 402:./Libraries/STM32F10x_StdPeriph_Driver/src/stm32f10x_flash.c ****   * @param  None
 403:./Libraries/STM32F10x_StdPeriph_Driver/src/stm32f10x_flash.c ****   * @retval None
 404:./Libraries/STM32F10x_StdPeriph_Driver/src/stm32f10x_flash.c ****   */
 405:./Libraries/STM32F10x_StdPeriph_Driver/src/stm32f10x_flash.c **** void FLASH_LockBank2(void)
 406:./Libraries/STM32F10x_StdPeriph_Driver/src/stm32f10x_flash.c **** {
 407:./Libraries/STM32F10x_StdPeriph_Driver/src/stm32f10x_flash.c ****   /* Set the Lock Bit to lock the FPEC and the CR of  Bank2 */
 408:./Libraries/STM32F10x_StdPeriph_Driver/src/stm32f10x_flash.c ****   FLASH->CR2 |= CR_LOCK_Set;
 409:./Libraries/STM32F10x_StdPeriph_Driver/src/stm32f10x_flash.c **** }
 410:./Libraries/STM32F10x_StdPeriph_Driver/src/stm32f10x_flash.c **** #endif /* STM32F10X_XL */
 411:./Libraries/STM32F10x_StdPeriph_Driver/src/stm32f10x_flash.c **** 
 412:./Libraries/STM32F10x_StdPeriph_Driver/src/stm32f10x_flash.c **** /**
 413:./Libraries/STM32F10x_StdPeriph_Driver/src/stm32f10x_flash.c ****   * @brief  Erases a specified FLASH page.
 414:./Libraries/STM32F10x_StdPeriph_Driver/src/stm32f10x_flash.c ****   * @note   This function can be used for all STM32F10x devices.
 415:./Libraries/STM32F10x_StdPeriph_Driver/src/stm32f10x_flash.c ****   * @param  Page_Address: The page address to be erased.
 416:./Libraries/STM32F10x_StdPeriph_Driver/src/stm32f10x_flash.c ****   * @retval FLASH Status: The returned value can be: FLASH_BUSY, FLASH_ERROR_PG,
 417:./Libraries/STM32F10x_StdPeriph_Driver/src/stm32f10x_flash.c ****   *         FLASH_ERROR_WRP, FLASH_COMPLETE or FLASH_TIMEOUT.
 418:./Libraries/STM32F10x_StdPeriph_Driver/src/stm32f10x_flash.c ****   */
 419:./Libraries/STM32F10x_StdPeriph_Driver/src/stm32f10x_flash.c **** FLASH_Status FLASH_ErasePage(uint32_t Page_Address)
 420:./Libraries/STM32F10x_StdPeriph_Driver/src/stm32f10x_flash.c **** {
 421:./Libraries/STM32F10x_StdPeriph_Driver/src/stm32f10x_flash.c ****   FLASH_Status status = FLASH_COMPLETE;
 422:./Libraries/STM32F10x_StdPeriph_Driver/src/stm32f10x_flash.c ****   /* Check the parameters */
 423:./Libraries/STM32F10x_StdPeriph_Driver/src/stm32f10x_flash.c ****   assert_param(IS_FLASH_ADDRESS(Page_Address));
 424:./Libraries/STM32F10x_StdPeriph_Driver/src/stm32f10x_flash.c **** 
 425:./Libraries/STM32F10x_StdPeriph_Driver/src/stm32f10x_flash.c **** #ifdef STM32F10X_XL
 426:./Libraries/STM32F10x_StdPeriph_Driver/src/stm32f10x_flash.c ****   if(Page_Address < FLASH_BANK1_END_ADDRESS)  
 427:./Libraries/STM32F10x_StdPeriph_Driver/src/stm32f10x_flash.c ****   {
 428:./Libraries/STM32F10x_StdPeriph_Driver/src/stm32f10x_flash.c ****     /* Wait for last operation to be completed */
ARM GAS  /tmp/ccV0cNik.s 			page 13


 429:./Libraries/STM32F10x_StdPeriph_Driver/src/stm32f10x_flash.c ****     status = FLASH_WaitForLastBank1Operation(EraseTimeout);
 430:./Libraries/STM32F10x_StdPeriph_Driver/src/stm32f10x_flash.c ****     if(status == FLASH_COMPLETE)
 431:./Libraries/STM32F10x_StdPeriph_Driver/src/stm32f10x_flash.c ****     { 
 432:./Libraries/STM32F10x_StdPeriph_Driver/src/stm32f10x_flash.c ****       /* if the previous operation is completed, proceed to erase the page */
 433:./Libraries/STM32F10x_StdPeriph_Driver/src/stm32f10x_flash.c ****       FLASH->CR|= CR_PER_Set;
 434:./Libraries/STM32F10x_StdPeriph_Driver/src/stm32f10x_flash.c ****       FLASH->AR = Page_Address; 
 435:./Libraries/STM32F10x_StdPeriph_Driver/src/stm32f10x_flash.c ****       FLASH->CR|= CR_STRT_Set;
 436:./Libraries/STM32F10x_StdPeriph_Driver/src/stm32f10x_flash.c ****     
 437:./Libraries/STM32F10x_StdPeriph_Driver/src/stm32f10x_flash.c ****       /* Wait for last operation to be completed */
 438:./Libraries/STM32F10x_StdPeriph_Driver/src/stm32f10x_flash.c ****       status = FLASH_WaitForLastBank1Operation(EraseTimeout);
 439:./Libraries/STM32F10x_StdPeriph_Driver/src/stm32f10x_flash.c **** 
 440:./Libraries/STM32F10x_StdPeriph_Driver/src/stm32f10x_flash.c ****       /* Disable the PER Bit */
 441:./Libraries/STM32F10x_StdPeriph_Driver/src/stm32f10x_flash.c ****       FLASH->CR &= CR_PER_Reset;
 442:./Libraries/STM32F10x_StdPeriph_Driver/src/stm32f10x_flash.c ****     }
 443:./Libraries/STM32F10x_StdPeriph_Driver/src/stm32f10x_flash.c ****   }
 444:./Libraries/STM32F10x_StdPeriph_Driver/src/stm32f10x_flash.c ****   else
 445:./Libraries/STM32F10x_StdPeriph_Driver/src/stm32f10x_flash.c ****   {
 446:./Libraries/STM32F10x_StdPeriph_Driver/src/stm32f10x_flash.c ****     /* Wait for last operation to be completed */
 447:./Libraries/STM32F10x_StdPeriph_Driver/src/stm32f10x_flash.c ****     status = FLASH_WaitForLastBank2Operation(EraseTimeout);
 448:./Libraries/STM32F10x_StdPeriph_Driver/src/stm32f10x_flash.c ****     if(status == FLASH_COMPLETE)
 449:./Libraries/STM32F10x_StdPeriph_Driver/src/stm32f10x_flash.c ****     { 
 450:./Libraries/STM32F10x_StdPeriph_Driver/src/stm32f10x_flash.c ****       /* if the previous operation is completed, proceed to erase the page */
 451:./Libraries/STM32F10x_StdPeriph_Driver/src/stm32f10x_flash.c ****       FLASH->CR2|= CR_PER_Set;
 452:./Libraries/STM32F10x_StdPeriph_Driver/src/stm32f10x_flash.c ****       FLASH->AR2 = Page_Address; 
 453:./Libraries/STM32F10x_StdPeriph_Driver/src/stm32f10x_flash.c ****       FLASH->CR2|= CR_STRT_Set;
 454:./Libraries/STM32F10x_StdPeriph_Driver/src/stm32f10x_flash.c ****     
 455:./Libraries/STM32F10x_StdPeriph_Driver/src/stm32f10x_flash.c ****       /* Wait for last operation to be completed */
 456:./Libraries/STM32F10x_StdPeriph_Driver/src/stm32f10x_flash.c ****       status = FLASH_WaitForLastBank2Operation(EraseTimeout);
 457:./Libraries/STM32F10x_StdPeriph_Driver/src/stm32f10x_flash.c ****       
 458:./Libraries/STM32F10x_StdPeriph_Driver/src/stm32f10x_flash.c ****       /* Disable the PER Bit */
 459:./Libraries/STM32F10x_StdPeriph_Driver/src/stm32f10x_flash.c ****       FLASH->CR2 &= CR_PER_Reset;
 460:./Libraries/STM32F10x_StdPeriph_Driver/src/stm32f10x_flash.c ****     }
 461:./Libraries/STM32F10x_StdPeriph_Driver/src/stm32f10x_flash.c ****   }
 462:./Libraries/STM32F10x_StdPeriph_Driver/src/stm32f10x_flash.c **** #else
 463:./Libraries/STM32F10x_StdPeriph_Driver/src/stm32f10x_flash.c ****   /* Wait for last operation to be completed */
 464:./Libraries/STM32F10x_StdPeriph_Driver/src/stm32f10x_flash.c ****   status = FLASH_WaitForLastOperation(EraseTimeout);
 465:./Libraries/STM32F10x_StdPeriph_Driver/src/stm32f10x_flash.c ****   
 466:./Libraries/STM32F10x_StdPeriph_Driver/src/stm32f10x_flash.c ****   if(status == FLASH_COMPLETE)
 467:./Libraries/STM32F10x_StdPeriph_Driver/src/stm32f10x_flash.c ****   { 
 468:./Libraries/STM32F10x_StdPeriph_Driver/src/stm32f10x_flash.c ****     /* if the previous operation is completed, proceed to erase the page */
 469:./Libraries/STM32F10x_StdPeriph_Driver/src/stm32f10x_flash.c ****     FLASH->CR|= CR_PER_Set;
 470:./Libraries/STM32F10x_StdPeriph_Driver/src/stm32f10x_flash.c ****     FLASH->AR = Page_Address; 
 471:./Libraries/STM32F10x_StdPeriph_Driver/src/stm32f10x_flash.c ****     FLASH->CR|= CR_STRT_Set;
 472:./Libraries/STM32F10x_StdPeriph_Driver/src/stm32f10x_flash.c ****     
 473:./Libraries/STM32F10x_StdPeriph_Driver/src/stm32f10x_flash.c ****     /* Wait for last operation to be completed */
 474:./Libraries/STM32F10x_StdPeriph_Driver/src/stm32f10x_flash.c ****     status = FLASH_WaitForLastOperation(EraseTimeout);
 475:./Libraries/STM32F10x_StdPeriph_Driver/src/stm32f10x_flash.c ****     
 476:./Libraries/STM32F10x_StdPeriph_Driver/src/stm32f10x_flash.c ****     /* Disable the PER Bit */
 477:./Libraries/STM32F10x_StdPeriph_Driver/src/stm32f10x_flash.c ****     FLASH->CR &= CR_PER_Reset;
 478:./Libraries/STM32F10x_StdPeriph_Driver/src/stm32f10x_flash.c ****   }
 479:./Libraries/STM32F10x_StdPeriph_Driver/src/stm32f10x_flash.c **** #endif /* STM32F10X_XL */
 480:./Libraries/STM32F10x_StdPeriph_Driver/src/stm32f10x_flash.c **** 
 481:./Libraries/STM32F10x_StdPeriph_Driver/src/stm32f10x_flash.c ****   /* Return the Erase Status */
 482:./Libraries/STM32F10x_StdPeriph_Driver/src/stm32f10x_flash.c ****   return status;
 483:./Libraries/STM32F10x_StdPeriph_Driver/src/stm32f10x_flash.c **** }
 484:./Libraries/STM32F10x_StdPeriph_Driver/src/stm32f10x_flash.c **** 
 485:./Libraries/STM32F10x_StdPeriph_Driver/src/stm32f10x_flash.c **** /**
ARM GAS  /tmp/ccV0cNik.s 			page 14


 486:./Libraries/STM32F10x_StdPeriph_Driver/src/stm32f10x_flash.c ****   * @brief  Erases all FLASH pages.
 487:./Libraries/STM32F10x_StdPeriph_Driver/src/stm32f10x_flash.c ****   * @note   This function can be used for all STM32F10x devices.
 488:./Libraries/STM32F10x_StdPeriph_Driver/src/stm32f10x_flash.c ****   * @param  None
 489:./Libraries/STM32F10x_StdPeriph_Driver/src/stm32f10x_flash.c ****   * @retval FLASH Status: The returned value can be: FLASH_ERROR_PG,
 490:./Libraries/STM32F10x_StdPeriph_Driver/src/stm32f10x_flash.c ****   *         FLASH_ERROR_WRP, FLASH_COMPLETE or FLASH_TIMEOUT.
 491:./Libraries/STM32F10x_StdPeriph_Driver/src/stm32f10x_flash.c ****   */
 492:./Libraries/STM32F10x_StdPeriph_Driver/src/stm32f10x_flash.c **** FLASH_Status FLASH_EraseAllPages(void)
 493:./Libraries/STM32F10x_StdPeriph_Driver/src/stm32f10x_flash.c **** {
 494:./Libraries/STM32F10x_StdPeriph_Driver/src/stm32f10x_flash.c ****   FLASH_Status status = FLASH_COMPLETE;
 495:./Libraries/STM32F10x_StdPeriph_Driver/src/stm32f10x_flash.c **** 
 496:./Libraries/STM32F10x_StdPeriph_Driver/src/stm32f10x_flash.c **** #ifdef STM32F10X_XL
 497:./Libraries/STM32F10x_StdPeriph_Driver/src/stm32f10x_flash.c ****   /* Wait for last operation to be completed */
 498:./Libraries/STM32F10x_StdPeriph_Driver/src/stm32f10x_flash.c ****   status = FLASH_WaitForLastBank1Operation(EraseTimeout);
 499:./Libraries/STM32F10x_StdPeriph_Driver/src/stm32f10x_flash.c ****   
 500:./Libraries/STM32F10x_StdPeriph_Driver/src/stm32f10x_flash.c ****   if(status == FLASH_COMPLETE)
 501:./Libraries/STM32F10x_StdPeriph_Driver/src/stm32f10x_flash.c ****   {
 502:./Libraries/STM32F10x_StdPeriph_Driver/src/stm32f10x_flash.c ****     /* if the previous operation is completed, proceed to erase all pages */
 503:./Libraries/STM32F10x_StdPeriph_Driver/src/stm32f10x_flash.c ****      FLASH->CR |= CR_MER_Set;
 504:./Libraries/STM32F10x_StdPeriph_Driver/src/stm32f10x_flash.c ****      FLASH->CR |= CR_STRT_Set;
 505:./Libraries/STM32F10x_StdPeriph_Driver/src/stm32f10x_flash.c ****     
 506:./Libraries/STM32F10x_StdPeriph_Driver/src/stm32f10x_flash.c ****     /* Wait for last operation to be completed */
 507:./Libraries/STM32F10x_StdPeriph_Driver/src/stm32f10x_flash.c ****     status = FLASH_WaitForLastBank1Operation(EraseTimeout);
 508:./Libraries/STM32F10x_StdPeriph_Driver/src/stm32f10x_flash.c ****     
 509:./Libraries/STM32F10x_StdPeriph_Driver/src/stm32f10x_flash.c ****     /* Disable the MER Bit */
 510:./Libraries/STM32F10x_StdPeriph_Driver/src/stm32f10x_flash.c ****     FLASH->CR &= CR_MER_Reset;
 511:./Libraries/STM32F10x_StdPeriph_Driver/src/stm32f10x_flash.c ****   }    
 512:./Libraries/STM32F10x_StdPeriph_Driver/src/stm32f10x_flash.c ****   if(status == FLASH_COMPLETE)
 513:./Libraries/STM32F10x_StdPeriph_Driver/src/stm32f10x_flash.c ****   {
 514:./Libraries/STM32F10x_StdPeriph_Driver/src/stm32f10x_flash.c ****     /* if the previous operation is completed, proceed to erase all pages */
 515:./Libraries/STM32F10x_StdPeriph_Driver/src/stm32f10x_flash.c ****      FLASH->CR2 |= CR_MER_Set;
 516:./Libraries/STM32F10x_StdPeriph_Driver/src/stm32f10x_flash.c ****      FLASH->CR2 |= CR_STRT_Set;
 517:./Libraries/STM32F10x_StdPeriph_Driver/src/stm32f10x_flash.c ****     
 518:./Libraries/STM32F10x_StdPeriph_Driver/src/stm32f10x_flash.c ****     /* Wait for last operation to be completed */
 519:./Libraries/STM32F10x_StdPeriph_Driver/src/stm32f10x_flash.c ****     status = FLASH_WaitForLastBank2Operation(EraseTimeout);
 520:./Libraries/STM32F10x_StdPeriph_Driver/src/stm32f10x_flash.c ****     
 521:./Libraries/STM32F10x_StdPeriph_Driver/src/stm32f10x_flash.c ****     /* Disable the MER Bit */
 522:./Libraries/STM32F10x_StdPeriph_Driver/src/stm32f10x_flash.c ****     FLASH->CR2 &= CR_MER_Reset;
 523:./Libraries/STM32F10x_StdPeriph_Driver/src/stm32f10x_flash.c ****   }
 524:./Libraries/STM32F10x_StdPeriph_Driver/src/stm32f10x_flash.c **** #else
 525:./Libraries/STM32F10x_StdPeriph_Driver/src/stm32f10x_flash.c ****   /* Wait for last operation to be completed */
 526:./Libraries/STM32F10x_StdPeriph_Driver/src/stm32f10x_flash.c ****   status = FLASH_WaitForLastOperation(EraseTimeout);
 527:./Libraries/STM32F10x_StdPeriph_Driver/src/stm32f10x_flash.c ****   if(status == FLASH_COMPLETE)
 528:./Libraries/STM32F10x_StdPeriph_Driver/src/stm32f10x_flash.c ****   {
 529:./Libraries/STM32F10x_StdPeriph_Driver/src/stm32f10x_flash.c ****     /* if the previous operation is completed, proceed to erase all pages */
 530:./Libraries/STM32F10x_StdPeriph_Driver/src/stm32f10x_flash.c ****      FLASH->CR |= CR_MER_Set;
 531:./Libraries/STM32F10x_StdPeriph_Driver/src/stm32f10x_flash.c ****      FLASH->CR |= CR_STRT_Set;
 532:./Libraries/STM32F10x_StdPeriph_Driver/src/stm32f10x_flash.c ****     
 533:./Libraries/STM32F10x_StdPeriph_Driver/src/stm32f10x_flash.c ****     /* Wait for last operation to be completed */
 534:./Libraries/STM32F10x_StdPeriph_Driver/src/stm32f10x_flash.c ****     status = FLASH_WaitForLastOperation(EraseTimeout);
 535:./Libraries/STM32F10x_StdPeriph_Driver/src/stm32f10x_flash.c **** 
 536:./Libraries/STM32F10x_StdPeriph_Driver/src/stm32f10x_flash.c ****     /* Disable the MER Bit */
 537:./Libraries/STM32F10x_StdPeriph_Driver/src/stm32f10x_flash.c ****     FLASH->CR &= CR_MER_Reset;
 538:./Libraries/STM32F10x_StdPeriph_Driver/src/stm32f10x_flash.c ****   }
 539:./Libraries/STM32F10x_StdPeriph_Driver/src/stm32f10x_flash.c **** #endif /* STM32F10X_XL */
 540:./Libraries/STM32F10x_StdPeriph_Driver/src/stm32f10x_flash.c **** 
 541:./Libraries/STM32F10x_StdPeriph_Driver/src/stm32f10x_flash.c ****   /* Return the Erase Status */
 542:./Libraries/STM32F10x_StdPeriph_Driver/src/stm32f10x_flash.c ****   return status;
ARM GAS  /tmp/ccV0cNik.s 			page 15


 543:./Libraries/STM32F10x_StdPeriph_Driver/src/stm32f10x_flash.c **** }
 544:./Libraries/STM32F10x_StdPeriph_Driver/src/stm32f10x_flash.c **** 
 545:./Libraries/STM32F10x_StdPeriph_Driver/src/stm32f10x_flash.c **** /**
 546:./Libraries/STM32F10x_StdPeriph_Driver/src/stm32f10x_flash.c ****   * @brief  Erases all Bank1 FLASH pages.
 547:./Libraries/STM32F10x_StdPeriph_Driver/src/stm32f10x_flash.c ****   * @note   This function can be used for all STM32F10x devices.
 548:./Libraries/STM32F10x_StdPeriph_Driver/src/stm32f10x_flash.c ****   *         - For STM32F10X_XL devices this function erases all Bank1 pages.
 549:./Libraries/STM32F10x_StdPeriph_Driver/src/stm32f10x_flash.c ****   *         - For all other devices it erases all Bank1 pages and it is equivalent 
 550:./Libraries/STM32F10x_StdPeriph_Driver/src/stm32f10x_flash.c ****   *           to FLASH_EraseAllPages function.
 551:./Libraries/STM32F10x_StdPeriph_Driver/src/stm32f10x_flash.c ****   * @param  None
 552:./Libraries/STM32F10x_StdPeriph_Driver/src/stm32f10x_flash.c ****   * @retval FLASH Status: The returned value can be: FLASH_ERROR_PG,
 553:./Libraries/STM32F10x_StdPeriph_Driver/src/stm32f10x_flash.c ****   *         FLASH_ERROR_WRP, FLASH_COMPLETE or FLASH_TIMEOUT.
 554:./Libraries/STM32F10x_StdPeriph_Driver/src/stm32f10x_flash.c ****   */
 555:./Libraries/STM32F10x_StdPeriph_Driver/src/stm32f10x_flash.c **** FLASH_Status FLASH_EraseAllBank1Pages(void)
 556:./Libraries/STM32F10x_StdPeriph_Driver/src/stm32f10x_flash.c **** {
 557:./Libraries/STM32F10x_StdPeriph_Driver/src/stm32f10x_flash.c ****   FLASH_Status status = FLASH_COMPLETE;
 558:./Libraries/STM32F10x_StdPeriph_Driver/src/stm32f10x_flash.c ****   /* Wait for last operation to be completed */
 559:./Libraries/STM32F10x_StdPeriph_Driver/src/stm32f10x_flash.c ****   status = FLASH_WaitForLastBank1Operation(EraseTimeout);
 560:./Libraries/STM32F10x_StdPeriph_Driver/src/stm32f10x_flash.c ****   
 561:./Libraries/STM32F10x_StdPeriph_Driver/src/stm32f10x_flash.c ****   if(status == FLASH_COMPLETE)
 562:./Libraries/STM32F10x_StdPeriph_Driver/src/stm32f10x_flash.c ****   {
 563:./Libraries/STM32F10x_StdPeriph_Driver/src/stm32f10x_flash.c ****     /* if the previous operation is completed, proceed to erase all pages */
 564:./Libraries/STM32F10x_StdPeriph_Driver/src/stm32f10x_flash.c ****      FLASH->CR |= CR_MER_Set;
 565:./Libraries/STM32F10x_StdPeriph_Driver/src/stm32f10x_flash.c ****      FLASH->CR |= CR_STRT_Set;
 566:./Libraries/STM32F10x_StdPeriph_Driver/src/stm32f10x_flash.c ****     
 567:./Libraries/STM32F10x_StdPeriph_Driver/src/stm32f10x_flash.c ****     /* Wait for last operation to be completed */
 568:./Libraries/STM32F10x_StdPeriph_Driver/src/stm32f10x_flash.c ****     status = FLASH_WaitForLastBank1Operation(EraseTimeout);
 569:./Libraries/STM32F10x_StdPeriph_Driver/src/stm32f10x_flash.c ****     
 570:./Libraries/STM32F10x_StdPeriph_Driver/src/stm32f10x_flash.c ****     /* Disable the MER Bit */
 571:./Libraries/STM32F10x_StdPeriph_Driver/src/stm32f10x_flash.c ****     FLASH->CR &= CR_MER_Reset;
 572:./Libraries/STM32F10x_StdPeriph_Driver/src/stm32f10x_flash.c ****   }    
 573:./Libraries/STM32F10x_StdPeriph_Driver/src/stm32f10x_flash.c ****   /* Return the Erase Status */
 574:./Libraries/STM32F10x_StdPeriph_Driver/src/stm32f10x_flash.c ****   return status;
 575:./Libraries/STM32F10x_StdPeriph_Driver/src/stm32f10x_flash.c **** }
 576:./Libraries/STM32F10x_StdPeriph_Driver/src/stm32f10x_flash.c **** 
 577:./Libraries/STM32F10x_StdPeriph_Driver/src/stm32f10x_flash.c **** #ifdef STM32F10X_XL
 578:./Libraries/STM32F10x_StdPeriph_Driver/src/stm32f10x_flash.c **** /**
 579:./Libraries/STM32F10x_StdPeriph_Driver/src/stm32f10x_flash.c ****   * @brief  Erases all Bank2 FLASH pages.
 580:./Libraries/STM32F10x_StdPeriph_Driver/src/stm32f10x_flash.c ****   * @note   This function can be used only for STM32F10x_XL density devices.
 581:./Libraries/STM32F10x_StdPeriph_Driver/src/stm32f10x_flash.c ****   * @param  None
 582:./Libraries/STM32F10x_StdPeriph_Driver/src/stm32f10x_flash.c ****   * @retval FLASH Status: The returned value can be: FLASH_ERROR_PG,
 583:./Libraries/STM32F10x_StdPeriph_Driver/src/stm32f10x_flash.c ****   *         FLASH_ERROR_WRP, FLASH_COMPLETE or FLASH_TIMEOUT.
 584:./Libraries/STM32F10x_StdPeriph_Driver/src/stm32f10x_flash.c ****   */
 585:./Libraries/STM32F10x_StdPeriph_Driver/src/stm32f10x_flash.c **** FLASH_Status FLASH_EraseAllBank2Pages(void)
 586:./Libraries/STM32F10x_StdPeriph_Driver/src/stm32f10x_flash.c **** {
 587:./Libraries/STM32F10x_StdPeriph_Driver/src/stm32f10x_flash.c ****   FLASH_Status status = FLASH_COMPLETE;
 588:./Libraries/STM32F10x_StdPeriph_Driver/src/stm32f10x_flash.c ****   /* Wait for last operation to be completed */
 589:./Libraries/STM32F10x_StdPeriph_Driver/src/stm32f10x_flash.c ****   status = FLASH_WaitForLastBank2Operation(EraseTimeout);
 590:./Libraries/STM32F10x_StdPeriph_Driver/src/stm32f10x_flash.c ****   
 591:./Libraries/STM32F10x_StdPeriph_Driver/src/stm32f10x_flash.c ****   if(status == FLASH_COMPLETE)
 592:./Libraries/STM32F10x_StdPeriph_Driver/src/stm32f10x_flash.c ****   {
 593:./Libraries/STM32F10x_StdPeriph_Driver/src/stm32f10x_flash.c ****     /* if the previous operation is completed, proceed to erase all pages */
 594:./Libraries/STM32F10x_StdPeriph_Driver/src/stm32f10x_flash.c ****      FLASH->CR2 |= CR_MER_Set;
 595:./Libraries/STM32F10x_StdPeriph_Driver/src/stm32f10x_flash.c ****      FLASH->CR2 |= CR_STRT_Set;
 596:./Libraries/STM32F10x_StdPeriph_Driver/src/stm32f10x_flash.c ****     
 597:./Libraries/STM32F10x_StdPeriph_Driver/src/stm32f10x_flash.c ****     /* Wait for last operation to be completed */
 598:./Libraries/STM32F10x_StdPeriph_Driver/src/stm32f10x_flash.c ****     status = FLASH_WaitForLastBank2Operation(EraseTimeout);
 599:./Libraries/STM32F10x_StdPeriph_Driver/src/stm32f10x_flash.c **** 
ARM GAS  /tmp/ccV0cNik.s 			page 16


 600:./Libraries/STM32F10x_StdPeriph_Driver/src/stm32f10x_flash.c ****     /* Disable the MER Bit */
 601:./Libraries/STM32F10x_StdPeriph_Driver/src/stm32f10x_flash.c ****     FLASH->CR2 &= CR_MER_Reset;
 602:./Libraries/STM32F10x_StdPeriph_Driver/src/stm32f10x_flash.c ****   }    
 603:./Libraries/STM32F10x_StdPeriph_Driver/src/stm32f10x_flash.c ****   /* Return the Erase Status */
 604:./Libraries/STM32F10x_StdPeriph_Driver/src/stm32f10x_flash.c ****   return status;
 605:./Libraries/STM32F10x_StdPeriph_Driver/src/stm32f10x_flash.c **** }
 606:./Libraries/STM32F10x_StdPeriph_Driver/src/stm32f10x_flash.c **** #endif /* STM32F10X_XL */
 607:./Libraries/STM32F10x_StdPeriph_Driver/src/stm32f10x_flash.c **** 
 608:./Libraries/STM32F10x_StdPeriph_Driver/src/stm32f10x_flash.c **** /**
 609:./Libraries/STM32F10x_StdPeriph_Driver/src/stm32f10x_flash.c ****   * @brief  Erases the FLASH option bytes.
 610:./Libraries/STM32F10x_StdPeriph_Driver/src/stm32f10x_flash.c ****   * @note   This functions erases all option bytes except the Read protection (RDP). 
 611:./Libraries/STM32F10x_StdPeriph_Driver/src/stm32f10x_flash.c ****   * @note   This function can be used for all STM32F10x devices.
 612:./Libraries/STM32F10x_StdPeriph_Driver/src/stm32f10x_flash.c ****   * @param  None
 613:./Libraries/STM32F10x_StdPeriph_Driver/src/stm32f10x_flash.c ****   * @retval FLASH Status: The returned value can be: FLASH_ERROR_PG,
 614:./Libraries/STM32F10x_StdPeriph_Driver/src/stm32f10x_flash.c ****   *         FLASH_ERROR_WRP, FLASH_COMPLETE or FLASH_TIMEOUT.
 615:./Libraries/STM32F10x_StdPeriph_Driver/src/stm32f10x_flash.c ****   */
 616:./Libraries/STM32F10x_StdPeriph_Driver/src/stm32f10x_flash.c **** FLASH_Status FLASH_EraseOptionBytes(void)
 617:./Libraries/STM32F10x_StdPeriph_Driver/src/stm32f10x_flash.c **** {
 618:./Libraries/STM32F10x_StdPeriph_Driver/src/stm32f10x_flash.c ****   uint16_t rdptmp = RDP_Key;
 619:./Libraries/STM32F10x_StdPeriph_Driver/src/stm32f10x_flash.c **** 
 620:./Libraries/STM32F10x_StdPeriph_Driver/src/stm32f10x_flash.c ****   FLASH_Status status = FLASH_COMPLETE;
 621:./Libraries/STM32F10x_StdPeriph_Driver/src/stm32f10x_flash.c **** 
 622:./Libraries/STM32F10x_StdPeriph_Driver/src/stm32f10x_flash.c ****   /* Get the actual read protection Option Byte value */ 
 623:./Libraries/STM32F10x_StdPeriph_Driver/src/stm32f10x_flash.c ****   if(FLASH_GetReadOutProtectionStatus() != RESET)
 624:./Libraries/STM32F10x_StdPeriph_Driver/src/stm32f10x_flash.c ****   {
 625:./Libraries/STM32F10x_StdPeriph_Driver/src/stm32f10x_flash.c ****     rdptmp = 0x00;  
 626:./Libraries/STM32F10x_StdPeriph_Driver/src/stm32f10x_flash.c ****   }
 627:./Libraries/STM32F10x_StdPeriph_Driver/src/stm32f10x_flash.c **** 
 628:./Libraries/STM32F10x_StdPeriph_Driver/src/stm32f10x_flash.c ****   /* Wait for last operation to be completed */
 629:./Libraries/STM32F10x_StdPeriph_Driver/src/stm32f10x_flash.c ****   status = FLASH_WaitForLastOperation(EraseTimeout);
 630:./Libraries/STM32F10x_StdPeriph_Driver/src/stm32f10x_flash.c ****   if(status == FLASH_COMPLETE)
 631:./Libraries/STM32F10x_StdPeriph_Driver/src/stm32f10x_flash.c ****   {
 632:./Libraries/STM32F10x_StdPeriph_Driver/src/stm32f10x_flash.c ****     /* Authorize the small information block programming */
 633:./Libraries/STM32F10x_StdPeriph_Driver/src/stm32f10x_flash.c ****     FLASH->OPTKEYR = FLASH_KEY1;
 634:./Libraries/STM32F10x_StdPeriph_Driver/src/stm32f10x_flash.c ****     FLASH->OPTKEYR = FLASH_KEY2;
 635:./Libraries/STM32F10x_StdPeriph_Driver/src/stm32f10x_flash.c ****     
 636:./Libraries/STM32F10x_StdPeriph_Driver/src/stm32f10x_flash.c ****     /* if the previous operation is completed, proceed to erase the option bytes */
 637:./Libraries/STM32F10x_StdPeriph_Driver/src/stm32f10x_flash.c ****     FLASH->CR |= CR_OPTER_Set;
 638:./Libraries/STM32F10x_StdPeriph_Driver/src/stm32f10x_flash.c ****     FLASH->CR |= CR_STRT_Set;
 639:./Libraries/STM32F10x_StdPeriph_Driver/src/stm32f10x_flash.c ****     /* Wait for last operation to be completed */
 640:./Libraries/STM32F10x_StdPeriph_Driver/src/stm32f10x_flash.c ****     status = FLASH_WaitForLastOperation(EraseTimeout);
 641:./Libraries/STM32F10x_StdPeriph_Driver/src/stm32f10x_flash.c ****     
 642:./Libraries/STM32F10x_StdPeriph_Driver/src/stm32f10x_flash.c ****     if(status == FLASH_COMPLETE)
 643:./Libraries/STM32F10x_StdPeriph_Driver/src/stm32f10x_flash.c ****     {
 644:./Libraries/STM32F10x_StdPeriph_Driver/src/stm32f10x_flash.c ****       /* if the erase operation is completed, disable the OPTER Bit */
 645:./Libraries/STM32F10x_StdPeriph_Driver/src/stm32f10x_flash.c ****       FLASH->CR &= CR_OPTER_Reset;
 646:./Libraries/STM32F10x_StdPeriph_Driver/src/stm32f10x_flash.c ****        
 647:./Libraries/STM32F10x_StdPeriph_Driver/src/stm32f10x_flash.c ****       /* Enable the Option Bytes Programming operation */
 648:./Libraries/STM32F10x_StdPeriph_Driver/src/stm32f10x_flash.c ****       FLASH->CR |= CR_OPTPG_Set;
 649:./Libraries/STM32F10x_StdPeriph_Driver/src/stm32f10x_flash.c ****       /* Restore the last read protection Option Byte value */
 650:./Libraries/STM32F10x_StdPeriph_Driver/src/stm32f10x_flash.c ****       OB->RDP = (uint16_t)rdptmp; 
 651:./Libraries/STM32F10x_StdPeriph_Driver/src/stm32f10x_flash.c ****       /* Wait for last operation to be completed */
 652:./Libraries/STM32F10x_StdPeriph_Driver/src/stm32f10x_flash.c ****       status = FLASH_WaitForLastOperation(ProgramTimeout);
 653:./Libraries/STM32F10x_StdPeriph_Driver/src/stm32f10x_flash.c ****  
 654:./Libraries/STM32F10x_StdPeriph_Driver/src/stm32f10x_flash.c ****       if(status != FLASH_TIMEOUT)
 655:./Libraries/STM32F10x_StdPeriph_Driver/src/stm32f10x_flash.c ****       {
 656:./Libraries/STM32F10x_StdPeriph_Driver/src/stm32f10x_flash.c ****         /* if the program operation is completed, disable the OPTPG Bit */
ARM GAS  /tmp/ccV0cNik.s 			page 17


 657:./Libraries/STM32F10x_StdPeriph_Driver/src/stm32f10x_flash.c ****         FLASH->CR &= CR_OPTPG_Reset;
 658:./Libraries/STM32F10x_StdPeriph_Driver/src/stm32f10x_flash.c ****       }
 659:./Libraries/STM32F10x_StdPeriph_Driver/src/stm32f10x_flash.c ****     }
 660:./Libraries/STM32F10x_StdPeriph_Driver/src/stm32f10x_flash.c ****     else
 661:./Libraries/STM32F10x_StdPeriph_Driver/src/stm32f10x_flash.c ****     {
 662:./Libraries/STM32F10x_StdPeriph_Driver/src/stm32f10x_flash.c ****       if (status != FLASH_TIMEOUT)
 663:./Libraries/STM32F10x_StdPeriph_Driver/src/stm32f10x_flash.c ****       {
 664:./Libraries/STM32F10x_StdPeriph_Driver/src/stm32f10x_flash.c ****         /* Disable the OPTPG Bit */
 665:./Libraries/STM32F10x_StdPeriph_Driver/src/stm32f10x_flash.c ****         FLASH->CR &= CR_OPTPG_Reset;
 666:./Libraries/STM32F10x_StdPeriph_Driver/src/stm32f10x_flash.c ****       }
 667:./Libraries/STM32F10x_StdPeriph_Driver/src/stm32f10x_flash.c ****     }  
 668:./Libraries/STM32F10x_StdPeriph_Driver/src/stm32f10x_flash.c ****   }
 669:./Libraries/STM32F10x_StdPeriph_Driver/src/stm32f10x_flash.c ****   /* Return the erase status */
 670:./Libraries/STM32F10x_StdPeriph_Driver/src/stm32f10x_flash.c ****   return status;
 671:./Libraries/STM32F10x_StdPeriph_Driver/src/stm32f10x_flash.c **** }
 672:./Libraries/STM32F10x_StdPeriph_Driver/src/stm32f10x_flash.c **** 
 673:./Libraries/STM32F10x_StdPeriph_Driver/src/stm32f10x_flash.c **** /**
 674:./Libraries/STM32F10x_StdPeriph_Driver/src/stm32f10x_flash.c ****   * @brief  Programs a word at a specified address.
 675:./Libraries/STM32F10x_StdPeriph_Driver/src/stm32f10x_flash.c ****   * @note   This function can be used for all STM32F10x devices.
 676:./Libraries/STM32F10x_StdPeriph_Driver/src/stm32f10x_flash.c ****   * @param  Address: specifies the address to be programmed.
 677:./Libraries/STM32F10x_StdPeriph_Driver/src/stm32f10x_flash.c ****   * @param  Data: specifies the data to be programmed.
 678:./Libraries/STM32F10x_StdPeriph_Driver/src/stm32f10x_flash.c ****   * @retval FLASH Status: The returned value can be: FLASH_ERROR_PG,
 679:./Libraries/STM32F10x_StdPeriph_Driver/src/stm32f10x_flash.c ****   *         FLASH_ERROR_WRP, FLASH_COMPLETE or FLASH_TIMEOUT. 
 680:./Libraries/STM32F10x_StdPeriph_Driver/src/stm32f10x_flash.c ****   */
 681:./Libraries/STM32F10x_StdPeriph_Driver/src/stm32f10x_flash.c **** FLASH_Status FLASH_ProgramWord(uint32_t Address, uint32_t Data)
 682:./Libraries/STM32F10x_StdPeriph_Driver/src/stm32f10x_flash.c **** {
 683:./Libraries/STM32F10x_StdPeriph_Driver/src/stm32f10x_flash.c ****   FLASH_Status status = FLASH_COMPLETE;
 684:./Libraries/STM32F10x_StdPeriph_Driver/src/stm32f10x_flash.c ****   __IO uint32_t tmp = 0;
 685:./Libraries/STM32F10x_StdPeriph_Driver/src/stm32f10x_flash.c **** 
 686:./Libraries/STM32F10x_StdPeriph_Driver/src/stm32f10x_flash.c ****   /* Check the parameters */
 687:./Libraries/STM32F10x_StdPeriph_Driver/src/stm32f10x_flash.c ****   assert_param(IS_FLASH_ADDRESS(Address));
 688:./Libraries/STM32F10x_StdPeriph_Driver/src/stm32f10x_flash.c **** 
 689:./Libraries/STM32F10x_StdPeriph_Driver/src/stm32f10x_flash.c **** #ifdef STM32F10X_XL
 690:./Libraries/STM32F10x_StdPeriph_Driver/src/stm32f10x_flash.c ****   if(Address < FLASH_BANK1_END_ADDRESS - 2)
 691:./Libraries/STM32F10x_StdPeriph_Driver/src/stm32f10x_flash.c ****   { 
 692:./Libraries/STM32F10x_StdPeriph_Driver/src/stm32f10x_flash.c ****     /* Wait for last operation to be completed */
 693:./Libraries/STM32F10x_StdPeriph_Driver/src/stm32f10x_flash.c ****     status = FLASH_WaitForLastBank1Operation(ProgramTimeout); 
 694:./Libraries/STM32F10x_StdPeriph_Driver/src/stm32f10x_flash.c ****     if(status == FLASH_COMPLETE)
 695:./Libraries/STM32F10x_StdPeriph_Driver/src/stm32f10x_flash.c ****     {
 696:./Libraries/STM32F10x_StdPeriph_Driver/src/stm32f10x_flash.c ****       /* if the previous operation is completed, proceed to program the new first 
 697:./Libraries/STM32F10x_StdPeriph_Driver/src/stm32f10x_flash.c ****         half word */
 698:./Libraries/STM32F10x_StdPeriph_Driver/src/stm32f10x_flash.c ****       FLASH->CR |= CR_PG_Set;
 699:./Libraries/STM32F10x_StdPeriph_Driver/src/stm32f10x_flash.c ****   
 700:./Libraries/STM32F10x_StdPeriph_Driver/src/stm32f10x_flash.c ****       *(__IO uint16_t*)Address = (uint16_t)Data;
 701:./Libraries/STM32F10x_StdPeriph_Driver/src/stm32f10x_flash.c ****       /* Wait for last operation to be completed */
 702:./Libraries/STM32F10x_StdPeriph_Driver/src/stm32f10x_flash.c ****       status = FLASH_WaitForLastOperation(ProgramTimeout);
 703:./Libraries/STM32F10x_StdPeriph_Driver/src/stm32f10x_flash.c ****  
 704:./Libraries/STM32F10x_StdPeriph_Driver/src/stm32f10x_flash.c ****       if(status == FLASH_COMPLETE)
 705:./Libraries/STM32F10x_StdPeriph_Driver/src/stm32f10x_flash.c ****       {
 706:./Libraries/STM32F10x_StdPeriph_Driver/src/stm32f10x_flash.c ****         /* if the previous operation is completed, proceed to program the new second 
 707:./Libraries/STM32F10x_StdPeriph_Driver/src/stm32f10x_flash.c ****         half word */
 708:./Libraries/STM32F10x_StdPeriph_Driver/src/stm32f10x_flash.c ****         tmp = Address + 2;
 709:./Libraries/STM32F10x_StdPeriph_Driver/src/stm32f10x_flash.c **** 
 710:./Libraries/STM32F10x_StdPeriph_Driver/src/stm32f10x_flash.c ****         *(__IO uint16_t*) tmp = Data >> 16;
 711:./Libraries/STM32F10x_StdPeriph_Driver/src/stm32f10x_flash.c ****     
 712:./Libraries/STM32F10x_StdPeriph_Driver/src/stm32f10x_flash.c ****         /* Wait for last operation to be completed */
 713:./Libraries/STM32F10x_StdPeriph_Driver/src/stm32f10x_flash.c ****         status = FLASH_WaitForLastOperation(ProgramTimeout);
ARM GAS  /tmp/ccV0cNik.s 			page 18


 714:./Libraries/STM32F10x_StdPeriph_Driver/src/stm32f10x_flash.c ****         
 715:./Libraries/STM32F10x_StdPeriph_Driver/src/stm32f10x_flash.c ****         /* Disable the PG Bit */
 716:./Libraries/STM32F10x_StdPeriph_Driver/src/stm32f10x_flash.c ****         FLASH->CR &= CR_PG_Reset;
 717:./Libraries/STM32F10x_StdPeriph_Driver/src/stm32f10x_flash.c ****       }
 718:./Libraries/STM32F10x_StdPeriph_Driver/src/stm32f10x_flash.c ****       else
 719:./Libraries/STM32F10x_StdPeriph_Driver/src/stm32f10x_flash.c ****       {
 720:./Libraries/STM32F10x_StdPeriph_Driver/src/stm32f10x_flash.c ****         /* Disable the PG Bit */
 721:./Libraries/STM32F10x_StdPeriph_Driver/src/stm32f10x_flash.c ****         FLASH->CR &= CR_PG_Reset;
 722:./Libraries/STM32F10x_StdPeriph_Driver/src/stm32f10x_flash.c ****        }
 723:./Libraries/STM32F10x_StdPeriph_Driver/src/stm32f10x_flash.c ****     }
 724:./Libraries/STM32F10x_StdPeriph_Driver/src/stm32f10x_flash.c ****   }
 725:./Libraries/STM32F10x_StdPeriph_Driver/src/stm32f10x_flash.c ****   else if(Address == (FLASH_BANK1_END_ADDRESS - 1))
 726:./Libraries/STM32F10x_StdPeriph_Driver/src/stm32f10x_flash.c ****   {
 727:./Libraries/STM32F10x_StdPeriph_Driver/src/stm32f10x_flash.c ****     /* Wait for last operation to be completed */
 728:./Libraries/STM32F10x_StdPeriph_Driver/src/stm32f10x_flash.c ****     status = FLASH_WaitForLastBank1Operation(ProgramTimeout);
 729:./Libraries/STM32F10x_StdPeriph_Driver/src/stm32f10x_flash.c **** 
 730:./Libraries/STM32F10x_StdPeriph_Driver/src/stm32f10x_flash.c ****     if(status == FLASH_COMPLETE)
 731:./Libraries/STM32F10x_StdPeriph_Driver/src/stm32f10x_flash.c ****     {
 732:./Libraries/STM32F10x_StdPeriph_Driver/src/stm32f10x_flash.c ****       /* if the previous operation is completed, proceed to program the new first 
 733:./Libraries/STM32F10x_StdPeriph_Driver/src/stm32f10x_flash.c ****         half word */
 734:./Libraries/STM32F10x_StdPeriph_Driver/src/stm32f10x_flash.c ****       FLASH->CR |= CR_PG_Set;
 735:./Libraries/STM32F10x_StdPeriph_Driver/src/stm32f10x_flash.c ****   
 736:./Libraries/STM32F10x_StdPeriph_Driver/src/stm32f10x_flash.c ****       *(__IO uint16_t*)Address = (uint16_t)Data;
 737:./Libraries/STM32F10x_StdPeriph_Driver/src/stm32f10x_flash.c **** 
 738:./Libraries/STM32F10x_StdPeriph_Driver/src/stm32f10x_flash.c ****       /* Wait for last operation to be completed */
 739:./Libraries/STM32F10x_StdPeriph_Driver/src/stm32f10x_flash.c ****       status = FLASH_WaitForLastBank1Operation(ProgramTimeout);
 740:./Libraries/STM32F10x_StdPeriph_Driver/src/stm32f10x_flash.c ****       
 741:./Libraries/STM32F10x_StdPeriph_Driver/src/stm32f10x_flash.c **** 	  /* Disable the PG Bit */
 742:./Libraries/STM32F10x_StdPeriph_Driver/src/stm32f10x_flash.c ****       FLASH->CR &= CR_PG_Reset;
 743:./Libraries/STM32F10x_StdPeriph_Driver/src/stm32f10x_flash.c ****     }
 744:./Libraries/STM32F10x_StdPeriph_Driver/src/stm32f10x_flash.c ****     else
 745:./Libraries/STM32F10x_StdPeriph_Driver/src/stm32f10x_flash.c ****     {
 746:./Libraries/STM32F10x_StdPeriph_Driver/src/stm32f10x_flash.c ****       /* Disable the PG Bit */
 747:./Libraries/STM32F10x_StdPeriph_Driver/src/stm32f10x_flash.c ****       FLASH->CR &= CR_PG_Reset;
 748:./Libraries/STM32F10x_StdPeriph_Driver/src/stm32f10x_flash.c ****     }
 749:./Libraries/STM32F10x_StdPeriph_Driver/src/stm32f10x_flash.c **** 
 750:./Libraries/STM32F10x_StdPeriph_Driver/src/stm32f10x_flash.c ****     /* Wait for last operation to be completed */
 751:./Libraries/STM32F10x_StdPeriph_Driver/src/stm32f10x_flash.c ****     status = FLASH_WaitForLastBank2Operation(ProgramTimeout);
 752:./Libraries/STM32F10x_StdPeriph_Driver/src/stm32f10x_flash.c **** 
 753:./Libraries/STM32F10x_StdPeriph_Driver/src/stm32f10x_flash.c ****     if(status == FLASH_COMPLETE)
 754:./Libraries/STM32F10x_StdPeriph_Driver/src/stm32f10x_flash.c ****     {
 755:./Libraries/STM32F10x_StdPeriph_Driver/src/stm32f10x_flash.c ****       /* if the previous operation is completed, proceed to program the new second 
 756:./Libraries/STM32F10x_StdPeriph_Driver/src/stm32f10x_flash.c ****       half word */
 757:./Libraries/STM32F10x_StdPeriph_Driver/src/stm32f10x_flash.c ****       FLASH->CR2 |= CR_PG_Set;
 758:./Libraries/STM32F10x_StdPeriph_Driver/src/stm32f10x_flash.c ****       tmp = Address + 2;
 759:./Libraries/STM32F10x_StdPeriph_Driver/src/stm32f10x_flash.c **** 
 760:./Libraries/STM32F10x_StdPeriph_Driver/src/stm32f10x_flash.c ****       *(__IO uint16_t*) tmp = Data >> 16;
 761:./Libraries/STM32F10x_StdPeriph_Driver/src/stm32f10x_flash.c ****     
 762:./Libraries/STM32F10x_StdPeriph_Driver/src/stm32f10x_flash.c ****       /* Wait for last operation to be completed */
 763:./Libraries/STM32F10x_StdPeriph_Driver/src/stm32f10x_flash.c ****       status = FLASH_WaitForLastBank2Operation(ProgramTimeout);
 764:./Libraries/STM32F10x_StdPeriph_Driver/src/stm32f10x_flash.c ****         
 765:./Libraries/STM32F10x_StdPeriph_Driver/src/stm32f10x_flash.c ****       /* Disable the PG Bit */
 766:./Libraries/STM32F10x_StdPeriph_Driver/src/stm32f10x_flash.c ****       FLASH->CR2 &= CR_PG_Reset;
 767:./Libraries/STM32F10x_StdPeriph_Driver/src/stm32f10x_flash.c ****     }
 768:./Libraries/STM32F10x_StdPeriph_Driver/src/stm32f10x_flash.c ****     else
 769:./Libraries/STM32F10x_StdPeriph_Driver/src/stm32f10x_flash.c ****     {
 770:./Libraries/STM32F10x_StdPeriph_Driver/src/stm32f10x_flash.c ****       /* Disable the PG Bit */
ARM GAS  /tmp/ccV0cNik.s 			page 19


 771:./Libraries/STM32F10x_StdPeriph_Driver/src/stm32f10x_flash.c ****       FLASH->CR2 &= CR_PG_Reset;
 772:./Libraries/STM32F10x_StdPeriph_Driver/src/stm32f10x_flash.c ****     }
 773:./Libraries/STM32F10x_StdPeriph_Driver/src/stm32f10x_flash.c ****   }
 774:./Libraries/STM32F10x_StdPeriph_Driver/src/stm32f10x_flash.c ****   else
 775:./Libraries/STM32F10x_StdPeriph_Driver/src/stm32f10x_flash.c ****   {
 776:./Libraries/STM32F10x_StdPeriph_Driver/src/stm32f10x_flash.c ****     /* Wait for last operation to be completed */
 777:./Libraries/STM32F10x_StdPeriph_Driver/src/stm32f10x_flash.c ****     status = FLASH_WaitForLastBank2Operation(ProgramTimeout);
 778:./Libraries/STM32F10x_StdPeriph_Driver/src/stm32f10x_flash.c **** 
 779:./Libraries/STM32F10x_StdPeriph_Driver/src/stm32f10x_flash.c ****     if(status == FLASH_COMPLETE)
 780:./Libraries/STM32F10x_StdPeriph_Driver/src/stm32f10x_flash.c ****     {
 781:./Libraries/STM32F10x_StdPeriph_Driver/src/stm32f10x_flash.c ****       /* if the previous operation is completed, proceed to program the new first 
 782:./Libraries/STM32F10x_StdPeriph_Driver/src/stm32f10x_flash.c ****         half word */
 783:./Libraries/STM32F10x_StdPeriph_Driver/src/stm32f10x_flash.c ****       FLASH->CR2 |= CR_PG_Set;
 784:./Libraries/STM32F10x_StdPeriph_Driver/src/stm32f10x_flash.c ****   
 785:./Libraries/STM32F10x_StdPeriph_Driver/src/stm32f10x_flash.c ****       *(__IO uint16_t*)Address = (uint16_t)Data;
 786:./Libraries/STM32F10x_StdPeriph_Driver/src/stm32f10x_flash.c ****       /* Wait for last operation to be completed */
 787:./Libraries/STM32F10x_StdPeriph_Driver/src/stm32f10x_flash.c ****       status = FLASH_WaitForLastBank2Operation(ProgramTimeout);
 788:./Libraries/STM32F10x_StdPeriph_Driver/src/stm32f10x_flash.c ****  
 789:./Libraries/STM32F10x_StdPeriph_Driver/src/stm32f10x_flash.c ****       if(status == FLASH_COMPLETE)
 790:./Libraries/STM32F10x_StdPeriph_Driver/src/stm32f10x_flash.c ****       {
 791:./Libraries/STM32F10x_StdPeriph_Driver/src/stm32f10x_flash.c ****         /* if the previous operation is completed, proceed to program the new second 
 792:./Libraries/STM32F10x_StdPeriph_Driver/src/stm32f10x_flash.c ****         half word */
 793:./Libraries/STM32F10x_StdPeriph_Driver/src/stm32f10x_flash.c ****         tmp = Address + 2;
 794:./Libraries/STM32F10x_StdPeriph_Driver/src/stm32f10x_flash.c **** 
 795:./Libraries/STM32F10x_StdPeriph_Driver/src/stm32f10x_flash.c ****         *(__IO uint16_t*) tmp = Data >> 16;
 796:./Libraries/STM32F10x_StdPeriph_Driver/src/stm32f10x_flash.c ****     
 797:./Libraries/STM32F10x_StdPeriph_Driver/src/stm32f10x_flash.c ****         /* Wait for last operation to be completed */
 798:./Libraries/STM32F10x_StdPeriph_Driver/src/stm32f10x_flash.c ****         status = FLASH_WaitForLastBank2Operation(ProgramTimeout);
 799:./Libraries/STM32F10x_StdPeriph_Driver/src/stm32f10x_flash.c ****         
 800:./Libraries/STM32F10x_StdPeriph_Driver/src/stm32f10x_flash.c ****         /* Disable the PG Bit */
 801:./Libraries/STM32F10x_StdPeriph_Driver/src/stm32f10x_flash.c ****         FLASH->CR2 &= CR_PG_Reset;
 802:./Libraries/STM32F10x_StdPeriph_Driver/src/stm32f10x_flash.c ****       }
 803:./Libraries/STM32F10x_StdPeriph_Driver/src/stm32f10x_flash.c ****       else
 804:./Libraries/STM32F10x_StdPeriph_Driver/src/stm32f10x_flash.c ****       {
 805:./Libraries/STM32F10x_StdPeriph_Driver/src/stm32f10x_flash.c ****         /* Disable the PG Bit */
 806:./Libraries/STM32F10x_StdPeriph_Driver/src/stm32f10x_flash.c ****         FLASH->CR2 &= CR_PG_Reset;
 807:./Libraries/STM32F10x_StdPeriph_Driver/src/stm32f10x_flash.c ****       }
 808:./Libraries/STM32F10x_StdPeriph_Driver/src/stm32f10x_flash.c ****     }
 809:./Libraries/STM32F10x_StdPeriph_Driver/src/stm32f10x_flash.c ****   }
 810:./Libraries/STM32F10x_StdPeriph_Driver/src/stm32f10x_flash.c **** #else
 811:./Libraries/STM32F10x_StdPeriph_Driver/src/stm32f10x_flash.c ****   /* Wait for last operation to be completed */
 812:./Libraries/STM32F10x_StdPeriph_Driver/src/stm32f10x_flash.c ****   status = FLASH_WaitForLastOperation(ProgramTimeout);
 813:./Libraries/STM32F10x_StdPeriph_Driver/src/stm32f10x_flash.c ****   
 814:./Libraries/STM32F10x_StdPeriph_Driver/src/stm32f10x_flash.c ****   if(status == FLASH_COMPLETE)
 815:./Libraries/STM32F10x_StdPeriph_Driver/src/stm32f10x_flash.c ****   {
 816:./Libraries/STM32F10x_StdPeriph_Driver/src/stm32f10x_flash.c ****     /* if the previous operation is completed, proceed to program the new first 
 817:./Libraries/STM32F10x_StdPeriph_Driver/src/stm32f10x_flash.c ****     half word */
 818:./Libraries/STM32F10x_StdPeriph_Driver/src/stm32f10x_flash.c ****     FLASH->CR |= CR_PG_Set;
 819:./Libraries/STM32F10x_StdPeriph_Driver/src/stm32f10x_flash.c ****   
 820:./Libraries/STM32F10x_StdPeriph_Driver/src/stm32f10x_flash.c ****     *(__IO uint16_t*)Address = (uint16_t)Data;
 821:./Libraries/STM32F10x_StdPeriph_Driver/src/stm32f10x_flash.c ****     /* Wait for last operation to be completed */
 822:./Libraries/STM32F10x_StdPeriph_Driver/src/stm32f10x_flash.c ****     status = FLASH_WaitForLastOperation(ProgramTimeout);
 823:./Libraries/STM32F10x_StdPeriph_Driver/src/stm32f10x_flash.c ****  
 824:./Libraries/STM32F10x_StdPeriph_Driver/src/stm32f10x_flash.c ****     if(status == FLASH_COMPLETE)
 825:./Libraries/STM32F10x_StdPeriph_Driver/src/stm32f10x_flash.c ****     {
 826:./Libraries/STM32F10x_StdPeriph_Driver/src/stm32f10x_flash.c ****       /* if the previous operation is completed, proceed to program the new second 
 827:./Libraries/STM32F10x_StdPeriph_Driver/src/stm32f10x_flash.c ****       half word */
ARM GAS  /tmp/ccV0cNik.s 			page 20


 828:./Libraries/STM32F10x_StdPeriph_Driver/src/stm32f10x_flash.c ****       tmp = Address + 2;
 829:./Libraries/STM32F10x_StdPeriph_Driver/src/stm32f10x_flash.c **** 
 830:./Libraries/STM32F10x_StdPeriph_Driver/src/stm32f10x_flash.c ****       *(__IO uint16_t*) tmp = Data >> 16;
 831:./Libraries/STM32F10x_StdPeriph_Driver/src/stm32f10x_flash.c ****     
 832:./Libraries/STM32F10x_StdPeriph_Driver/src/stm32f10x_flash.c ****       /* Wait for last operation to be completed */
 833:./Libraries/STM32F10x_StdPeriph_Driver/src/stm32f10x_flash.c ****       status = FLASH_WaitForLastOperation(ProgramTimeout);
 834:./Libraries/STM32F10x_StdPeriph_Driver/src/stm32f10x_flash.c ****         
 835:./Libraries/STM32F10x_StdPeriph_Driver/src/stm32f10x_flash.c ****       /* Disable the PG Bit */
 836:./Libraries/STM32F10x_StdPeriph_Driver/src/stm32f10x_flash.c ****       FLASH->CR &= CR_PG_Reset;
 837:./Libraries/STM32F10x_StdPeriph_Driver/src/stm32f10x_flash.c ****     }
 838:./Libraries/STM32F10x_StdPeriph_Driver/src/stm32f10x_flash.c ****     else
 839:./Libraries/STM32F10x_StdPeriph_Driver/src/stm32f10x_flash.c ****     {
 840:./Libraries/STM32F10x_StdPeriph_Driver/src/stm32f10x_flash.c ****       /* Disable the PG Bit */
 841:./Libraries/STM32F10x_StdPeriph_Driver/src/stm32f10x_flash.c ****       FLASH->CR &= CR_PG_Reset;
 842:./Libraries/STM32F10x_StdPeriph_Driver/src/stm32f10x_flash.c ****     }
 843:./Libraries/STM32F10x_StdPeriph_Driver/src/stm32f10x_flash.c ****   }         
 844:./Libraries/STM32F10x_StdPeriph_Driver/src/stm32f10x_flash.c **** #endif /* STM32F10X_XL */
 845:./Libraries/STM32F10x_StdPeriph_Driver/src/stm32f10x_flash.c ****    
 846:./Libraries/STM32F10x_StdPeriph_Driver/src/stm32f10x_flash.c ****   /* Return the Program Status */
 847:./Libraries/STM32F10x_StdPeriph_Driver/src/stm32f10x_flash.c ****   return status;
 848:./Libraries/STM32F10x_StdPeriph_Driver/src/stm32f10x_flash.c **** }
 849:./Libraries/STM32F10x_StdPeriph_Driver/src/stm32f10x_flash.c **** 
 850:./Libraries/STM32F10x_StdPeriph_Driver/src/stm32f10x_flash.c **** /**
 851:./Libraries/STM32F10x_StdPeriph_Driver/src/stm32f10x_flash.c ****   * @brief  Programs a half word at a specified address.
 852:./Libraries/STM32F10x_StdPeriph_Driver/src/stm32f10x_flash.c ****   * @note   This function can be used for all STM32F10x devices.
 853:./Libraries/STM32F10x_StdPeriph_Driver/src/stm32f10x_flash.c ****   * @param  Address: specifies the address to be programmed.
 854:./Libraries/STM32F10x_StdPeriph_Driver/src/stm32f10x_flash.c ****   * @param  Data: specifies the data to be programmed.
 855:./Libraries/STM32F10x_StdPeriph_Driver/src/stm32f10x_flash.c ****   * @retval FLASH Status: The returned value can be: FLASH_ERROR_PG,
 856:./Libraries/STM32F10x_StdPeriph_Driver/src/stm32f10x_flash.c ****   *         FLASH_ERROR_WRP, FLASH_COMPLETE or FLASH_TIMEOUT. 
 857:./Libraries/STM32F10x_StdPeriph_Driver/src/stm32f10x_flash.c ****   */
 858:./Libraries/STM32F10x_StdPeriph_Driver/src/stm32f10x_flash.c **** FLASH_Status FLASH_ProgramHalfWord(uint32_t Address, uint16_t Data)
 859:./Libraries/STM32F10x_StdPeriph_Driver/src/stm32f10x_flash.c **** {
 860:./Libraries/STM32F10x_StdPeriph_Driver/src/stm32f10x_flash.c ****   FLASH_Status status = FLASH_COMPLETE;
 861:./Libraries/STM32F10x_StdPeriph_Driver/src/stm32f10x_flash.c ****   /* Check the parameters */
 862:./Libraries/STM32F10x_StdPeriph_Driver/src/stm32f10x_flash.c ****   assert_param(IS_FLASH_ADDRESS(Address));
 863:./Libraries/STM32F10x_StdPeriph_Driver/src/stm32f10x_flash.c **** 
 864:./Libraries/STM32F10x_StdPeriph_Driver/src/stm32f10x_flash.c **** #ifdef STM32F10X_XL
 865:./Libraries/STM32F10x_StdPeriph_Driver/src/stm32f10x_flash.c ****   /* Wait for last operation to be completed */
 866:./Libraries/STM32F10x_StdPeriph_Driver/src/stm32f10x_flash.c ****   status = FLASH_WaitForLastOperation(ProgramTimeout);
 867:./Libraries/STM32F10x_StdPeriph_Driver/src/stm32f10x_flash.c ****   
 868:./Libraries/STM32F10x_StdPeriph_Driver/src/stm32f10x_flash.c ****   if(Address < FLASH_BANK1_END_ADDRESS)
 869:./Libraries/STM32F10x_StdPeriph_Driver/src/stm32f10x_flash.c ****   {
 870:./Libraries/STM32F10x_StdPeriph_Driver/src/stm32f10x_flash.c ****     if(status == FLASH_COMPLETE)
 871:./Libraries/STM32F10x_StdPeriph_Driver/src/stm32f10x_flash.c ****     {
 872:./Libraries/STM32F10x_StdPeriph_Driver/src/stm32f10x_flash.c ****       /* if the previous operation is completed, proceed to program the new data */
 873:./Libraries/STM32F10x_StdPeriph_Driver/src/stm32f10x_flash.c ****       FLASH->CR |= CR_PG_Set;
 874:./Libraries/STM32F10x_StdPeriph_Driver/src/stm32f10x_flash.c ****   
 875:./Libraries/STM32F10x_StdPeriph_Driver/src/stm32f10x_flash.c ****       *(__IO uint16_t*)Address = Data;
 876:./Libraries/STM32F10x_StdPeriph_Driver/src/stm32f10x_flash.c ****       /* Wait for last operation to be completed */
 877:./Libraries/STM32F10x_StdPeriph_Driver/src/stm32f10x_flash.c ****       status = FLASH_WaitForLastBank1Operation(ProgramTimeout);
 878:./Libraries/STM32F10x_StdPeriph_Driver/src/stm32f10x_flash.c **** 
 879:./Libraries/STM32F10x_StdPeriph_Driver/src/stm32f10x_flash.c ****       /* Disable the PG Bit */
 880:./Libraries/STM32F10x_StdPeriph_Driver/src/stm32f10x_flash.c ****       FLASH->CR &= CR_PG_Reset;
 881:./Libraries/STM32F10x_StdPeriph_Driver/src/stm32f10x_flash.c ****     }
 882:./Libraries/STM32F10x_StdPeriph_Driver/src/stm32f10x_flash.c ****   }
 883:./Libraries/STM32F10x_StdPeriph_Driver/src/stm32f10x_flash.c ****   else
 884:./Libraries/STM32F10x_StdPeriph_Driver/src/stm32f10x_flash.c ****   {
ARM GAS  /tmp/ccV0cNik.s 			page 21


 885:./Libraries/STM32F10x_StdPeriph_Driver/src/stm32f10x_flash.c ****     if(status == FLASH_COMPLETE)
 886:./Libraries/STM32F10x_StdPeriph_Driver/src/stm32f10x_flash.c ****     {
 887:./Libraries/STM32F10x_StdPeriph_Driver/src/stm32f10x_flash.c ****       /* if the previous operation is completed, proceed to program the new data */
 888:./Libraries/STM32F10x_StdPeriph_Driver/src/stm32f10x_flash.c ****       FLASH->CR2 |= CR_PG_Set;
 889:./Libraries/STM32F10x_StdPeriph_Driver/src/stm32f10x_flash.c ****   
 890:./Libraries/STM32F10x_StdPeriph_Driver/src/stm32f10x_flash.c ****       *(__IO uint16_t*)Address = Data;
 891:./Libraries/STM32F10x_StdPeriph_Driver/src/stm32f10x_flash.c ****       /* Wait for last operation to be completed */
 892:./Libraries/STM32F10x_StdPeriph_Driver/src/stm32f10x_flash.c ****       status = FLASH_WaitForLastBank2Operation(ProgramTimeout);
 893:./Libraries/STM32F10x_StdPeriph_Driver/src/stm32f10x_flash.c **** 
 894:./Libraries/STM32F10x_StdPeriph_Driver/src/stm32f10x_flash.c ****       /* Disable the PG Bit */
 895:./Libraries/STM32F10x_StdPeriph_Driver/src/stm32f10x_flash.c ****       FLASH->CR2 &= CR_PG_Reset;
 896:./Libraries/STM32F10x_StdPeriph_Driver/src/stm32f10x_flash.c ****     }
 897:./Libraries/STM32F10x_StdPeriph_Driver/src/stm32f10x_flash.c ****   }
 898:./Libraries/STM32F10x_StdPeriph_Driver/src/stm32f10x_flash.c **** #else
 899:./Libraries/STM32F10x_StdPeriph_Driver/src/stm32f10x_flash.c ****   /* Wait for last operation to be completed */
 900:./Libraries/STM32F10x_StdPeriph_Driver/src/stm32f10x_flash.c ****   status = FLASH_WaitForLastOperation(ProgramTimeout);
 901:./Libraries/STM32F10x_StdPeriph_Driver/src/stm32f10x_flash.c ****   
 902:./Libraries/STM32F10x_StdPeriph_Driver/src/stm32f10x_flash.c ****   if(status == FLASH_COMPLETE)
 903:./Libraries/STM32F10x_StdPeriph_Driver/src/stm32f10x_flash.c ****   {
 904:./Libraries/STM32F10x_StdPeriph_Driver/src/stm32f10x_flash.c ****     /* if the previous operation is completed, proceed to program the new data */
 905:./Libraries/STM32F10x_StdPeriph_Driver/src/stm32f10x_flash.c ****     FLASH->CR |= CR_PG_Set;
 906:./Libraries/STM32F10x_StdPeriph_Driver/src/stm32f10x_flash.c ****   
 907:./Libraries/STM32F10x_StdPeriph_Driver/src/stm32f10x_flash.c ****     *(__IO uint16_t*)Address = Data;
 908:./Libraries/STM32F10x_StdPeriph_Driver/src/stm32f10x_flash.c ****     /* Wait for last operation to be completed */
 909:./Libraries/STM32F10x_StdPeriph_Driver/src/stm32f10x_flash.c ****     status = FLASH_WaitForLastOperation(ProgramTimeout);
 910:./Libraries/STM32F10x_StdPeriph_Driver/src/stm32f10x_flash.c ****     
 911:./Libraries/STM32F10x_StdPeriph_Driver/src/stm32f10x_flash.c ****     /* Disable the PG Bit */
 912:./Libraries/STM32F10x_StdPeriph_Driver/src/stm32f10x_flash.c ****     FLASH->CR &= CR_PG_Reset;
 913:./Libraries/STM32F10x_StdPeriph_Driver/src/stm32f10x_flash.c ****   } 
 914:./Libraries/STM32F10x_StdPeriph_Driver/src/stm32f10x_flash.c **** #endif  /* STM32F10X_XL */
 915:./Libraries/STM32F10x_StdPeriph_Driver/src/stm32f10x_flash.c ****   
 916:./Libraries/STM32F10x_StdPeriph_Driver/src/stm32f10x_flash.c ****   /* Return the Program Status */
 917:./Libraries/STM32F10x_StdPeriph_Driver/src/stm32f10x_flash.c ****   return status;
 918:./Libraries/STM32F10x_StdPeriph_Driver/src/stm32f10x_flash.c **** }
 919:./Libraries/STM32F10x_StdPeriph_Driver/src/stm32f10x_flash.c **** 
 920:./Libraries/STM32F10x_StdPeriph_Driver/src/stm32f10x_flash.c **** /**
 921:./Libraries/STM32F10x_StdPeriph_Driver/src/stm32f10x_flash.c ****   * @brief  Programs a half word at a specified Option Byte Data address.
 922:./Libraries/STM32F10x_StdPeriph_Driver/src/stm32f10x_flash.c ****   * @note   This function can be used for all STM32F10x devices.
 923:./Libraries/STM32F10x_StdPeriph_Driver/src/stm32f10x_flash.c ****   * @param  Address: specifies the address to be programmed.
 924:./Libraries/STM32F10x_StdPeriph_Driver/src/stm32f10x_flash.c ****   *   This parameter can be 0x1FFFF804 or 0x1FFFF806. 
 925:./Libraries/STM32F10x_StdPeriph_Driver/src/stm32f10x_flash.c ****   * @param  Data: specifies the data to be programmed.
 926:./Libraries/STM32F10x_StdPeriph_Driver/src/stm32f10x_flash.c ****   * @retval FLASH Status: The returned value can be: FLASH_ERROR_PG,
 927:./Libraries/STM32F10x_StdPeriph_Driver/src/stm32f10x_flash.c ****   *         FLASH_ERROR_WRP, FLASH_COMPLETE or FLASH_TIMEOUT. 
 928:./Libraries/STM32F10x_StdPeriph_Driver/src/stm32f10x_flash.c ****   */
 929:./Libraries/STM32F10x_StdPeriph_Driver/src/stm32f10x_flash.c **** FLASH_Status FLASH_ProgramOptionByteData(uint32_t Address, uint8_t Data)
 930:./Libraries/STM32F10x_StdPeriph_Driver/src/stm32f10x_flash.c **** {
 931:./Libraries/STM32F10x_StdPeriph_Driver/src/stm32f10x_flash.c ****   FLASH_Status status = FLASH_COMPLETE;
 932:./Libraries/STM32F10x_StdPeriph_Driver/src/stm32f10x_flash.c ****   /* Check the parameters */
 933:./Libraries/STM32F10x_StdPeriph_Driver/src/stm32f10x_flash.c ****   assert_param(IS_OB_DATA_ADDRESS(Address));
 934:./Libraries/STM32F10x_StdPeriph_Driver/src/stm32f10x_flash.c ****   status = FLASH_WaitForLastOperation(ProgramTimeout);
 935:./Libraries/STM32F10x_StdPeriph_Driver/src/stm32f10x_flash.c **** 
 936:./Libraries/STM32F10x_StdPeriph_Driver/src/stm32f10x_flash.c ****   if(status == FLASH_COMPLETE)
 937:./Libraries/STM32F10x_StdPeriph_Driver/src/stm32f10x_flash.c ****   {
 938:./Libraries/STM32F10x_StdPeriph_Driver/src/stm32f10x_flash.c ****     /* Authorize the small information block programming */
 939:./Libraries/STM32F10x_StdPeriph_Driver/src/stm32f10x_flash.c ****     FLASH->OPTKEYR = FLASH_KEY1;
 940:./Libraries/STM32F10x_StdPeriph_Driver/src/stm32f10x_flash.c ****     FLASH->OPTKEYR = FLASH_KEY2;
 941:./Libraries/STM32F10x_StdPeriph_Driver/src/stm32f10x_flash.c ****     /* Enables the Option Bytes Programming operation */
ARM GAS  /tmp/ccV0cNik.s 			page 22


 942:./Libraries/STM32F10x_StdPeriph_Driver/src/stm32f10x_flash.c ****     FLASH->CR |= CR_OPTPG_Set; 
 943:./Libraries/STM32F10x_StdPeriph_Driver/src/stm32f10x_flash.c ****     *(__IO uint16_t*)Address = Data;
 944:./Libraries/STM32F10x_StdPeriph_Driver/src/stm32f10x_flash.c ****     
 945:./Libraries/STM32F10x_StdPeriph_Driver/src/stm32f10x_flash.c ****     /* Wait for last operation to be completed */
 946:./Libraries/STM32F10x_StdPeriph_Driver/src/stm32f10x_flash.c ****     status = FLASH_WaitForLastOperation(ProgramTimeout);
 947:./Libraries/STM32F10x_StdPeriph_Driver/src/stm32f10x_flash.c ****     if(status != FLASH_TIMEOUT)
 948:./Libraries/STM32F10x_StdPeriph_Driver/src/stm32f10x_flash.c ****     {
 949:./Libraries/STM32F10x_StdPeriph_Driver/src/stm32f10x_flash.c ****       /* if the program operation is completed, disable the OPTPG Bit */
 950:./Libraries/STM32F10x_StdPeriph_Driver/src/stm32f10x_flash.c ****       FLASH->CR &= CR_OPTPG_Reset;
 951:./Libraries/STM32F10x_StdPeriph_Driver/src/stm32f10x_flash.c ****     }
 952:./Libraries/STM32F10x_StdPeriph_Driver/src/stm32f10x_flash.c ****   }
 953:./Libraries/STM32F10x_StdPeriph_Driver/src/stm32f10x_flash.c ****   /* Return the Option Byte Data Program Status */
 954:./Libraries/STM32F10x_StdPeriph_Driver/src/stm32f10x_flash.c ****   return status;
 955:./Libraries/STM32F10x_StdPeriph_Driver/src/stm32f10x_flash.c **** }
 956:./Libraries/STM32F10x_StdPeriph_Driver/src/stm32f10x_flash.c **** 
 957:./Libraries/STM32F10x_StdPeriph_Driver/src/stm32f10x_flash.c **** /**
 958:./Libraries/STM32F10x_StdPeriph_Driver/src/stm32f10x_flash.c ****   * @brief  Write protects the desired pages
 959:./Libraries/STM32F10x_StdPeriph_Driver/src/stm32f10x_flash.c ****   * @note   This function can be used for all STM32F10x devices.
 960:./Libraries/STM32F10x_StdPeriph_Driver/src/stm32f10x_flash.c ****   * @param  FLASH_Pages: specifies the address of the pages to be write protected.
 961:./Libraries/STM32F10x_StdPeriph_Driver/src/stm32f10x_flash.c ****   *   This parameter can be:
 962:./Libraries/STM32F10x_StdPeriph_Driver/src/stm32f10x_flash.c ****   *     @arg For @b STM32_Low-density_devices: value between FLASH_WRProt_Pages0to3 and FLASH_WRPro
 963:./Libraries/STM32F10x_StdPeriph_Driver/src/stm32f10x_flash.c ****   *     @arg For @b STM32_Medium-density_devices: value between FLASH_WRProt_Pages0to3
 964:./Libraries/STM32F10x_StdPeriph_Driver/src/stm32f10x_flash.c ****   *       and FLASH_WRProt_Pages124to127
 965:./Libraries/STM32F10x_StdPeriph_Driver/src/stm32f10x_flash.c ****   *     @arg For @b STM32_High-density_devices: value between FLASH_WRProt_Pages0to1 and
 966:./Libraries/STM32F10x_StdPeriph_Driver/src/stm32f10x_flash.c ****   *       FLASH_WRProt_Pages60to61 or FLASH_WRProt_Pages62to255
 967:./Libraries/STM32F10x_StdPeriph_Driver/src/stm32f10x_flash.c ****   *     @arg For @b STM32_Connectivity_line_devices: value between FLASH_WRProt_Pages0to1 and
 968:./Libraries/STM32F10x_StdPeriph_Driver/src/stm32f10x_flash.c ****   *       FLASH_WRProt_Pages60to61 or FLASH_WRProt_Pages62to127    
 969:./Libraries/STM32F10x_StdPeriph_Driver/src/stm32f10x_flash.c ****   *     @arg For @b STM32_XL-density_devices: value between FLASH_WRProt_Pages0to1 and
 970:./Libraries/STM32F10x_StdPeriph_Driver/src/stm32f10x_flash.c ****   *       FLASH_WRProt_Pages60to61 or FLASH_WRProt_Pages62to511
 971:./Libraries/STM32F10x_StdPeriph_Driver/src/stm32f10x_flash.c ****   *     @arg FLASH_WRProt_AllPages
 972:./Libraries/STM32F10x_StdPeriph_Driver/src/stm32f10x_flash.c ****   * @retval FLASH Status: The returned value can be: FLASH_ERROR_PG,
 973:./Libraries/STM32F10x_StdPeriph_Driver/src/stm32f10x_flash.c ****   *         FLASH_ERROR_WRP, FLASH_COMPLETE or FLASH_TIMEOUT.
 974:./Libraries/STM32F10x_StdPeriph_Driver/src/stm32f10x_flash.c ****   */
 975:./Libraries/STM32F10x_StdPeriph_Driver/src/stm32f10x_flash.c **** FLASH_Status FLASH_EnableWriteProtection(uint32_t FLASH_Pages)
 976:./Libraries/STM32F10x_StdPeriph_Driver/src/stm32f10x_flash.c **** {
 977:./Libraries/STM32F10x_StdPeriph_Driver/src/stm32f10x_flash.c ****   uint16_t WRP0_Data = 0xFFFF, WRP1_Data = 0xFFFF, WRP2_Data = 0xFFFF, WRP3_Data = 0xFFFF;
 978:./Libraries/STM32F10x_StdPeriph_Driver/src/stm32f10x_flash.c ****   
 979:./Libraries/STM32F10x_StdPeriph_Driver/src/stm32f10x_flash.c ****   FLASH_Status status = FLASH_COMPLETE;
 980:./Libraries/STM32F10x_StdPeriph_Driver/src/stm32f10x_flash.c ****   
 981:./Libraries/STM32F10x_StdPeriph_Driver/src/stm32f10x_flash.c ****   /* Check the parameters */
 982:./Libraries/STM32F10x_StdPeriph_Driver/src/stm32f10x_flash.c ****   assert_param(IS_FLASH_WRPROT_PAGE(FLASH_Pages));
 983:./Libraries/STM32F10x_StdPeriph_Driver/src/stm32f10x_flash.c ****   
 984:./Libraries/STM32F10x_StdPeriph_Driver/src/stm32f10x_flash.c ****   FLASH_Pages = (uint32_t)(~FLASH_Pages);
 985:./Libraries/STM32F10x_StdPeriph_Driver/src/stm32f10x_flash.c ****   WRP0_Data = (uint16_t)(FLASH_Pages & WRP0_Mask);
 986:./Libraries/STM32F10x_StdPeriph_Driver/src/stm32f10x_flash.c ****   WRP1_Data = (uint16_t)((FLASH_Pages & WRP1_Mask) >> 8);
 987:./Libraries/STM32F10x_StdPeriph_Driver/src/stm32f10x_flash.c ****   WRP2_Data = (uint16_t)((FLASH_Pages & WRP2_Mask) >> 16);
 988:./Libraries/STM32F10x_StdPeriph_Driver/src/stm32f10x_flash.c ****   WRP3_Data = (uint16_t)((FLASH_Pages & WRP3_Mask) >> 24);
 989:./Libraries/STM32F10x_StdPeriph_Driver/src/stm32f10x_flash.c ****   
 990:./Libraries/STM32F10x_StdPeriph_Driver/src/stm32f10x_flash.c ****   /* Wait for last operation to be completed */
 991:./Libraries/STM32F10x_StdPeriph_Driver/src/stm32f10x_flash.c ****   status = FLASH_WaitForLastOperation(ProgramTimeout);
 992:./Libraries/STM32F10x_StdPeriph_Driver/src/stm32f10x_flash.c ****   
 993:./Libraries/STM32F10x_StdPeriph_Driver/src/stm32f10x_flash.c ****   if(status == FLASH_COMPLETE)
 994:./Libraries/STM32F10x_StdPeriph_Driver/src/stm32f10x_flash.c ****   {
 995:./Libraries/STM32F10x_StdPeriph_Driver/src/stm32f10x_flash.c ****     /* Authorizes the small information block programming */
 996:./Libraries/STM32F10x_StdPeriph_Driver/src/stm32f10x_flash.c ****     FLASH->OPTKEYR = FLASH_KEY1;
 997:./Libraries/STM32F10x_StdPeriph_Driver/src/stm32f10x_flash.c ****     FLASH->OPTKEYR = FLASH_KEY2;
 998:./Libraries/STM32F10x_StdPeriph_Driver/src/stm32f10x_flash.c ****     FLASH->CR |= CR_OPTPG_Set;
ARM GAS  /tmp/ccV0cNik.s 			page 23


 999:./Libraries/STM32F10x_StdPeriph_Driver/src/stm32f10x_flash.c ****     if(WRP0_Data != 0xFF)
1000:./Libraries/STM32F10x_StdPeriph_Driver/src/stm32f10x_flash.c ****     {
1001:./Libraries/STM32F10x_StdPeriph_Driver/src/stm32f10x_flash.c ****       OB->WRP0 = WRP0_Data;
1002:./Libraries/STM32F10x_StdPeriph_Driver/src/stm32f10x_flash.c ****       
1003:./Libraries/STM32F10x_StdPeriph_Driver/src/stm32f10x_flash.c ****       /* Wait for last operation to be completed */
1004:./Libraries/STM32F10x_StdPeriph_Driver/src/stm32f10x_flash.c ****       status = FLASH_WaitForLastOperation(ProgramTimeout);
1005:./Libraries/STM32F10x_StdPeriph_Driver/src/stm32f10x_flash.c ****     }
1006:./Libraries/STM32F10x_StdPeriph_Driver/src/stm32f10x_flash.c ****     if((status == FLASH_COMPLETE) && (WRP1_Data != 0xFF))
1007:./Libraries/STM32F10x_StdPeriph_Driver/src/stm32f10x_flash.c ****     {
1008:./Libraries/STM32F10x_StdPeriph_Driver/src/stm32f10x_flash.c ****       OB->WRP1 = WRP1_Data;
1009:./Libraries/STM32F10x_StdPeriph_Driver/src/stm32f10x_flash.c ****       
1010:./Libraries/STM32F10x_StdPeriph_Driver/src/stm32f10x_flash.c ****       /* Wait for last operation to be completed */
1011:./Libraries/STM32F10x_StdPeriph_Driver/src/stm32f10x_flash.c ****       status = FLASH_WaitForLastOperation(ProgramTimeout);
1012:./Libraries/STM32F10x_StdPeriph_Driver/src/stm32f10x_flash.c ****     }
1013:./Libraries/STM32F10x_StdPeriph_Driver/src/stm32f10x_flash.c ****     if((status == FLASH_COMPLETE) && (WRP2_Data != 0xFF))
1014:./Libraries/STM32F10x_StdPeriph_Driver/src/stm32f10x_flash.c ****     {
1015:./Libraries/STM32F10x_StdPeriph_Driver/src/stm32f10x_flash.c ****       OB->WRP2 = WRP2_Data;
1016:./Libraries/STM32F10x_StdPeriph_Driver/src/stm32f10x_flash.c ****       
1017:./Libraries/STM32F10x_StdPeriph_Driver/src/stm32f10x_flash.c ****       /* Wait for last operation to be completed */
1018:./Libraries/STM32F10x_StdPeriph_Driver/src/stm32f10x_flash.c ****       status = FLASH_WaitForLastOperation(ProgramTimeout);
1019:./Libraries/STM32F10x_StdPeriph_Driver/src/stm32f10x_flash.c ****     }
1020:./Libraries/STM32F10x_StdPeriph_Driver/src/stm32f10x_flash.c ****     
1021:./Libraries/STM32F10x_StdPeriph_Driver/src/stm32f10x_flash.c ****     if((status == FLASH_COMPLETE)&& (WRP3_Data != 0xFF))
1022:./Libraries/STM32F10x_StdPeriph_Driver/src/stm32f10x_flash.c ****     {
1023:./Libraries/STM32F10x_StdPeriph_Driver/src/stm32f10x_flash.c ****       OB->WRP3 = WRP3_Data;
1024:./Libraries/STM32F10x_StdPeriph_Driver/src/stm32f10x_flash.c ****      
1025:./Libraries/STM32F10x_StdPeriph_Driver/src/stm32f10x_flash.c ****       /* Wait for last operation to be completed */
1026:./Libraries/STM32F10x_StdPeriph_Driver/src/stm32f10x_flash.c ****       status = FLASH_WaitForLastOperation(ProgramTimeout);
1027:./Libraries/STM32F10x_StdPeriph_Driver/src/stm32f10x_flash.c ****     }
1028:./Libraries/STM32F10x_StdPeriph_Driver/src/stm32f10x_flash.c ****           
1029:./Libraries/STM32F10x_StdPeriph_Driver/src/stm32f10x_flash.c ****     if(status != FLASH_TIMEOUT)
1030:./Libraries/STM32F10x_StdPeriph_Driver/src/stm32f10x_flash.c ****     {
1031:./Libraries/STM32F10x_StdPeriph_Driver/src/stm32f10x_flash.c ****       /* if the program operation is completed, disable the OPTPG Bit */
1032:./Libraries/STM32F10x_StdPeriph_Driver/src/stm32f10x_flash.c ****       FLASH->CR &= CR_OPTPG_Reset;
1033:./Libraries/STM32F10x_StdPeriph_Driver/src/stm32f10x_flash.c ****     }
1034:./Libraries/STM32F10x_StdPeriph_Driver/src/stm32f10x_flash.c ****   } 
1035:./Libraries/STM32F10x_StdPeriph_Driver/src/stm32f10x_flash.c ****   /* Return the write protection operation Status */
1036:./Libraries/STM32F10x_StdPeriph_Driver/src/stm32f10x_flash.c ****   return status;       
1037:./Libraries/STM32F10x_StdPeriph_Driver/src/stm32f10x_flash.c **** }
1038:./Libraries/STM32F10x_StdPeriph_Driver/src/stm32f10x_flash.c **** 
1039:./Libraries/STM32F10x_StdPeriph_Driver/src/stm32f10x_flash.c **** /**
1040:./Libraries/STM32F10x_StdPeriph_Driver/src/stm32f10x_flash.c ****   * @brief  Enables or disables the read out protection.
1041:./Libraries/STM32F10x_StdPeriph_Driver/src/stm32f10x_flash.c ****   * @note   If the user has already programmed the other option bytes before calling 
1042:./Libraries/STM32F10x_StdPeriph_Driver/src/stm32f10x_flash.c ****   *   this function, he must re-program them since this function erases all option bytes.
1043:./Libraries/STM32F10x_StdPeriph_Driver/src/stm32f10x_flash.c ****   * @note   This function can be used for all STM32F10x devices.
1044:./Libraries/STM32F10x_StdPeriph_Driver/src/stm32f10x_flash.c ****   * @param  Newstate: new state of the ReadOut Protection.
1045:./Libraries/STM32F10x_StdPeriph_Driver/src/stm32f10x_flash.c ****   *   This parameter can be: ENABLE or DISABLE.
1046:./Libraries/STM32F10x_StdPeriph_Driver/src/stm32f10x_flash.c ****   * @retval FLASH Status: The returned value can be: FLASH_ERROR_PG,
1047:./Libraries/STM32F10x_StdPeriph_Driver/src/stm32f10x_flash.c ****   *         FLASH_ERROR_WRP, FLASH_COMPLETE or FLASH_TIMEOUT.
1048:./Libraries/STM32F10x_StdPeriph_Driver/src/stm32f10x_flash.c ****   */
1049:./Libraries/STM32F10x_StdPeriph_Driver/src/stm32f10x_flash.c **** FLASH_Status FLASH_ReadOutProtection(FunctionalState NewState)
1050:./Libraries/STM32F10x_StdPeriph_Driver/src/stm32f10x_flash.c **** {
1051:./Libraries/STM32F10x_StdPeriph_Driver/src/stm32f10x_flash.c ****   FLASH_Status status = FLASH_COMPLETE;
1052:./Libraries/STM32F10x_StdPeriph_Driver/src/stm32f10x_flash.c ****   /* Check the parameters */
1053:./Libraries/STM32F10x_StdPeriph_Driver/src/stm32f10x_flash.c ****   assert_param(IS_FUNCTIONAL_STATE(NewState));
1054:./Libraries/STM32F10x_StdPeriph_Driver/src/stm32f10x_flash.c ****   status = FLASH_WaitForLastOperation(EraseTimeout);
1055:./Libraries/STM32F10x_StdPeriph_Driver/src/stm32f10x_flash.c ****   if(status == FLASH_COMPLETE)
ARM GAS  /tmp/ccV0cNik.s 			page 24


1056:./Libraries/STM32F10x_StdPeriph_Driver/src/stm32f10x_flash.c ****   {
1057:./Libraries/STM32F10x_StdPeriph_Driver/src/stm32f10x_flash.c ****     /* Authorizes the small information block programming */
1058:./Libraries/STM32F10x_StdPeriph_Driver/src/stm32f10x_flash.c ****     FLASH->OPTKEYR = FLASH_KEY1;
1059:./Libraries/STM32F10x_StdPeriph_Driver/src/stm32f10x_flash.c ****     FLASH->OPTKEYR = FLASH_KEY2;
1060:./Libraries/STM32F10x_StdPeriph_Driver/src/stm32f10x_flash.c ****     FLASH->CR |= CR_OPTER_Set;
1061:./Libraries/STM32F10x_StdPeriph_Driver/src/stm32f10x_flash.c ****     FLASH->CR |= CR_STRT_Set;
1062:./Libraries/STM32F10x_StdPeriph_Driver/src/stm32f10x_flash.c ****     /* Wait for last operation to be completed */
1063:./Libraries/STM32F10x_StdPeriph_Driver/src/stm32f10x_flash.c ****     status = FLASH_WaitForLastOperation(EraseTimeout);
1064:./Libraries/STM32F10x_StdPeriph_Driver/src/stm32f10x_flash.c ****     if(status == FLASH_COMPLETE)
1065:./Libraries/STM32F10x_StdPeriph_Driver/src/stm32f10x_flash.c ****     {
1066:./Libraries/STM32F10x_StdPeriph_Driver/src/stm32f10x_flash.c ****       /* if the erase operation is completed, disable the OPTER Bit */
1067:./Libraries/STM32F10x_StdPeriph_Driver/src/stm32f10x_flash.c ****       FLASH->CR &= CR_OPTER_Reset;
1068:./Libraries/STM32F10x_StdPeriph_Driver/src/stm32f10x_flash.c ****       /* Enable the Option Bytes Programming operation */
1069:./Libraries/STM32F10x_StdPeriph_Driver/src/stm32f10x_flash.c ****       FLASH->CR |= CR_OPTPG_Set; 
1070:./Libraries/STM32F10x_StdPeriph_Driver/src/stm32f10x_flash.c ****       if(NewState != DISABLE)
1071:./Libraries/STM32F10x_StdPeriph_Driver/src/stm32f10x_flash.c ****       {
1072:./Libraries/STM32F10x_StdPeriph_Driver/src/stm32f10x_flash.c ****         OB->RDP = 0x00;
1073:./Libraries/STM32F10x_StdPeriph_Driver/src/stm32f10x_flash.c ****       }
1074:./Libraries/STM32F10x_StdPeriph_Driver/src/stm32f10x_flash.c ****       else
1075:./Libraries/STM32F10x_StdPeriph_Driver/src/stm32f10x_flash.c ****       {
1076:./Libraries/STM32F10x_StdPeriph_Driver/src/stm32f10x_flash.c ****         OB->RDP = RDP_Key;  
1077:./Libraries/STM32F10x_StdPeriph_Driver/src/stm32f10x_flash.c ****       }
1078:./Libraries/STM32F10x_StdPeriph_Driver/src/stm32f10x_flash.c ****       /* Wait for last operation to be completed */
1079:./Libraries/STM32F10x_StdPeriph_Driver/src/stm32f10x_flash.c ****       status = FLASH_WaitForLastOperation(EraseTimeout); 
1080:./Libraries/STM32F10x_StdPeriph_Driver/src/stm32f10x_flash.c ****     
1081:./Libraries/STM32F10x_StdPeriph_Driver/src/stm32f10x_flash.c ****       if(status != FLASH_TIMEOUT)
1082:./Libraries/STM32F10x_StdPeriph_Driver/src/stm32f10x_flash.c ****       {
1083:./Libraries/STM32F10x_StdPeriph_Driver/src/stm32f10x_flash.c ****         /* if the program operation is completed, disable the OPTPG Bit */
1084:./Libraries/STM32F10x_StdPeriph_Driver/src/stm32f10x_flash.c ****         FLASH->CR &= CR_OPTPG_Reset;
1085:./Libraries/STM32F10x_StdPeriph_Driver/src/stm32f10x_flash.c ****       }
1086:./Libraries/STM32F10x_StdPeriph_Driver/src/stm32f10x_flash.c ****     }
1087:./Libraries/STM32F10x_StdPeriph_Driver/src/stm32f10x_flash.c ****     else 
1088:./Libraries/STM32F10x_StdPeriph_Driver/src/stm32f10x_flash.c ****     {
1089:./Libraries/STM32F10x_StdPeriph_Driver/src/stm32f10x_flash.c ****       if(status != FLASH_TIMEOUT)
1090:./Libraries/STM32F10x_StdPeriph_Driver/src/stm32f10x_flash.c ****       {
1091:./Libraries/STM32F10x_StdPeriph_Driver/src/stm32f10x_flash.c ****         /* Disable the OPTER Bit */
1092:./Libraries/STM32F10x_StdPeriph_Driver/src/stm32f10x_flash.c ****         FLASH->CR &= CR_OPTER_Reset;
1093:./Libraries/STM32F10x_StdPeriph_Driver/src/stm32f10x_flash.c ****       }
1094:./Libraries/STM32F10x_StdPeriph_Driver/src/stm32f10x_flash.c ****     }
1095:./Libraries/STM32F10x_StdPeriph_Driver/src/stm32f10x_flash.c ****   }
1096:./Libraries/STM32F10x_StdPeriph_Driver/src/stm32f10x_flash.c ****   /* Return the protection operation Status */
1097:./Libraries/STM32F10x_StdPeriph_Driver/src/stm32f10x_flash.c ****   return status;       
1098:./Libraries/STM32F10x_StdPeriph_Driver/src/stm32f10x_flash.c **** }
1099:./Libraries/STM32F10x_StdPeriph_Driver/src/stm32f10x_flash.c **** 
1100:./Libraries/STM32F10x_StdPeriph_Driver/src/stm32f10x_flash.c **** /**
1101:./Libraries/STM32F10x_StdPeriph_Driver/src/stm32f10x_flash.c ****   * @brief  Programs the FLASH User Option Byte: IWDG_SW / RST_STOP / RST_STDBY.
1102:./Libraries/STM32F10x_StdPeriph_Driver/src/stm32f10x_flash.c ****   * @note   This function can be used for all STM32F10x devices.
1103:./Libraries/STM32F10x_StdPeriph_Driver/src/stm32f10x_flash.c ****   * @param  OB_IWDG: Selects the IWDG mode
1104:./Libraries/STM32F10x_StdPeriph_Driver/src/stm32f10x_flash.c ****   *   This parameter can be one of the following values:
1105:./Libraries/STM32F10x_StdPeriph_Driver/src/stm32f10x_flash.c ****   *     @arg OB_IWDG_SW: Software IWDG selected
1106:./Libraries/STM32F10x_StdPeriph_Driver/src/stm32f10x_flash.c ****   *     @arg OB_IWDG_HW: Hardware IWDG selected
1107:./Libraries/STM32F10x_StdPeriph_Driver/src/stm32f10x_flash.c ****   * @param  OB_STOP: Reset event when entering STOP mode.
1108:./Libraries/STM32F10x_StdPeriph_Driver/src/stm32f10x_flash.c ****   *   This parameter can be one of the following values:
1109:./Libraries/STM32F10x_StdPeriph_Driver/src/stm32f10x_flash.c ****   *     @arg OB_STOP_NoRST: No reset generated when entering in STOP
1110:./Libraries/STM32F10x_StdPeriph_Driver/src/stm32f10x_flash.c ****   *     @arg OB_STOP_RST: Reset generated when entering in STOP
1111:./Libraries/STM32F10x_StdPeriph_Driver/src/stm32f10x_flash.c ****   * @param  OB_STDBY: Reset event when entering Standby mode.
1112:./Libraries/STM32F10x_StdPeriph_Driver/src/stm32f10x_flash.c ****   *   This parameter can be one of the following values:
ARM GAS  /tmp/ccV0cNik.s 			page 25


1113:./Libraries/STM32F10x_StdPeriph_Driver/src/stm32f10x_flash.c ****   *     @arg OB_STDBY_NoRST: No reset generated when entering in STANDBY
1114:./Libraries/STM32F10x_StdPeriph_Driver/src/stm32f10x_flash.c ****   *     @arg OB_STDBY_RST: Reset generated when entering in STANDBY
1115:./Libraries/STM32F10x_StdPeriph_Driver/src/stm32f10x_flash.c ****   * @retval FLASH Status: The returned value can be: FLASH_ERROR_PG, 
1116:./Libraries/STM32F10x_StdPeriph_Driver/src/stm32f10x_flash.c ****   *         FLASH_ERROR_WRP, FLASH_COMPLETE or FLASH_TIMEOUT.
1117:./Libraries/STM32F10x_StdPeriph_Driver/src/stm32f10x_flash.c ****   */
1118:./Libraries/STM32F10x_StdPeriph_Driver/src/stm32f10x_flash.c **** FLASH_Status FLASH_UserOptionByteConfig(uint16_t OB_IWDG, uint16_t OB_STOP, uint16_t OB_STDBY)
1119:./Libraries/STM32F10x_StdPeriph_Driver/src/stm32f10x_flash.c **** {
1120:./Libraries/STM32F10x_StdPeriph_Driver/src/stm32f10x_flash.c ****   FLASH_Status status = FLASH_COMPLETE; 
1121:./Libraries/STM32F10x_StdPeriph_Driver/src/stm32f10x_flash.c **** 
1122:./Libraries/STM32F10x_StdPeriph_Driver/src/stm32f10x_flash.c ****   /* Check the parameters */
1123:./Libraries/STM32F10x_StdPeriph_Driver/src/stm32f10x_flash.c ****   assert_param(IS_OB_IWDG_SOURCE(OB_IWDG));
1124:./Libraries/STM32F10x_StdPeriph_Driver/src/stm32f10x_flash.c ****   assert_param(IS_OB_STOP_SOURCE(OB_STOP));
1125:./Libraries/STM32F10x_StdPeriph_Driver/src/stm32f10x_flash.c ****   assert_param(IS_OB_STDBY_SOURCE(OB_STDBY));
1126:./Libraries/STM32F10x_StdPeriph_Driver/src/stm32f10x_flash.c **** 
1127:./Libraries/STM32F10x_StdPeriph_Driver/src/stm32f10x_flash.c ****   /* Authorize the small information block programming */
1128:./Libraries/STM32F10x_StdPeriph_Driver/src/stm32f10x_flash.c ****   FLASH->OPTKEYR = FLASH_KEY1;
1129:./Libraries/STM32F10x_StdPeriph_Driver/src/stm32f10x_flash.c ****   FLASH->OPTKEYR = FLASH_KEY2;
1130:./Libraries/STM32F10x_StdPeriph_Driver/src/stm32f10x_flash.c ****   
1131:./Libraries/STM32F10x_StdPeriph_Driver/src/stm32f10x_flash.c ****   /* Wait for last operation to be completed */
1132:./Libraries/STM32F10x_StdPeriph_Driver/src/stm32f10x_flash.c ****   status = FLASH_WaitForLastOperation(ProgramTimeout);
1133:./Libraries/STM32F10x_StdPeriph_Driver/src/stm32f10x_flash.c ****   
1134:./Libraries/STM32F10x_StdPeriph_Driver/src/stm32f10x_flash.c ****   if(status == FLASH_COMPLETE)
1135:./Libraries/STM32F10x_StdPeriph_Driver/src/stm32f10x_flash.c ****   {  
1136:./Libraries/STM32F10x_StdPeriph_Driver/src/stm32f10x_flash.c ****     /* Enable the Option Bytes Programming operation */
1137:./Libraries/STM32F10x_StdPeriph_Driver/src/stm32f10x_flash.c ****     FLASH->CR |= CR_OPTPG_Set; 
1138:./Libraries/STM32F10x_StdPeriph_Driver/src/stm32f10x_flash.c ****            
1139:./Libraries/STM32F10x_StdPeriph_Driver/src/stm32f10x_flash.c ****     OB->USER = OB_IWDG | (uint16_t)(OB_STOP | (uint16_t)(OB_STDBY | ((uint16_t)0xF8))); 
1140:./Libraries/STM32F10x_StdPeriph_Driver/src/stm32f10x_flash.c ****   
1141:./Libraries/STM32F10x_StdPeriph_Driver/src/stm32f10x_flash.c ****     /* Wait for last operation to be completed */
1142:./Libraries/STM32F10x_StdPeriph_Driver/src/stm32f10x_flash.c ****     status = FLASH_WaitForLastOperation(ProgramTimeout);
1143:./Libraries/STM32F10x_StdPeriph_Driver/src/stm32f10x_flash.c ****     if(status != FLASH_TIMEOUT)
1144:./Libraries/STM32F10x_StdPeriph_Driver/src/stm32f10x_flash.c ****     {
1145:./Libraries/STM32F10x_StdPeriph_Driver/src/stm32f10x_flash.c ****       /* if the program operation is completed, disable the OPTPG Bit */
1146:./Libraries/STM32F10x_StdPeriph_Driver/src/stm32f10x_flash.c ****       FLASH->CR &= CR_OPTPG_Reset;
1147:./Libraries/STM32F10x_StdPeriph_Driver/src/stm32f10x_flash.c ****     }
1148:./Libraries/STM32F10x_StdPeriph_Driver/src/stm32f10x_flash.c ****   }    
1149:./Libraries/STM32F10x_StdPeriph_Driver/src/stm32f10x_flash.c ****   /* Return the Option Byte program Status */
1150:./Libraries/STM32F10x_StdPeriph_Driver/src/stm32f10x_flash.c ****   return status;
1151:./Libraries/STM32F10x_StdPeriph_Driver/src/stm32f10x_flash.c **** }
1152:./Libraries/STM32F10x_StdPeriph_Driver/src/stm32f10x_flash.c **** 
1153:./Libraries/STM32F10x_StdPeriph_Driver/src/stm32f10x_flash.c **** #ifdef STM32F10X_XL
1154:./Libraries/STM32F10x_StdPeriph_Driver/src/stm32f10x_flash.c **** /**
1155:./Libraries/STM32F10x_StdPeriph_Driver/src/stm32f10x_flash.c ****   * @brief  Configures to boot from Bank1 or Bank2.  
1156:./Libraries/STM32F10x_StdPeriph_Driver/src/stm32f10x_flash.c ****   * @note   This function can be used only for STM32F10x_XL density devices.
1157:./Libraries/STM32F10x_StdPeriph_Driver/src/stm32f10x_flash.c ****   * @param  FLASH_BOOT: select the FLASH Bank to boot from.
1158:./Libraries/STM32F10x_StdPeriph_Driver/src/stm32f10x_flash.c ****   *   This parameter can be one of the following values:
1159:./Libraries/STM32F10x_StdPeriph_Driver/src/stm32f10x_flash.c ****   *     @arg FLASH_BOOT_Bank1: At startup, if boot pins are set in boot from user Flash
1160:./Libraries/STM32F10x_StdPeriph_Driver/src/stm32f10x_flash.c ****   *        position and this parameter is selected the device will boot from Bank1(Default).
1161:./Libraries/STM32F10x_StdPeriph_Driver/src/stm32f10x_flash.c ****   *     @arg FLASH_BOOT_Bank2: At startup, if boot pins are set in boot from user Flash
1162:./Libraries/STM32F10x_StdPeriph_Driver/src/stm32f10x_flash.c ****   *        position and this parameter is selected the device will boot from Bank2 or Bank1,
1163:./Libraries/STM32F10x_StdPeriph_Driver/src/stm32f10x_flash.c ****   *        depending on the activation of the bank. The active banks are checked in
1164:./Libraries/STM32F10x_StdPeriph_Driver/src/stm32f10x_flash.c ****   *        the following order: Bank2, followed by Bank1.
1165:./Libraries/STM32F10x_StdPeriph_Driver/src/stm32f10x_flash.c ****   *        The active bank is recognized by the value programmed at the base address
1166:./Libraries/STM32F10x_StdPeriph_Driver/src/stm32f10x_flash.c ****   *        of the respective bank (corresponding to the initial stack pointer value
1167:./Libraries/STM32F10x_StdPeriph_Driver/src/stm32f10x_flash.c ****   *        in the interrupt vector table).
1168:./Libraries/STM32F10x_StdPeriph_Driver/src/stm32f10x_flash.c ****   *        For more information, please refer to AN2606 from www.st.com.    
1169:./Libraries/STM32F10x_StdPeriph_Driver/src/stm32f10x_flash.c ****   * @retval FLASH Status: The returned value can be: FLASH_ERROR_PG, 
ARM GAS  /tmp/ccV0cNik.s 			page 26


1170:./Libraries/STM32F10x_StdPeriph_Driver/src/stm32f10x_flash.c ****   *         FLASH_ERROR_WRP, FLASH_COMPLETE or FLASH_TIMEOUT.
1171:./Libraries/STM32F10x_StdPeriph_Driver/src/stm32f10x_flash.c ****   */
1172:./Libraries/STM32F10x_StdPeriph_Driver/src/stm32f10x_flash.c **** FLASH_Status FLASH_BootConfig(uint16_t FLASH_BOOT)
1173:./Libraries/STM32F10x_StdPeriph_Driver/src/stm32f10x_flash.c **** { 
1174:./Libraries/STM32F10x_StdPeriph_Driver/src/stm32f10x_flash.c ****   FLASH_Status status = FLASH_COMPLETE; 
1175:./Libraries/STM32F10x_StdPeriph_Driver/src/stm32f10x_flash.c ****   assert_param(IS_FLASH_BOOT(FLASH_BOOT));
1176:./Libraries/STM32F10x_StdPeriph_Driver/src/stm32f10x_flash.c ****   /* Authorize the small information block programming */
1177:./Libraries/STM32F10x_StdPeriph_Driver/src/stm32f10x_flash.c ****   FLASH->OPTKEYR = FLASH_KEY1;
1178:./Libraries/STM32F10x_StdPeriph_Driver/src/stm32f10x_flash.c ****   FLASH->OPTKEYR = FLASH_KEY2;
1179:./Libraries/STM32F10x_StdPeriph_Driver/src/stm32f10x_flash.c ****   
1180:./Libraries/STM32F10x_StdPeriph_Driver/src/stm32f10x_flash.c ****   /* Wait for last operation to be completed */
1181:./Libraries/STM32F10x_StdPeriph_Driver/src/stm32f10x_flash.c ****   status = FLASH_WaitForLastOperation(ProgramTimeout);
1182:./Libraries/STM32F10x_StdPeriph_Driver/src/stm32f10x_flash.c ****   
1183:./Libraries/STM32F10x_StdPeriph_Driver/src/stm32f10x_flash.c ****   if(status == FLASH_COMPLETE)
1184:./Libraries/STM32F10x_StdPeriph_Driver/src/stm32f10x_flash.c ****   {  
1185:./Libraries/STM32F10x_StdPeriph_Driver/src/stm32f10x_flash.c ****     /* Enable the Option Bytes Programming operation */
1186:./Libraries/STM32F10x_StdPeriph_Driver/src/stm32f10x_flash.c ****     FLASH->CR |= CR_OPTPG_Set; 
1187:./Libraries/STM32F10x_StdPeriph_Driver/src/stm32f10x_flash.c **** 
1188:./Libraries/STM32F10x_StdPeriph_Driver/src/stm32f10x_flash.c ****     if(FLASH_BOOT == FLASH_BOOT_Bank1)
1189:./Libraries/STM32F10x_StdPeriph_Driver/src/stm32f10x_flash.c ****     {
1190:./Libraries/STM32F10x_StdPeriph_Driver/src/stm32f10x_flash.c ****       OB->USER |= OB_USER_BFB2;
1191:./Libraries/STM32F10x_StdPeriph_Driver/src/stm32f10x_flash.c ****     }
1192:./Libraries/STM32F10x_StdPeriph_Driver/src/stm32f10x_flash.c ****     else
1193:./Libraries/STM32F10x_StdPeriph_Driver/src/stm32f10x_flash.c ****     {
1194:./Libraries/STM32F10x_StdPeriph_Driver/src/stm32f10x_flash.c ****       OB->USER &= (uint16_t)(~(uint16_t)(OB_USER_BFB2));
1195:./Libraries/STM32F10x_StdPeriph_Driver/src/stm32f10x_flash.c ****     }
1196:./Libraries/STM32F10x_StdPeriph_Driver/src/stm32f10x_flash.c ****     /* Wait for last operation to be completed */
1197:./Libraries/STM32F10x_StdPeriph_Driver/src/stm32f10x_flash.c ****     status = FLASH_WaitForLastOperation(ProgramTimeout);
1198:./Libraries/STM32F10x_StdPeriph_Driver/src/stm32f10x_flash.c ****     if(status != FLASH_TIMEOUT)
1199:./Libraries/STM32F10x_StdPeriph_Driver/src/stm32f10x_flash.c ****     {
1200:./Libraries/STM32F10x_StdPeriph_Driver/src/stm32f10x_flash.c ****       /* if the program operation is completed, disable the OPTPG Bit */
1201:./Libraries/STM32F10x_StdPeriph_Driver/src/stm32f10x_flash.c ****       FLASH->CR &= CR_OPTPG_Reset;
1202:./Libraries/STM32F10x_StdPeriph_Driver/src/stm32f10x_flash.c ****     }
1203:./Libraries/STM32F10x_StdPeriph_Driver/src/stm32f10x_flash.c ****   }    
1204:./Libraries/STM32F10x_StdPeriph_Driver/src/stm32f10x_flash.c ****   /* Return the Option Byte program Status */
1205:./Libraries/STM32F10x_StdPeriph_Driver/src/stm32f10x_flash.c ****   return status;
1206:./Libraries/STM32F10x_StdPeriph_Driver/src/stm32f10x_flash.c **** }
1207:./Libraries/STM32F10x_StdPeriph_Driver/src/stm32f10x_flash.c **** #endif /* STM32F10X_XL */
1208:./Libraries/STM32F10x_StdPeriph_Driver/src/stm32f10x_flash.c **** 
1209:./Libraries/STM32F10x_StdPeriph_Driver/src/stm32f10x_flash.c **** /**
1210:./Libraries/STM32F10x_StdPeriph_Driver/src/stm32f10x_flash.c ****   * @brief  Returns the FLASH User Option Bytes values.
1211:./Libraries/STM32F10x_StdPeriph_Driver/src/stm32f10x_flash.c ****   * @note   This function can be used for all STM32F10x devices.
1212:./Libraries/STM32F10x_StdPeriph_Driver/src/stm32f10x_flash.c ****   * @param  None
1213:./Libraries/STM32F10x_StdPeriph_Driver/src/stm32f10x_flash.c ****   * @retval The FLASH User Option Bytes values:IWDG_SW(Bit0), RST_STOP(Bit1)
1214:./Libraries/STM32F10x_StdPeriph_Driver/src/stm32f10x_flash.c ****   *         and RST_STDBY(Bit2).
1215:./Libraries/STM32F10x_StdPeriph_Driver/src/stm32f10x_flash.c ****   */
1216:./Libraries/STM32F10x_StdPeriph_Driver/src/stm32f10x_flash.c **** uint32_t FLASH_GetUserOptionByte(void)
1217:./Libraries/STM32F10x_StdPeriph_Driver/src/stm32f10x_flash.c **** {
 272              		.loc 1 1217 1 is_stmt 1 view -0
 273              		.cfi_startproc
 274              		@ args = 0, pretend = 0, frame = 0
 275              		@ frame_needed = 0, uses_anonymous_args = 0
 276              		@ link register save eliminated.
1218:./Libraries/STM32F10x_StdPeriph_Driver/src/stm32f10x_flash.c ****   /* Return the User Option Byte */
1219:./Libraries/STM32F10x_StdPeriph_Driver/src/stm32f10x_flash.c ****   return (uint32_t)(FLASH->OBR >> 2);
 277              		.loc 1 1219 3 view .LVU47
 278              		.loc 1 1219 26 is_stmt 0 view .LVU48
ARM GAS  /tmp/ccV0cNik.s 			page 27


 279 0000 014B     		ldr	r3, .L23
 280 0002 D869     		ldr	r0, [r3, #28]
1220:./Libraries/STM32F10x_StdPeriph_Driver/src/stm32f10x_flash.c **** }
 281              		.loc 1 1220 1 view .LVU49
 282 0004 8008     		lsrs	r0, r0, #2
 283 0006 7047     		bx	lr
 284              	.L24:
 285              		.align	2
 286              	.L23:
 287 0008 00200240 		.word	1073881088
 288              		.cfi_endproc
 289              	.LFE46:
 291              		.section	.text.FLASH_GetWriteProtectionOptionByte,"ax",%progbits
 292              		.align	1
 293              		.global	FLASH_GetWriteProtectionOptionByte
 294              		.syntax unified
 295              		.thumb
 296              		.thumb_func
 297              		.fpu softvfp
 299              	FLASH_GetWriteProtectionOptionByte:
 300              	.LFB47:
1221:./Libraries/STM32F10x_StdPeriph_Driver/src/stm32f10x_flash.c **** 
1222:./Libraries/STM32F10x_StdPeriph_Driver/src/stm32f10x_flash.c **** /**
1223:./Libraries/STM32F10x_StdPeriph_Driver/src/stm32f10x_flash.c ****   * @brief  Returns the FLASH Write Protection Option Bytes Register value.
1224:./Libraries/STM32F10x_StdPeriph_Driver/src/stm32f10x_flash.c ****   * @note   This function can be used for all STM32F10x devices.
1225:./Libraries/STM32F10x_StdPeriph_Driver/src/stm32f10x_flash.c ****   * @param  None
1226:./Libraries/STM32F10x_StdPeriph_Driver/src/stm32f10x_flash.c ****   * @retval The FLASH Write Protection  Option Bytes Register value
1227:./Libraries/STM32F10x_StdPeriph_Driver/src/stm32f10x_flash.c ****   */
1228:./Libraries/STM32F10x_StdPeriph_Driver/src/stm32f10x_flash.c **** uint32_t FLASH_GetWriteProtectionOptionByte(void)
1229:./Libraries/STM32F10x_StdPeriph_Driver/src/stm32f10x_flash.c **** {
 301              		.loc 1 1229 1 is_stmt 1 view -0
 302              		.cfi_startproc
 303              		@ args = 0, pretend = 0, frame = 0
 304              		@ frame_needed = 0, uses_anonymous_args = 0
 305              		@ link register save eliminated.
1230:./Libraries/STM32F10x_StdPeriph_Driver/src/stm32f10x_flash.c ****   /* Return the Flash write protection Register value */
1231:./Libraries/STM32F10x_StdPeriph_Driver/src/stm32f10x_flash.c ****   return (uint32_t)(FLASH->WRPR);
 306              		.loc 1 1231 3 view .LVU51
 307              		.loc 1 1231 10 is_stmt 0 view .LVU52
 308 0000 014B     		ldr	r3, .L26
 309 0002 186A     		ldr	r0, [r3, #32]
1232:./Libraries/STM32F10x_StdPeriph_Driver/src/stm32f10x_flash.c **** }
 310              		.loc 1 1232 1 view .LVU53
 311 0004 7047     		bx	lr
 312              	.L27:
 313 0006 00BF     		.align	2
 314              	.L26:
 315 0008 00200240 		.word	1073881088
 316              		.cfi_endproc
 317              	.LFE47:
 319              		.section	.text.FLASH_GetReadOutProtectionStatus,"ax",%progbits
 320              		.align	1
 321              		.global	FLASH_GetReadOutProtectionStatus
 322              		.syntax unified
 323              		.thumb
 324              		.thumb_func
 325              		.fpu softvfp
ARM GAS  /tmp/ccV0cNik.s 			page 28


 327              	FLASH_GetReadOutProtectionStatus:
 328              	.LFB48:
1233:./Libraries/STM32F10x_StdPeriph_Driver/src/stm32f10x_flash.c **** 
1234:./Libraries/STM32F10x_StdPeriph_Driver/src/stm32f10x_flash.c **** /**
1235:./Libraries/STM32F10x_StdPeriph_Driver/src/stm32f10x_flash.c ****   * @brief  Checks whether the FLASH Read Out Protection Status is set or not.
1236:./Libraries/STM32F10x_StdPeriph_Driver/src/stm32f10x_flash.c ****   * @note   This function can be used for all STM32F10x devices.
1237:./Libraries/STM32F10x_StdPeriph_Driver/src/stm32f10x_flash.c ****   * @param  None
1238:./Libraries/STM32F10x_StdPeriph_Driver/src/stm32f10x_flash.c ****   * @retval FLASH ReadOut Protection Status(SET or RESET)
1239:./Libraries/STM32F10x_StdPeriph_Driver/src/stm32f10x_flash.c ****   */
1240:./Libraries/STM32F10x_StdPeriph_Driver/src/stm32f10x_flash.c **** FlagStatus FLASH_GetReadOutProtectionStatus(void)
1241:./Libraries/STM32F10x_StdPeriph_Driver/src/stm32f10x_flash.c **** {
 329              		.loc 1 1241 1 is_stmt 1 view -0
 330              		.cfi_startproc
 331              		@ args = 0, pretend = 0, frame = 0
 332              		@ frame_needed = 0, uses_anonymous_args = 0
 333              		@ link register save eliminated.
1242:./Libraries/STM32F10x_StdPeriph_Driver/src/stm32f10x_flash.c ****   FlagStatus readoutstatus = RESET;
 334              		.loc 1 1242 3 view .LVU55
 335              	.LVL6:
1243:./Libraries/STM32F10x_StdPeriph_Driver/src/stm32f10x_flash.c ****   if ((FLASH->OBR & RDPRT_Mask) != (uint32_t)RESET)
 336              		.loc 1 1243 3 view .LVU56
 337              		.loc 1 1243 13 is_stmt 0 view .LVU57
 338 0000 044B     		ldr	r3, .L31
 339 0002 DB69     		ldr	r3, [r3, #28]
 340              		.loc 1 1243 6 view .LVU58
 341 0004 13F0020F 		tst	r3, #2
 342 0008 01D0     		beq	.L30
1244:./Libraries/STM32F10x_StdPeriph_Driver/src/stm32f10x_flash.c ****   {
1245:./Libraries/STM32F10x_StdPeriph_Driver/src/stm32f10x_flash.c ****     readoutstatus = SET;
 343              		.loc 1 1245 19 view .LVU59
 344 000a 0120     		movs	r0, #1
 345 000c 7047     		bx	lr
 346              	.L30:
1246:./Libraries/STM32F10x_StdPeriph_Driver/src/stm32f10x_flash.c ****   }
1247:./Libraries/STM32F10x_StdPeriph_Driver/src/stm32f10x_flash.c ****   else
1248:./Libraries/STM32F10x_StdPeriph_Driver/src/stm32f10x_flash.c ****   {
1249:./Libraries/STM32F10x_StdPeriph_Driver/src/stm32f10x_flash.c ****     readoutstatus = RESET;
 347              		.loc 1 1249 19 view .LVU60
 348 000e 0020     		movs	r0, #0
 349              	.LVL7:
1250:./Libraries/STM32F10x_StdPeriph_Driver/src/stm32f10x_flash.c ****   }
1251:./Libraries/STM32F10x_StdPeriph_Driver/src/stm32f10x_flash.c ****   return readoutstatus;
 350              		.loc 1 1251 3 is_stmt 1 view .LVU61
1252:./Libraries/STM32F10x_StdPeriph_Driver/src/stm32f10x_flash.c **** }
 351              		.loc 1 1252 1 is_stmt 0 view .LVU62
 352 0010 7047     		bx	lr
 353              	.L32:
 354 0012 00BF     		.align	2
 355              	.L31:
 356 0014 00200240 		.word	1073881088
 357              		.cfi_endproc
 358              	.LFE48:
 360              		.section	.text.FLASH_GetPrefetchBufferStatus,"ax",%progbits
 361              		.align	1
 362              		.global	FLASH_GetPrefetchBufferStatus
 363              		.syntax unified
 364              		.thumb
ARM GAS  /tmp/ccV0cNik.s 			page 29


 365              		.thumb_func
 366              		.fpu softvfp
 368              	FLASH_GetPrefetchBufferStatus:
 369              	.LFB49:
1253:./Libraries/STM32F10x_StdPeriph_Driver/src/stm32f10x_flash.c **** 
1254:./Libraries/STM32F10x_StdPeriph_Driver/src/stm32f10x_flash.c **** /**
1255:./Libraries/STM32F10x_StdPeriph_Driver/src/stm32f10x_flash.c ****   * @brief  Checks whether the FLASH Prefetch Buffer status is set or not.
1256:./Libraries/STM32F10x_StdPeriph_Driver/src/stm32f10x_flash.c ****   * @note   This function can be used for all STM32F10x devices.
1257:./Libraries/STM32F10x_StdPeriph_Driver/src/stm32f10x_flash.c ****   * @param  None
1258:./Libraries/STM32F10x_StdPeriph_Driver/src/stm32f10x_flash.c ****   * @retval FLASH Prefetch Buffer Status (SET or RESET).
1259:./Libraries/STM32F10x_StdPeriph_Driver/src/stm32f10x_flash.c ****   */
1260:./Libraries/STM32F10x_StdPeriph_Driver/src/stm32f10x_flash.c **** FlagStatus FLASH_GetPrefetchBufferStatus(void)
1261:./Libraries/STM32F10x_StdPeriph_Driver/src/stm32f10x_flash.c **** {
 370              		.loc 1 1261 1 is_stmt 1 view -0
 371              		.cfi_startproc
 372              		@ args = 0, pretend = 0, frame = 0
 373              		@ frame_needed = 0, uses_anonymous_args = 0
 374              		@ link register save eliminated.
1262:./Libraries/STM32F10x_StdPeriph_Driver/src/stm32f10x_flash.c ****   FlagStatus bitstatus = RESET;
 375              		.loc 1 1262 3 view .LVU64
 376              	.LVL8:
1263:./Libraries/STM32F10x_StdPeriph_Driver/src/stm32f10x_flash.c ****   
1264:./Libraries/STM32F10x_StdPeriph_Driver/src/stm32f10x_flash.c ****   if ((FLASH->ACR & ACR_PRFTBS_Mask) != (uint32_t)RESET)
 377              		.loc 1 1264 3 view .LVU65
 378              		.loc 1 1264 13 is_stmt 0 view .LVU66
 379 0000 044B     		ldr	r3, .L36
 380 0002 1B68     		ldr	r3, [r3]
 381              		.loc 1 1264 6 view .LVU67
 382 0004 13F0200F 		tst	r3, #32
 383 0008 01D0     		beq	.L35
1265:./Libraries/STM32F10x_StdPeriph_Driver/src/stm32f10x_flash.c ****   {
1266:./Libraries/STM32F10x_StdPeriph_Driver/src/stm32f10x_flash.c ****     bitstatus = SET;
 384              		.loc 1 1266 15 view .LVU68
 385 000a 0120     		movs	r0, #1
 386 000c 7047     		bx	lr
 387              	.L35:
1267:./Libraries/STM32F10x_StdPeriph_Driver/src/stm32f10x_flash.c ****   }
1268:./Libraries/STM32F10x_StdPeriph_Driver/src/stm32f10x_flash.c ****   else
1269:./Libraries/STM32F10x_StdPeriph_Driver/src/stm32f10x_flash.c ****   {
1270:./Libraries/STM32F10x_StdPeriph_Driver/src/stm32f10x_flash.c ****     bitstatus = RESET;
 388              		.loc 1 1270 15 view .LVU69
 389 000e 0020     		movs	r0, #0
 390              	.LVL9:
1271:./Libraries/STM32F10x_StdPeriph_Driver/src/stm32f10x_flash.c ****   }
1272:./Libraries/STM32F10x_StdPeriph_Driver/src/stm32f10x_flash.c ****   /* Return the new state of FLASH Prefetch Buffer Status (SET or RESET) */
1273:./Libraries/STM32F10x_StdPeriph_Driver/src/stm32f10x_flash.c ****   return bitstatus; 
 391              		.loc 1 1273 3 is_stmt 1 view .LVU70
1274:./Libraries/STM32F10x_StdPeriph_Driver/src/stm32f10x_flash.c **** }
 392              		.loc 1 1274 1 is_stmt 0 view .LVU71
 393 0010 7047     		bx	lr
 394              	.L37:
 395 0012 00BF     		.align	2
 396              	.L36:
 397 0014 00200240 		.word	1073881088
 398              		.cfi_endproc
 399              	.LFE49:
 401              		.section	.text.FLASH_ITConfig,"ax",%progbits
ARM GAS  /tmp/ccV0cNik.s 			page 30


 402              		.align	1
 403              		.global	FLASH_ITConfig
 404              		.syntax unified
 405              		.thumb
 406              		.thumb_func
 407              		.fpu softvfp
 409              	FLASH_ITConfig:
 410              	.LVL10:
 411              	.LFB50:
1275:./Libraries/STM32F10x_StdPeriph_Driver/src/stm32f10x_flash.c **** 
1276:./Libraries/STM32F10x_StdPeriph_Driver/src/stm32f10x_flash.c **** /**
1277:./Libraries/STM32F10x_StdPeriph_Driver/src/stm32f10x_flash.c ****   * @brief  Enables or disables the specified FLASH interrupts.
1278:./Libraries/STM32F10x_StdPeriph_Driver/src/stm32f10x_flash.c ****   * @note   This function can be used for all STM32F10x devices.
1279:./Libraries/STM32F10x_StdPeriph_Driver/src/stm32f10x_flash.c ****   *         - For STM32F10X_XL devices, enables or disables the specified FLASH interrupts
1280:./Libraries/STM32F10x_StdPeriph_Driver/src/stm32f10x_flash.c ****               for Bank1 and Bank2.
1281:./Libraries/STM32F10x_StdPeriph_Driver/src/stm32f10x_flash.c ****   *         - For other devices it enables or disables the specified FLASH interrupts for Bank1.
1282:./Libraries/STM32F10x_StdPeriph_Driver/src/stm32f10x_flash.c ****   * @param  FLASH_IT: specifies the FLASH interrupt sources to be enabled or disabled.
1283:./Libraries/STM32F10x_StdPeriph_Driver/src/stm32f10x_flash.c ****   *   This parameter can be any combination of the following values:
1284:./Libraries/STM32F10x_StdPeriph_Driver/src/stm32f10x_flash.c ****   *     @arg FLASH_IT_ERROR: FLASH Error Interrupt
1285:./Libraries/STM32F10x_StdPeriph_Driver/src/stm32f10x_flash.c ****   *     @arg FLASH_IT_EOP: FLASH end of operation Interrupt
1286:./Libraries/STM32F10x_StdPeriph_Driver/src/stm32f10x_flash.c ****   * @param  NewState: new state of the specified Flash interrupts.
1287:./Libraries/STM32F10x_StdPeriph_Driver/src/stm32f10x_flash.c ****   *   This parameter can be: ENABLE or DISABLE.      
1288:./Libraries/STM32F10x_StdPeriph_Driver/src/stm32f10x_flash.c ****   * @retval None 
1289:./Libraries/STM32F10x_StdPeriph_Driver/src/stm32f10x_flash.c ****   */
1290:./Libraries/STM32F10x_StdPeriph_Driver/src/stm32f10x_flash.c **** void FLASH_ITConfig(uint32_t FLASH_IT, FunctionalState NewState)
1291:./Libraries/STM32F10x_StdPeriph_Driver/src/stm32f10x_flash.c **** {
 412              		.loc 1 1291 1 is_stmt 1 view -0
 413              		.cfi_startproc
 414              		@ args = 0, pretend = 0, frame = 0
 415              		@ frame_needed = 0, uses_anonymous_args = 0
 416              		@ link register save eliminated.
1292:./Libraries/STM32F10x_StdPeriph_Driver/src/stm32f10x_flash.c **** #ifdef STM32F10X_XL
1293:./Libraries/STM32F10x_StdPeriph_Driver/src/stm32f10x_flash.c ****   /* Check the parameters */
1294:./Libraries/STM32F10x_StdPeriph_Driver/src/stm32f10x_flash.c ****   assert_param(IS_FLASH_IT(FLASH_IT)); 
1295:./Libraries/STM32F10x_StdPeriph_Driver/src/stm32f10x_flash.c ****   assert_param(IS_FUNCTIONAL_STATE(NewState));
1296:./Libraries/STM32F10x_StdPeriph_Driver/src/stm32f10x_flash.c **** 
1297:./Libraries/STM32F10x_StdPeriph_Driver/src/stm32f10x_flash.c ****   if((FLASH_IT & 0x80000000) != 0x0)
1298:./Libraries/STM32F10x_StdPeriph_Driver/src/stm32f10x_flash.c ****   {
1299:./Libraries/STM32F10x_StdPeriph_Driver/src/stm32f10x_flash.c ****     if(NewState != DISABLE)
1300:./Libraries/STM32F10x_StdPeriph_Driver/src/stm32f10x_flash.c ****     {
1301:./Libraries/STM32F10x_StdPeriph_Driver/src/stm32f10x_flash.c ****       /* Enable the interrupt sources */
1302:./Libraries/STM32F10x_StdPeriph_Driver/src/stm32f10x_flash.c ****       FLASH->CR2 |= (FLASH_IT & 0x7FFFFFFF);
1303:./Libraries/STM32F10x_StdPeriph_Driver/src/stm32f10x_flash.c ****     }
1304:./Libraries/STM32F10x_StdPeriph_Driver/src/stm32f10x_flash.c ****     else
1305:./Libraries/STM32F10x_StdPeriph_Driver/src/stm32f10x_flash.c ****     {
1306:./Libraries/STM32F10x_StdPeriph_Driver/src/stm32f10x_flash.c ****       /* Disable the interrupt sources */
1307:./Libraries/STM32F10x_StdPeriph_Driver/src/stm32f10x_flash.c ****       FLASH->CR2 &= ~(uint32_t)(FLASH_IT & 0x7FFFFFFF);
1308:./Libraries/STM32F10x_StdPeriph_Driver/src/stm32f10x_flash.c ****     }
1309:./Libraries/STM32F10x_StdPeriph_Driver/src/stm32f10x_flash.c ****   }
1310:./Libraries/STM32F10x_StdPeriph_Driver/src/stm32f10x_flash.c ****   else
1311:./Libraries/STM32F10x_StdPeriph_Driver/src/stm32f10x_flash.c ****   {
1312:./Libraries/STM32F10x_StdPeriph_Driver/src/stm32f10x_flash.c ****     if(NewState != DISABLE)
1313:./Libraries/STM32F10x_StdPeriph_Driver/src/stm32f10x_flash.c ****     {
1314:./Libraries/STM32F10x_StdPeriph_Driver/src/stm32f10x_flash.c ****       /* Enable the interrupt sources */
1315:./Libraries/STM32F10x_StdPeriph_Driver/src/stm32f10x_flash.c ****       FLASH->CR |= FLASH_IT;
1316:./Libraries/STM32F10x_StdPeriph_Driver/src/stm32f10x_flash.c ****     }
1317:./Libraries/STM32F10x_StdPeriph_Driver/src/stm32f10x_flash.c ****     else
ARM GAS  /tmp/ccV0cNik.s 			page 31


1318:./Libraries/STM32F10x_StdPeriph_Driver/src/stm32f10x_flash.c ****     {
1319:./Libraries/STM32F10x_StdPeriph_Driver/src/stm32f10x_flash.c ****       /* Disable the interrupt sources */
1320:./Libraries/STM32F10x_StdPeriph_Driver/src/stm32f10x_flash.c ****       FLASH->CR &= ~(uint32_t)FLASH_IT;
1321:./Libraries/STM32F10x_StdPeriph_Driver/src/stm32f10x_flash.c ****     }
1322:./Libraries/STM32F10x_StdPeriph_Driver/src/stm32f10x_flash.c ****   }
1323:./Libraries/STM32F10x_StdPeriph_Driver/src/stm32f10x_flash.c **** #else
1324:./Libraries/STM32F10x_StdPeriph_Driver/src/stm32f10x_flash.c ****   /* Check the parameters */
1325:./Libraries/STM32F10x_StdPeriph_Driver/src/stm32f10x_flash.c ****   assert_param(IS_FLASH_IT(FLASH_IT)); 
 417              		.loc 1 1325 3 view .LVU73
1326:./Libraries/STM32F10x_StdPeriph_Driver/src/stm32f10x_flash.c ****   assert_param(IS_FUNCTIONAL_STATE(NewState));
 418              		.loc 1 1326 3 view .LVU74
1327:./Libraries/STM32F10x_StdPeriph_Driver/src/stm32f10x_flash.c **** 
1328:./Libraries/STM32F10x_StdPeriph_Driver/src/stm32f10x_flash.c ****   if(NewState != DISABLE)
 419              		.loc 1 1328 3 view .LVU75
 420              		.loc 1 1328 5 is_stmt 0 view .LVU76
 421 0000 21B1     		cbz	r1, .L39
1329:./Libraries/STM32F10x_StdPeriph_Driver/src/stm32f10x_flash.c ****   {
1330:./Libraries/STM32F10x_StdPeriph_Driver/src/stm32f10x_flash.c ****     /* Enable the interrupt sources */
1331:./Libraries/STM32F10x_StdPeriph_Driver/src/stm32f10x_flash.c ****     FLASH->CR |= FLASH_IT;
 422              		.loc 1 1331 5 is_stmt 1 view .LVU77
 423              		.loc 1 1331 15 is_stmt 0 view .LVU78
 424 0002 054A     		ldr	r2, .L41
 425 0004 1369     		ldr	r3, [r2, #16]
 426 0006 1843     		orrs	r0, r0, r3
 427              	.LVL11:
 428              		.loc 1 1331 15 view .LVU79
 429 0008 1061     		str	r0, [r2, #16]
 430 000a 7047     		bx	lr
 431              	.LVL12:
 432              	.L39:
1332:./Libraries/STM32F10x_StdPeriph_Driver/src/stm32f10x_flash.c ****   }
1333:./Libraries/STM32F10x_StdPeriph_Driver/src/stm32f10x_flash.c ****   else
1334:./Libraries/STM32F10x_StdPeriph_Driver/src/stm32f10x_flash.c ****   {
1335:./Libraries/STM32F10x_StdPeriph_Driver/src/stm32f10x_flash.c ****     /* Disable the interrupt sources */
1336:./Libraries/STM32F10x_StdPeriph_Driver/src/stm32f10x_flash.c ****     FLASH->CR &= ~(uint32_t)FLASH_IT;
 433              		.loc 1 1336 5 is_stmt 1 view .LVU80
 434              		.loc 1 1336 15 is_stmt 0 view .LVU81
 435 000c 024A     		ldr	r2, .L41
 436 000e 1369     		ldr	r3, [r2, #16]
 437 0010 23EA0000 		bic	r0, r3, r0
 438              	.LVL13:
 439              		.loc 1 1336 15 view .LVU82
 440 0014 1061     		str	r0, [r2, #16]
1337:./Libraries/STM32F10x_StdPeriph_Driver/src/stm32f10x_flash.c ****   }
1338:./Libraries/STM32F10x_StdPeriph_Driver/src/stm32f10x_flash.c **** #endif /* STM32F10X_XL */
1339:./Libraries/STM32F10x_StdPeriph_Driver/src/stm32f10x_flash.c **** }
 441              		.loc 1 1339 1 view .LVU83
 442 0016 7047     		bx	lr
 443              	.L42:
 444              		.align	2
 445              	.L41:
 446 0018 00200240 		.word	1073881088
 447              		.cfi_endproc
 448              	.LFE50:
 450              		.section	.text.FLASH_GetFlagStatus,"ax",%progbits
 451              		.align	1
 452              		.global	FLASH_GetFlagStatus
ARM GAS  /tmp/ccV0cNik.s 			page 32


 453              		.syntax unified
 454              		.thumb
 455              		.thumb_func
 456              		.fpu softvfp
 458              	FLASH_GetFlagStatus:
 459              	.LVL14:
 460              	.LFB51:
1340:./Libraries/STM32F10x_StdPeriph_Driver/src/stm32f10x_flash.c **** 
1341:./Libraries/STM32F10x_StdPeriph_Driver/src/stm32f10x_flash.c **** /**
1342:./Libraries/STM32F10x_StdPeriph_Driver/src/stm32f10x_flash.c ****   * @brief  Checks whether the specified FLASH flag is set or not.
1343:./Libraries/STM32F10x_StdPeriph_Driver/src/stm32f10x_flash.c ****   * @note   This function can be used for all STM32F10x devices.
1344:./Libraries/STM32F10x_StdPeriph_Driver/src/stm32f10x_flash.c ****   *         - For STM32F10X_XL devices, this function checks whether the specified 
1345:./Libraries/STM32F10x_StdPeriph_Driver/src/stm32f10x_flash.c ****   *           Bank1 or Bank2 flag is set or not.
1346:./Libraries/STM32F10x_StdPeriph_Driver/src/stm32f10x_flash.c ****   *         - For other devices, it checks whether the specified Bank1 flag is 
1347:./Libraries/STM32F10x_StdPeriph_Driver/src/stm32f10x_flash.c ****   *           set or not.
1348:./Libraries/STM32F10x_StdPeriph_Driver/src/stm32f10x_flash.c ****   * @param  FLASH_FLAG: specifies the FLASH flag to check.
1349:./Libraries/STM32F10x_StdPeriph_Driver/src/stm32f10x_flash.c ****   *   This parameter can be one of the following values:
1350:./Libraries/STM32F10x_StdPeriph_Driver/src/stm32f10x_flash.c ****   *     @arg FLASH_FLAG_BSY: FLASH Busy flag           
1351:./Libraries/STM32F10x_StdPeriph_Driver/src/stm32f10x_flash.c ****   *     @arg FLASH_FLAG_PGERR: FLASH Program error flag       
1352:./Libraries/STM32F10x_StdPeriph_Driver/src/stm32f10x_flash.c ****   *     @arg FLASH_FLAG_WRPRTERR: FLASH Write protected error flag      
1353:./Libraries/STM32F10x_StdPeriph_Driver/src/stm32f10x_flash.c ****   *     @arg FLASH_FLAG_EOP: FLASH End of Operation flag           
1354:./Libraries/STM32F10x_StdPeriph_Driver/src/stm32f10x_flash.c ****   *     @arg FLASH_FLAG_OPTERR:  FLASH Option Byte error flag     
1355:./Libraries/STM32F10x_StdPeriph_Driver/src/stm32f10x_flash.c ****   * @retval The new state of FLASH_FLAG (SET or RESET).
1356:./Libraries/STM32F10x_StdPeriph_Driver/src/stm32f10x_flash.c ****   */
1357:./Libraries/STM32F10x_StdPeriph_Driver/src/stm32f10x_flash.c **** FlagStatus FLASH_GetFlagStatus(uint32_t FLASH_FLAG)
1358:./Libraries/STM32F10x_StdPeriph_Driver/src/stm32f10x_flash.c **** {
 461              		.loc 1 1358 1 is_stmt 1 view -0
 462              		.cfi_startproc
 463              		@ args = 0, pretend = 0, frame = 0
 464              		@ frame_needed = 0, uses_anonymous_args = 0
 465              		@ link register save eliminated.
1359:./Libraries/STM32F10x_StdPeriph_Driver/src/stm32f10x_flash.c ****   FlagStatus bitstatus = RESET;
 466              		.loc 1 1359 3 view .LVU85
1360:./Libraries/STM32F10x_StdPeriph_Driver/src/stm32f10x_flash.c **** 
1361:./Libraries/STM32F10x_StdPeriph_Driver/src/stm32f10x_flash.c **** #ifdef STM32F10X_XL
1362:./Libraries/STM32F10x_StdPeriph_Driver/src/stm32f10x_flash.c ****   /* Check the parameters */
1363:./Libraries/STM32F10x_StdPeriph_Driver/src/stm32f10x_flash.c ****   assert_param(IS_FLASH_GET_FLAG(FLASH_FLAG)) ;
1364:./Libraries/STM32F10x_StdPeriph_Driver/src/stm32f10x_flash.c ****   if(FLASH_FLAG == FLASH_FLAG_OPTERR) 
1365:./Libraries/STM32F10x_StdPeriph_Driver/src/stm32f10x_flash.c ****   {
1366:./Libraries/STM32F10x_StdPeriph_Driver/src/stm32f10x_flash.c ****     if((FLASH->OBR & FLASH_FLAG_OPTERR) != (uint32_t)RESET)
1367:./Libraries/STM32F10x_StdPeriph_Driver/src/stm32f10x_flash.c ****     {
1368:./Libraries/STM32F10x_StdPeriph_Driver/src/stm32f10x_flash.c ****       bitstatus = SET;
1369:./Libraries/STM32F10x_StdPeriph_Driver/src/stm32f10x_flash.c ****     }
1370:./Libraries/STM32F10x_StdPeriph_Driver/src/stm32f10x_flash.c ****     else
1371:./Libraries/STM32F10x_StdPeriph_Driver/src/stm32f10x_flash.c ****     {
1372:./Libraries/STM32F10x_StdPeriph_Driver/src/stm32f10x_flash.c ****       bitstatus = RESET;
1373:./Libraries/STM32F10x_StdPeriph_Driver/src/stm32f10x_flash.c ****     }
1374:./Libraries/STM32F10x_StdPeriph_Driver/src/stm32f10x_flash.c ****   }
1375:./Libraries/STM32F10x_StdPeriph_Driver/src/stm32f10x_flash.c ****   else
1376:./Libraries/STM32F10x_StdPeriph_Driver/src/stm32f10x_flash.c ****   {
1377:./Libraries/STM32F10x_StdPeriph_Driver/src/stm32f10x_flash.c ****     if((FLASH_FLAG & 0x80000000) != 0x0)
1378:./Libraries/STM32F10x_StdPeriph_Driver/src/stm32f10x_flash.c ****     {
1379:./Libraries/STM32F10x_StdPeriph_Driver/src/stm32f10x_flash.c ****       if((FLASH->SR2 & FLASH_FLAG) != (uint32_t)RESET)
1380:./Libraries/STM32F10x_StdPeriph_Driver/src/stm32f10x_flash.c ****       {
1381:./Libraries/STM32F10x_StdPeriph_Driver/src/stm32f10x_flash.c ****         bitstatus = SET;
1382:./Libraries/STM32F10x_StdPeriph_Driver/src/stm32f10x_flash.c ****       }
1383:./Libraries/STM32F10x_StdPeriph_Driver/src/stm32f10x_flash.c ****       else
ARM GAS  /tmp/ccV0cNik.s 			page 33


1384:./Libraries/STM32F10x_StdPeriph_Driver/src/stm32f10x_flash.c ****       {
1385:./Libraries/STM32F10x_StdPeriph_Driver/src/stm32f10x_flash.c ****         bitstatus = RESET;
1386:./Libraries/STM32F10x_StdPeriph_Driver/src/stm32f10x_flash.c ****       }
1387:./Libraries/STM32F10x_StdPeriph_Driver/src/stm32f10x_flash.c ****     }
1388:./Libraries/STM32F10x_StdPeriph_Driver/src/stm32f10x_flash.c ****     else
1389:./Libraries/STM32F10x_StdPeriph_Driver/src/stm32f10x_flash.c ****     {
1390:./Libraries/STM32F10x_StdPeriph_Driver/src/stm32f10x_flash.c ****       if((FLASH->SR & FLASH_FLAG) != (uint32_t)RESET)
1391:./Libraries/STM32F10x_StdPeriph_Driver/src/stm32f10x_flash.c ****       {
1392:./Libraries/STM32F10x_StdPeriph_Driver/src/stm32f10x_flash.c ****         bitstatus = SET;
1393:./Libraries/STM32F10x_StdPeriph_Driver/src/stm32f10x_flash.c ****       }
1394:./Libraries/STM32F10x_StdPeriph_Driver/src/stm32f10x_flash.c ****       else
1395:./Libraries/STM32F10x_StdPeriph_Driver/src/stm32f10x_flash.c ****       {
1396:./Libraries/STM32F10x_StdPeriph_Driver/src/stm32f10x_flash.c ****         bitstatus = RESET;
1397:./Libraries/STM32F10x_StdPeriph_Driver/src/stm32f10x_flash.c ****       }
1398:./Libraries/STM32F10x_StdPeriph_Driver/src/stm32f10x_flash.c ****     }
1399:./Libraries/STM32F10x_StdPeriph_Driver/src/stm32f10x_flash.c ****   }
1400:./Libraries/STM32F10x_StdPeriph_Driver/src/stm32f10x_flash.c **** #else
1401:./Libraries/STM32F10x_StdPeriph_Driver/src/stm32f10x_flash.c ****   /* Check the parameters */
1402:./Libraries/STM32F10x_StdPeriph_Driver/src/stm32f10x_flash.c ****   assert_param(IS_FLASH_GET_FLAG(FLASH_FLAG)) ;
 467              		.loc 1 1402 3 view .LVU86
1403:./Libraries/STM32F10x_StdPeriph_Driver/src/stm32f10x_flash.c ****   if(FLASH_FLAG == FLASH_FLAG_OPTERR) 
 468              		.loc 1 1403 3 view .LVU87
 469              		.loc 1 1403 5 is_stmt 0 view .LVU88
 470 0000 0128     		cmp	r0, #1
 471 0002 05D0     		beq	.L48
1404:./Libraries/STM32F10x_StdPeriph_Driver/src/stm32f10x_flash.c ****   {
1405:./Libraries/STM32F10x_StdPeriph_Driver/src/stm32f10x_flash.c ****     if((FLASH->OBR & FLASH_FLAG_OPTERR) != (uint32_t)RESET)
1406:./Libraries/STM32F10x_StdPeriph_Driver/src/stm32f10x_flash.c ****     {
1407:./Libraries/STM32F10x_StdPeriph_Driver/src/stm32f10x_flash.c ****       bitstatus = SET;
1408:./Libraries/STM32F10x_StdPeriph_Driver/src/stm32f10x_flash.c ****     }
1409:./Libraries/STM32F10x_StdPeriph_Driver/src/stm32f10x_flash.c ****     else
1410:./Libraries/STM32F10x_StdPeriph_Driver/src/stm32f10x_flash.c ****     {
1411:./Libraries/STM32F10x_StdPeriph_Driver/src/stm32f10x_flash.c ****       bitstatus = RESET;
1412:./Libraries/STM32F10x_StdPeriph_Driver/src/stm32f10x_flash.c ****     }
1413:./Libraries/STM32F10x_StdPeriph_Driver/src/stm32f10x_flash.c ****   }
1414:./Libraries/STM32F10x_StdPeriph_Driver/src/stm32f10x_flash.c ****   else
1415:./Libraries/STM32F10x_StdPeriph_Driver/src/stm32f10x_flash.c ****   {
1416:./Libraries/STM32F10x_StdPeriph_Driver/src/stm32f10x_flash.c ****    if((FLASH->SR & FLASH_FLAG) != (uint32_t)RESET)
 472              		.loc 1 1416 4 is_stmt 1 view .LVU89
 473              		.loc 1 1416 13 is_stmt 0 view .LVU90
 474 0004 074B     		ldr	r3, .L49
 475 0006 DB68     		ldr	r3, [r3, #12]
 476              		.loc 1 1416 6 view .LVU91
 477 0008 0342     		tst	r3, r0
 478 000a 09D0     		beq	.L47
1417:./Libraries/STM32F10x_StdPeriph_Driver/src/stm32f10x_flash.c ****     {
1418:./Libraries/STM32F10x_StdPeriph_Driver/src/stm32f10x_flash.c ****       bitstatus = SET;
 479              		.loc 1 1418 17 view .LVU92
 480 000c 0120     		movs	r0, #1
 481              	.LVL15:
 482              		.loc 1 1418 17 view .LVU93
 483 000e 7047     		bx	lr
 484              	.LVL16:
 485              	.L48:
1405:./Libraries/STM32F10x_StdPeriph_Driver/src/stm32f10x_flash.c ****     {
 486              		.loc 1 1405 5 is_stmt 1 view .LVU94
1405:./Libraries/STM32F10x_StdPeriph_Driver/src/stm32f10x_flash.c ****     {
ARM GAS  /tmp/ccV0cNik.s 			page 34


 487              		.loc 1 1405 14 is_stmt 0 view .LVU95
 488 0010 044B     		ldr	r3, .L49
 489 0012 DB69     		ldr	r3, [r3, #28]
1405:./Libraries/STM32F10x_StdPeriph_Driver/src/stm32f10x_flash.c ****     {
 490              		.loc 1 1405 7 view .LVU96
 491 0014 13F0010F 		tst	r3, #1
 492 0018 00D0     		beq	.L46
 493 001a 7047     		bx	lr
 494              	.L46:
1411:./Libraries/STM32F10x_StdPeriph_Driver/src/stm32f10x_flash.c ****     }
 495              		.loc 1 1411 17 view .LVU97
 496 001c 0020     		movs	r0, #0
 497              	.LVL17:
1411:./Libraries/STM32F10x_StdPeriph_Driver/src/stm32f10x_flash.c ****     }
 498              		.loc 1 1411 17 view .LVU98
 499 001e 7047     		bx	lr
 500              	.LVL18:
 501              	.L47:
1419:./Libraries/STM32F10x_StdPeriph_Driver/src/stm32f10x_flash.c ****     }
1420:./Libraries/STM32F10x_StdPeriph_Driver/src/stm32f10x_flash.c ****     else
1421:./Libraries/STM32F10x_StdPeriph_Driver/src/stm32f10x_flash.c ****     {
1422:./Libraries/STM32F10x_StdPeriph_Driver/src/stm32f10x_flash.c ****       bitstatus = RESET;
 502              		.loc 1 1422 17 view .LVU99
 503 0020 0020     		movs	r0, #0
 504              	.LVL19:
1423:./Libraries/STM32F10x_StdPeriph_Driver/src/stm32f10x_flash.c ****     }
1424:./Libraries/STM32F10x_StdPeriph_Driver/src/stm32f10x_flash.c ****   }
1425:./Libraries/STM32F10x_StdPeriph_Driver/src/stm32f10x_flash.c **** #endif /* STM32F10X_XL */
1426:./Libraries/STM32F10x_StdPeriph_Driver/src/stm32f10x_flash.c **** 
1427:./Libraries/STM32F10x_StdPeriph_Driver/src/stm32f10x_flash.c ****   /* Return the new state of FLASH_FLAG (SET or RESET) */
1428:./Libraries/STM32F10x_StdPeriph_Driver/src/stm32f10x_flash.c ****   return bitstatus;
 505              		.loc 1 1428 3 is_stmt 1 view .LVU100
1429:./Libraries/STM32F10x_StdPeriph_Driver/src/stm32f10x_flash.c **** }
 506              		.loc 1 1429 1 is_stmt 0 view .LVU101
 507 0022 7047     		bx	lr
 508              	.L50:
 509              		.align	2
 510              	.L49:
 511 0024 00200240 		.word	1073881088
 512              		.cfi_endproc
 513              	.LFE51:
 515              		.section	.text.FLASH_ClearFlag,"ax",%progbits
 516              		.align	1
 517              		.global	FLASH_ClearFlag
 518              		.syntax unified
 519              		.thumb
 520              		.thumb_func
 521              		.fpu softvfp
 523              	FLASH_ClearFlag:
 524              	.LVL20:
 525              	.LFB52:
1430:./Libraries/STM32F10x_StdPeriph_Driver/src/stm32f10x_flash.c **** 
1431:./Libraries/STM32F10x_StdPeriph_Driver/src/stm32f10x_flash.c **** /**
1432:./Libraries/STM32F10x_StdPeriph_Driver/src/stm32f10x_flash.c ****   * @brief  Clears the FLASH's pending flags.
1433:./Libraries/STM32F10x_StdPeriph_Driver/src/stm32f10x_flash.c ****   * @note   This function can be used for all STM32F10x devices.
1434:./Libraries/STM32F10x_StdPeriph_Driver/src/stm32f10x_flash.c ****   *         - For STM32F10X_XL devices, this function clears Bank1 or Bank2s pending flags
1435:./Libraries/STM32F10x_StdPeriph_Driver/src/stm32f10x_flash.c ****   *         - For other devices, it clears Bank1s pending flags.
ARM GAS  /tmp/ccV0cNik.s 			page 35


1436:./Libraries/STM32F10x_StdPeriph_Driver/src/stm32f10x_flash.c ****   * @param  FLASH_FLAG: specifies the FLASH flags to clear.
1437:./Libraries/STM32F10x_StdPeriph_Driver/src/stm32f10x_flash.c ****   *   This parameter can be any combination of the following values:         
1438:./Libraries/STM32F10x_StdPeriph_Driver/src/stm32f10x_flash.c ****   *     @arg FLASH_FLAG_PGERR: FLASH Program error flag       
1439:./Libraries/STM32F10x_StdPeriph_Driver/src/stm32f10x_flash.c ****   *     @arg FLASH_FLAG_WRPRTERR: FLASH Write protected error flag      
1440:./Libraries/STM32F10x_StdPeriph_Driver/src/stm32f10x_flash.c ****   *     @arg FLASH_FLAG_EOP: FLASH End of Operation flag           
1441:./Libraries/STM32F10x_StdPeriph_Driver/src/stm32f10x_flash.c ****   * @retval None
1442:./Libraries/STM32F10x_StdPeriph_Driver/src/stm32f10x_flash.c ****   */
1443:./Libraries/STM32F10x_StdPeriph_Driver/src/stm32f10x_flash.c **** void FLASH_ClearFlag(uint32_t FLASH_FLAG)
1444:./Libraries/STM32F10x_StdPeriph_Driver/src/stm32f10x_flash.c **** {
 526              		.loc 1 1444 1 is_stmt 1 view -0
 527              		.cfi_startproc
 528              		@ args = 0, pretend = 0, frame = 0
 529              		@ frame_needed = 0, uses_anonymous_args = 0
 530              		@ link register save eliminated.
1445:./Libraries/STM32F10x_StdPeriph_Driver/src/stm32f10x_flash.c **** #ifdef STM32F10X_XL
1446:./Libraries/STM32F10x_StdPeriph_Driver/src/stm32f10x_flash.c ****   /* Check the parameters */
1447:./Libraries/STM32F10x_StdPeriph_Driver/src/stm32f10x_flash.c ****   assert_param(IS_FLASH_CLEAR_FLAG(FLASH_FLAG)) ;
1448:./Libraries/STM32F10x_StdPeriph_Driver/src/stm32f10x_flash.c **** 
1449:./Libraries/STM32F10x_StdPeriph_Driver/src/stm32f10x_flash.c ****   if((FLASH_FLAG & 0x80000000) != 0x0)
1450:./Libraries/STM32F10x_StdPeriph_Driver/src/stm32f10x_flash.c ****   {
1451:./Libraries/STM32F10x_StdPeriph_Driver/src/stm32f10x_flash.c ****     /* Clear the flags */
1452:./Libraries/STM32F10x_StdPeriph_Driver/src/stm32f10x_flash.c ****     FLASH->SR2 = FLASH_FLAG;
1453:./Libraries/STM32F10x_StdPeriph_Driver/src/stm32f10x_flash.c ****   }
1454:./Libraries/STM32F10x_StdPeriph_Driver/src/stm32f10x_flash.c ****   else
1455:./Libraries/STM32F10x_StdPeriph_Driver/src/stm32f10x_flash.c ****   {
1456:./Libraries/STM32F10x_StdPeriph_Driver/src/stm32f10x_flash.c ****     /* Clear the flags */
1457:./Libraries/STM32F10x_StdPeriph_Driver/src/stm32f10x_flash.c ****     FLASH->SR = FLASH_FLAG;
1458:./Libraries/STM32F10x_StdPeriph_Driver/src/stm32f10x_flash.c ****   }  
1459:./Libraries/STM32F10x_StdPeriph_Driver/src/stm32f10x_flash.c **** 
1460:./Libraries/STM32F10x_StdPeriph_Driver/src/stm32f10x_flash.c **** #else
1461:./Libraries/STM32F10x_StdPeriph_Driver/src/stm32f10x_flash.c ****   /* Check the parameters */
1462:./Libraries/STM32F10x_StdPeriph_Driver/src/stm32f10x_flash.c ****   assert_param(IS_FLASH_CLEAR_FLAG(FLASH_FLAG)) ;
 531              		.loc 1 1462 3 view .LVU103
1463:./Libraries/STM32F10x_StdPeriph_Driver/src/stm32f10x_flash.c ****   
1464:./Libraries/STM32F10x_StdPeriph_Driver/src/stm32f10x_flash.c ****   /* Clear the flags */
1465:./Libraries/STM32F10x_StdPeriph_Driver/src/stm32f10x_flash.c ****   FLASH->SR = FLASH_FLAG;
 532              		.loc 1 1465 3 view .LVU104
 533              		.loc 1 1465 13 is_stmt 0 view .LVU105
 534 0000 014B     		ldr	r3, .L52
 535 0002 D860     		str	r0, [r3, #12]
1466:./Libraries/STM32F10x_StdPeriph_Driver/src/stm32f10x_flash.c **** #endif /* STM32F10X_XL */
1467:./Libraries/STM32F10x_StdPeriph_Driver/src/stm32f10x_flash.c **** }
 536              		.loc 1 1467 1 view .LVU106
 537 0004 7047     		bx	lr
 538              	.L53:
 539 0006 00BF     		.align	2
 540              	.L52:
 541 0008 00200240 		.word	1073881088
 542              		.cfi_endproc
 543              	.LFE52:
 545              		.section	.text.FLASH_GetStatus,"ax",%progbits
 546              		.align	1
 547              		.global	FLASH_GetStatus
 548              		.syntax unified
 549              		.thumb
 550              		.thumb_func
 551              		.fpu softvfp
ARM GAS  /tmp/ccV0cNik.s 			page 36


 553              	FLASH_GetStatus:
 554              	.LFB53:
1468:./Libraries/STM32F10x_StdPeriph_Driver/src/stm32f10x_flash.c **** 
1469:./Libraries/STM32F10x_StdPeriph_Driver/src/stm32f10x_flash.c **** /**
1470:./Libraries/STM32F10x_StdPeriph_Driver/src/stm32f10x_flash.c ****   * @brief  Returns the FLASH Status.
1471:./Libraries/STM32F10x_StdPeriph_Driver/src/stm32f10x_flash.c ****   * @note   This function can be used for all STM32F10x devices, it is equivalent
1472:./Libraries/STM32F10x_StdPeriph_Driver/src/stm32f10x_flash.c ****   *         to FLASH_GetBank1Status function.
1473:./Libraries/STM32F10x_StdPeriph_Driver/src/stm32f10x_flash.c ****   * @param  None
1474:./Libraries/STM32F10x_StdPeriph_Driver/src/stm32f10x_flash.c ****   * @retval FLASH Status: The returned value can be: FLASH_BUSY, FLASH_ERROR_PG,
1475:./Libraries/STM32F10x_StdPeriph_Driver/src/stm32f10x_flash.c ****   *         FLASH_ERROR_WRP or FLASH_COMPLETE
1476:./Libraries/STM32F10x_StdPeriph_Driver/src/stm32f10x_flash.c ****   */
1477:./Libraries/STM32F10x_StdPeriph_Driver/src/stm32f10x_flash.c **** FLASH_Status FLASH_GetStatus(void)
1478:./Libraries/STM32F10x_StdPeriph_Driver/src/stm32f10x_flash.c **** {
 555              		.loc 1 1478 1 is_stmt 1 view -0
 556              		.cfi_startproc
 557              		@ args = 0, pretend = 0, frame = 0
 558              		@ frame_needed = 0, uses_anonymous_args = 0
 559              		@ link register save eliminated.
1479:./Libraries/STM32F10x_StdPeriph_Driver/src/stm32f10x_flash.c ****   FLASH_Status flashstatus = FLASH_COMPLETE;
 560              		.loc 1 1479 3 view .LVU108
 561              	.LVL21:
1480:./Libraries/STM32F10x_StdPeriph_Driver/src/stm32f10x_flash.c ****   
1481:./Libraries/STM32F10x_StdPeriph_Driver/src/stm32f10x_flash.c ****   if((FLASH->SR & FLASH_FLAG_BSY) == FLASH_FLAG_BSY) 
 562              		.loc 1 1481 3 view .LVU109
 563              		.loc 1 1481 12 is_stmt 0 view .LVU110
 564 0000 0B4B     		ldr	r3, .L59
 565 0002 DB68     		ldr	r3, [r3, #12]
 566              		.loc 1 1481 5 view .LVU111
 567 0004 13F0010F 		tst	r3, #1
 568 0008 0BD1     		bne	.L56
1482:./Libraries/STM32F10x_StdPeriph_Driver/src/stm32f10x_flash.c ****   {
1483:./Libraries/STM32F10x_StdPeriph_Driver/src/stm32f10x_flash.c ****     flashstatus = FLASH_BUSY;
1484:./Libraries/STM32F10x_StdPeriph_Driver/src/stm32f10x_flash.c ****   }
1485:./Libraries/STM32F10x_StdPeriph_Driver/src/stm32f10x_flash.c ****   else 
1486:./Libraries/STM32F10x_StdPeriph_Driver/src/stm32f10x_flash.c ****   {  
1487:./Libraries/STM32F10x_StdPeriph_Driver/src/stm32f10x_flash.c ****     if((FLASH->SR & FLASH_FLAG_PGERR) != 0)
 569              		.loc 1 1487 5 is_stmt 1 view .LVU112
 570              		.loc 1 1487 14 is_stmt 0 view .LVU113
 571 000a 094B     		ldr	r3, .L59
 572 000c DB68     		ldr	r3, [r3, #12]
 573              		.loc 1 1487 7 view .LVU114
 574 000e 13F0040F 		tst	r3, #4
 575 0012 08D1     		bne	.L57
1488:./Libraries/STM32F10x_StdPeriph_Driver/src/stm32f10x_flash.c ****     { 
1489:./Libraries/STM32F10x_StdPeriph_Driver/src/stm32f10x_flash.c ****       flashstatus = FLASH_ERROR_PG;
1490:./Libraries/STM32F10x_StdPeriph_Driver/src/stm32f10x_flash.c ****     }
1491:./Libraries/STM32F10x_StdPeriph_Driver/src/stm32f10x_flash.c ****     else 
1492:./Libraries/STM32F10x_StdPeriph_Driver/src/stm32f10x_flash.c ****     {
1493:./Libraries/STM32F10x_StdPeriph_Driver/src/stm32f10x_flash.c ****       if((FLASH->SR & FLASH_FLAG_WRPRTERR) != 0 )
 576              		.loc 1 1493 7 is_stmt 1 view .LVU115
 577              		.loc 1 1493 16 is_stmt 0 view .LVU116
 578 0014 064B     		ldr	r3, .L59
 579 0016 DB68     		ldr	r3, [r3, #12]
 580              		.loc 1 1493 9 view .LVU117
 581 0018 13F0100F 		tst	r3, #16
 582 001c 05D0     		beq	.L58
1494:./Libraries/STM32F10x_StdPeriph_Driver/src/stm32f10x_flash.c ****       {
ARM GAS  /tmp/ccV0cNik.s 			page 37


1495:./Libraries/STM32F10x_StdPeriph_Driver/src/stm32f10x_flash.c ****         flashstatus = FLASH_ERROR_WRP;
 583              		.loc 1 1495 21 view .LVU118
 584 001e 0320     		movs	r0, #3
 585 0020 7047     		bx	lr
 586              	.L56:
1483:./Libraries/STM32F10x_StdPeriph_Driver/src/stm32f10x_flash.c ****   }
 587              		.loc 1 1483 17 view .LVU119
 588 0022 0120     		movs	r0, #1
 589 0024 7047     		bx	lr
 590              	.L57:
1489:./Libraries/STM32F10x_StdPeriph_Driver/src/stm32f10x_flash.c ****     }
 591              		.loc 1 1489 19 view .LVU120
 592 0026 0220     		movs	r0, #2
 593 0028 7047     		bx	lr
 594              	.L58:
1496:./Libraries/STM32F10x_StdPeriph_Driver/src/stm32f10x_flash.c ****       }
1497:./Libraries/STM32F10x_StdPeriph_Driver/src/stm32f10x_flash.c ****       else
1498:./Libraries/STM32F10x_StdPeriph_Driver/src/stm32f10x_flash.c ****       {
1499:./Libraries/STM32F10x_StdPeriph_Driver/src/stm32f10x_flash.c ****         flashstatus = FLASH_COMPLETE;
 595              		.loc 1 1499 21 view .LVU121
 596 002a 0420     		movs	r0, #4
 597              	.LVL22:
1500:./Libraries/STM32F10x_StdPeriph_Driver/src/stm32f10x_flash.c ****       }
1501:./Libraries/STM32F10x_StdPeriph_Driver/src/stm32f10x_flash.c ****     }
1502:./Libraries/STM32F10x_StdPeriph_Driver/src/stm32f10x_flash.c ****   }
1503:./Libraries/STM32F10x_StdPeriph_Driver/src/stm32f10x_flash.c ****   /* Return the Flash Status */
1504:./Libraries/STM32F10x_StdPeriph_Driver/src/stm32f10x_flash.c ****   return flashstatus;
 598              		.loc 1 1504 3 is_stmt 1 view .LVU122
1505:./Libraries/STM32F10x_StdPeriph_Driver/src/stm32f10x_flash.c **** }
 599              		.loc 1 1505 1 is_stmt 0 view .LVU123
 600 002c 7047     		bx	lr
 601              	.L60:
 602 002e 00BF     		.align	2
 603              	.L59:
 604 0030 00200240 		.word	1073881088
 605              		.cfi_endproc
 606              	.LFE53:
 608              		.section	.text.FLASH_GetBank1Status,"ax",%progbits
 609              		.align	1
 610              		.global	FLASH_GetBank1Status
 611              		.syntax unified
 612              		.thumb
 613              		.thumb_func
 614              		.fpu softvfp
 616              	FLASH_GetBank1Status:
 617              	.LFB54:
1506:./Libraries/STM32F10x_StdPeriph_Driver/src/stm32f10x_flash.c **** 
1507:./Libraries/STM32F10x_StdPeriph_Driver/src/stm32f10x_flash.c **** /**
1508:./Libraries/STM32F10x_StdPeriph_Driver/src/stm32f10x_flash.c ****   * @brief  Returns the FLASH Bank1 Status.
1509:./Libraries/STM32F10x_StdPeriph_Driver/src/stm32f10x_flash.c ****   * @note   This function can be used for all STM32F10x devices, it is equivalent
1510:./Libraries/STM32F10x_StdPeriph_Driver/src/stm32f10x_flash.c ****   *         to FLASH_GetStatus function.
1511:./Libraries/STM32F10x_StdPeriph_Driver/src/stm32f10x_flash.c ****   * @param  None
1512:./Libraries/STM32F10x_StdPeriph_Driver/src/stm32f10x_flash.c ****   * @retval FLASH Status: The returned value can be: FLASH_BUSY, FLASH_ERROR_PG,
1513:./Libraries/STM32F10x_StdPeriph_Driver/src/stm32f10x_flash.c ****   *         FLASH_ERROR_WRP or FLASH_COMPLETE
1514:./Libraries/STM32F10x_StdPeriph_Driver/src/stm32f10x_flash.c ****   */
1515:./Libraries/STM32F10x_StdPeriph_Driver/src/stm32f10x_flash.c **** FLASH_Status FLASH_GetBank1Status(void)
1516:./Libraries/STM32F10x_StdPeriph_Driver/src/stm32f10x_flash.c **** {
ARM GAS  /tmp/ccV0cNik.s 			page 38


 618              		.loc 1 1516 1 is_stmt 1 view -0
 619              		.cfi_startproc
 620              		@ args = 0, pretend = 0, frame = 0
 621              		@ frame_needed = 0, uses_anonymous_args = 0
 622              		@ link register save eliminated.
1517:./Libraries/STM32F10x_StdPeriph_Driver/src/stm32f10x_flash.c ****   FLASH_Status flashstatus = FLASH_COMPLETE;
 623              		.loc 1 1517 3 view .LVU125
 624              	.LVL23:
1518:./Libraries/STM32F10x_StdPeriph_Driver/src/stm32f10x_flash.c ****   
1519:./Libraries/STM32F10x_StdPeriph_Driver/src/stm32f10x_flash.c ****   if((FLASH->SR & FLASH_FLAG_BANK1_BSY) == FLASH_FLAG_BSY) 
 625              		.loc 1 1519 3 view .LVU126
 626              		.loc 1 1519 12 is_stmt 0 view .LVU127
 627 0000 0B4B     		ldr	r3, .L66
 628 0002 DB68     		ldr	r3, [r3, #12]
 629              		.loc 1 1519 5 view .LVU128
 630 0004 13F0010F 		tst	r3, #1
 631 0008 0BD1     		bne	.L63
1520:./Libraries/STM32F10x_StdPeriph_Driver/src/stm32f10x_flash.c ****   {
1521:./Libraries/STM32F10x_StdPeriph_Driver/src/stm32f10x_flash.c ****     flashstatus = FLASH_BUSY;
1522:./Libraries/STM32F10x_StdPeriph_Driver/src/stm32f10x_flash.c ****   }
1523:./Libraries/STM32F10x_StdPeriph_Driver/src/stm32f10x_flash.c ****   else 
1524:./Libraries/STM32F10x_StdPeriph_Driver/src/stm32f10x_flash.c ****   {  
1525:./Libraries/STM32F10x_StdPeriph_Driver/src/stm32f10x_flash.c ****     if((FLASH->SR & FLASH_FLAG_BANK1_PGERR) != 0)
 632              		.loc 1 1525 5 is_stmt 1 view .LVU129
 633              		.loc 1 1525 14 is_stmt 0 view .LVU130
 634 000a 094B     		ldr	r3, .L66
 635 000c DB68     		ldr	r3, [r3, #12]
 636              		.loc 1 1525 7 view .LVU131
 637 000e 13F0040F 		tst	r3, #4
 638 0012 08D1     		bne	.L64
1526:./Libraries/STM32F10x_StdPeriph_Driver/src/stm32f10x_flash.c ****     { 
1527:./Libraries/STM32F10x_StdPeriph_Driver/src/stm32f10x_flash.c ****       flashstatus = FLASH_ERROR_PG;
1528:./Libraries/STM32F10x_StdPeriph_Driver/src/stm32f10x_flash.c ****     }
1529:./Libraries/STM32F10x_StdPeriph_Driver/src/stm32f10x_flash.c ****     else 
1530:./Libraries/STM32F10x_StdPeriph_Driver/src/stm32f10x_flash.c ****     {
1531:./Libraries/STM32F10x_StdPeriph_Driver/src/stm32f10x_flash.c ****       if((FLASH->SR & FLASH_FLAG_BANK1_WRPRTERR) != 0 )
 639              		.loc 1 1531 7 is_stmt 1 view .LVU132
 640              		.loc 1 1531 16 is_stmt 0 view .LVU133
 641 0014 064B     		ldr	r3, .L66
 642 0016 DB68     		ldr	r3, [r3, #12]
 643              		.loc 1 1531 9 view .LVU134
 644 0018 13F0100F 		tst	r3, #16
 645 001c 05D0     		beq	.L65
1532:./Libraries/STM32F10x_StdPeriph_Driver/src/stm32f10x_flash.c ****       {
1533:./Libraries/STM32F10x_StdPeriph_Driver/src/stm32f10x_flash.c ****         flashstatus = FLASH_ERROR_WRP;
 646              		.loc 1 1533 21 view .LVU135
 647 001e 0320     		movs	r0, #3
 648 0020 7047     		bx	lr
 649              	.L63:
1521:./Libraries/STM32F10x_StdPeriph_Driver/src/stm32f10x_flash.c ****   }
 650              		.loc 1 1521 17 view .LVU136
 651 0022 0120     		movs	r0, #1
 652 0024 7047     		bx	lr
 653              	.L64:
1527:./Libraries/STM32F10x_StdPeriph_Driver/src/stm32f10x_flash.c ****     }
 654              		.loc 1 1527 19 view .LVU137
 655 0026 0220     		movs	r0, #2
ARM GAS  /tmp/ccV0cNik.s 			page 39


 656 0028 7047     		bx	lr
 657              	.L65:
1534:./Libraries/STM32F10x_StdPeriph_Driver/src/stm32f10x_flash.c ****       }
1535:./Libraries/STM32F10x_StdPeriph_Driver/src/stm32f10x_flash.c ****       else
1536:./Libraries/STM32F10x_StdPeriph_Driver/src/stm32f10x_flash.c ****       {
1537:./Libraries/STM32F10x_StdPeriph_Driver/src/stm32f10x_flash.c ****         flashstatus = FLASH_COMPLETE;
 658              		.loc 1 1537 21 view .LVU138
 659 002a 0420     		movs	r0, #4
 660              	.LVL24:
1538:./Libraries/STM32F10x_StdPeriph_Driver/src/stm32f10x_flash.c ****       }
1539:./Libraries/STM32F10x_StdPeriph_Driver/src/stm32f10x_flash.c ****     }
1540:./Libraries/STM32F10x_StdPeriph_Driver/src/stm32f10x_flash.c ****   }
1541:./Libraries/STM32F10x_StdPeriph_Driver/src/stm32f10x_flash.c ****   /* Return the Flash Status */
1542:./Libraries/STM32F10x_StdPeriph_Driver/src/stm32f10x_flash.c ****   return flashstatus;
 661              		.loc 1 1542 3 is_stmt 1 view .LVU139
1543:./Libraries/STM32F10x_StdPeriph_Driver/src/stm32f10x_flash.c **** }
 662              		.loc 1 1543 1 is_stmt 0 view .LVU140
 663 002c 7047     		bx	lr
 664              	.L67:
 665 002e 00BF     		.align	2
 666              	.L66:
 667 0030 00200240 		.word	1073881088
 668              		.cfi_endproc
 669              	.LFE54:
 671              		.section	.text.FLASH_WaitForLastOperation,"ax",%progbits
 672              		.align	1
 673              		.global	FLASH_WaitForLastOperation
 674              		.syntax unified
 675              		.thumb
 676              		.thumb_func
 677              		.fpu softvfp
 679              	FLASH_WaitForLastOperation:
 680              	.LVL25:
 681              	.LFB55:
1544:./Libraries/STM32F10x_StdPeriph_Driver/src/stm32f10x_flash.c **** 
1545:./Libraries/STM32F10x_StdPeriph_Driver/src/stm32f10x_flash.c **** #ifdef STM32F10X_XL
1546:./Libraries/STM32F10x_StdPeriph_Driver/src/stm32f10x_flash.c **** /**
1547:./Libraries/STM32F10x_StdPeriph_Driver/src/stm32f10x_flash.c ****   * @brief  Returns the FLASH Bank2 Status.
1548:./Libraries/STM32F10x_StdPeriph_Driver/src/stm32f10x_flash.c ****   * @note   This function can be used for STM32F10x_XL density devices.
1549:./Libraries/STM32F10x_StdPeriph_Driver/src/stm32f10x_flash.c ****   * @param  None
1550:./Libraries/STM32F10x_StdPeriph_Driver/src/stm32f10x_flash.c ****   * @retval FLASH Status: The returned value can be: FLASH_BUSY, FLASH_ERROR_PG,
1551:./Libraries/STM32F10x_StdPeriph_Driver/src/stm32f10x_flash.c ****   *        FLASH_ERROR_WRP or FLASH_COMPLETE
1552:./Libraries/STM32F10x_StdPeriph_Driver/src/stm32f10x_flash.c ****   */
1553:./Libraries/STM32F10x_StdPeriph_Driver/src/stm32f10x_flash.c **** FLASH_Status FLASH_GetBank2Status(void)
1554:./Libraries/STM32F10x_StdPeriph_Driver/src/stm32f10x_flash.c **** {
1555:./Libraries/STM32F10x_StdPeriph_Driver/src/stm32f10x_flash.c ****   FLASH_Status flashstatus = FLASH_COMPLETE;
1556:./Libraries/STM32F10x_StdPeriph_Driver/src/stm32f10x_flash.c ****   
1557:./Libraries/STM32F10x_StdPeriph_Driver/src/stm32f10x_flash.c ****   if((FLASH->SR2 & (FLASH_FLAG_BANK2_BSY & 0x7FFFFFFF)) == (FLASH_FLAG_BANK2_BSY & 0x7FFFFFFF)) 
1558:./Libraries/STM32F10x_StdPeriph_Driver/src/stm32f10x_flash.c ****   {
1559:./Libraries/STM32F10x_StdPeriph_Driver/src/stm32f10x_flash.c ****     flashstatus = FLASH_BUSY;
1560:./Libraries/STM32F10x_StdPeriph_Driver/src/stm32f10x_flash.c ****   }
1561:./Libraries/STM32F10x_StdPeriph_Driver/src/stm32f10x_flash.c ****   else 
1562:./Libraries/STM32F10x_StdPeriph_Driver/src/stm32f10x_flash.c ****   {  
1563:./Libraries/STM32F10x_StdPeriph_Driver/src/stm32f10x_flash.c ****     if((FLASH->SR2 & (FLASH_FLAG_BANK2_PGERR & 0x7FFFFFFF)) != 0)
1564:./Libraries/STM32F10x_StdPeriph_Driver/src/stm32f10x_flash.c ****     { 
1565:./Libraries/STM32F10x_StdPeriph_Driver/src/stm32f10x_flash.c ****       flashstatus = FLASH_ERROR_PG;
1566:./Libraries/STM32F10x_StdPeriph_Driver/src/stm32f10x_flash.c ****     }
ARM GAS  /tmp/ccV0cNik.s 			page 40


1567:./Libraries/STM32F10x_StdPeriph_Driver/src/stm32f10x_flash.c ****     else 
1568:./Libraries/STM32F10x_StdPeriph_Driver/src/stm32f10x_flash.c ****     {
1569:./Libraries/STM32F10x_StdPeriph_Driver/src/stm32f10x_flash.c ****       if((FLASH->SR2 & (FLASH_FLAG_BANK2_WRPRTERR & 0x7FFFFFFF)) != 0 )
1570:./Libraries/STM32F10x_StdPeriph_Driver/src/stm32f10x_flash.c ****       {
1571:./Libraries/STM32F10x_StdPeriph_Driver/src/stm32f10x_flash.c ****         flashstatus = FLASH_ERROR_WRP;
1572:./Libraries/STM32F10x_StdPeriph_Driver/src/stm32f10x_flash.c ****       }
1573:./Libraries/STM32F10x_StdPeriph_Driver/src/stm32f10x_flash.c ****       else
1574:./Libraries/STM32F10x_StdPeriph_Driver/src/stm32f10x_flash.c ****       {
1575:./Libraries/STM32F10x_StdPeriph_Driver/src/stm32f10x_flash.c ****         flashstatus = FLASH_COMPLETE;
1576:./Libraries/STM32F10x_StdPeriph_Driver/src/stm32f10x_flash.c ****       }
1577:./Libraries/STM32F10x_StdPeriph_Driver/src/stm32f10x_flash.c ****     }
1578:./Libraries/STM32F10x_StdPeriph_Driver/src/stm32f10x_flash.c ****   }
1579:./Libraries/STM32F10x_StdPeriph_Driver/src/stm32f10x_flash.c ****   /* Return the Flash Status */
1580:./Libraries/STM32F10x_StdPeriph_Driver/src/stm32f10x_flash.c ****   return flashstatus;
1581:./Libraries/STM32F10x_StdPeriph_Driver/src/stm32f10x_flash.c **** }
1582:./Libraries/STM32F10x_StdPeriph_Driver/src/stm32f10x_flash.c **** #endif /* STM32F10X_XL */
1583:./Libraries/STM32F10x_StdPeriph_Driver/src/stm32f10x_flash.c **** /**
1584:./Libraries/STM32F10x_StdPeriph_Driver/src/stm32f10x_flash.c ****   * @brief  Waits for a Flash operation to complete or a TIMEOUT to occur.
1585:./Libraries/STM32F10x_StdPeriph_Driver/src/stm32f10x_flash.c ****   * @note   This function can be used for all STM32F10x devices, 
1586:./Libraries/STM32F10x_StdPeriph_Driver/src/stm32f10x_flash.c ****   *         it is equivalent to FLASH_WaitForLastBank1Operation.
1587:./Libraries/STM32F10x_StdPeriph_Driver/src/stm32f10x_flash.c ****   *         - For STM32F10X_XL devices this function waits for a Bank1 Flash operation
1588:./Libraries/STM32F10x_StdPeriph_Driver/src/stm32f10x_flash.c ****   *           to complete or a TIMEOUT to occur.
1589:./Libraries/STM32F10x_StdPeriph_Driver/src/stm32f10x_flash.c ****   *         - For all other devices it waits for a Flash operation to complete 
1590:./Libraries/STM32F10x_StdPeriph_Driver/src/stm32f10x_flash.c ****   *           or a TIMEOUT to occur.
1591:./Libraries/STM32F10x_StdPeriph_Driver/src/stm32f10x_flash.c ****   * @param  Timeout: FLASH programming Timeout
1592:./Libraries/STM32F10x_StdPeriph_Driver/src/stm32f10x_flash.c ****   * @retval FLASH Status: The returned value can be: FLASH_ERROR_PG,
1593:./Libraries/STM32F10x_StdPeriph_Driver/src/stm32f10x_flash.c ****   *         FLASH_ERROR_WRP, FLASH_COMPLETE or FLASH_TIMEOUT.
1594:./Libraries/STM32F10x_StdPeriph_Driver/src/stm32f10x_flash.c ****   */
1595:./Libraries/STM32F10x_StdPeriph_Driver/src/stm32f10x_flash.c **** FLASH_Status FLASH_WaitForLastOperation(uint32_t Timeout)
1596:./Libraries/STM32F10x_StdPeriph_Driver/src/stm32f10x_flash.c **** { 
 682              		.loc 1 1596 1 is_stmt 1 view -0
 683              		.cfi_startproc
 684              		@ args = 0, pretend = 0, frame = 0
 685              		@ frame_needed = 0, uses_anonymous_args = 0
 686              		.loc 1 1596 1 is_stmt 0 view .LVU142
 687 0000 10B5     		push	{r4, lr}
 688              	.LCFI0:
 689              		.cfi_def_cfa_offset 8
 690              		.cfi_offset 4, -8
 691              		.cfi_offset 14, -4
 692 0002 0446     		mov	r4, r0
1597:./Libraries/STM32F10x_StdPeriph_Driver/src/stm32f10x_flash.c ****   FLASH_Status status = FLASH_COMPLETE;
 693              		.loc 1 1597 3 is_stmt 1 view .LVU143
 694              	.LVL26:
1598:./Libraries/STM32F10x_StdPeriph_Driver/src/stm32f10x_flash.c ****    
1599:./Libraries/STM32F10x_StdPeriph_Driver/src/stm32f10x_flash.c ****   /* Check for the Flash Status */
1600:./Libraries/STM32F10x_StdPeriph_Driver/src/stm32f10x_flash.c ****   status = FLASH_GetBank1Status();
 695              		.loc 1 1600 3 view .LVU144
 696              		.loc 1 1600 12 is_stmt 0 view .LVU145
 697 0004 FFF7FEFF 		bl	FLASH_GetBank1Status
 698              	.LVL27:
1601:./Libraries/STM32F10x_StdPeriph_Driver/src/stm32f10x_flash.c ****   /* Wait for a Flash operation to complete or a TIMEOUT to occur */
1602:./Libraries/STM32F10x_StdPeriph_Driver/src/stm32f10x_flash.c ****   while((status == FLASH_BUSY) && (Timeout != 0x00))
 699              		.loc 1 1602 3 is_stmt 1 view .LVU146
 700              		.loc 1 1602 8 is_stmt 0 view .LVU147
 701 0008 02E0     		b	.L69
 702              	.L71:
ARM GAS  /tmp/ccV0cNik.s 			page 41


1603:./Libraries/STM32F10x_StdPeriph_Driver/src/stm32f10x_flash.c ****   {
1604:./Libraries/STM32F10x_StdPeriph_Driver/src/stm32f10x_flash.c ****     status = FLASH_GetBank1Status();
 703              		.loc 1 1604 5 is_stmt 1 view .LVU148
 704              		.loc 1 1604 14 is_stmt 0 view .LVU149
 705 000a FFF7FEFF 		bl	FLASH_GetBank1Status
 706              	.LVL28:
1605:./Libraries/STM32F10x_StdPeriph_Driver/src/stm32f10x_flash.c ****     Timeout--;
 707              		.loc 1 1605 5 is_stmt 1 view .LVU150
 708              		.loc 1 1605 12 is_stmt 0 view .LVU151
 709 000e 013C     		subs	r4, r4, #1
 710              	.LVL29:
 711              	.L69:
1602:./Libraries/STM32F10x_StdPeriph_Driver/src/stm32f10x_flash.c ****   {
 712              		.loc 1 1602 8 is_stmt 1 view .LVU152
 713 0010 0128     		cmp	r0, #1
 714 0012 01D1     		bne	.L70
1602:./Libraries/STM32F10x_StdPeriph_Driver/src/stm32f10x_flash.c ****   {
 715              		.loc 1 1602 32 is_stmt 0 discriminator 1 view .LVU153
 716 0014 002C     		cmp	r4, #0
 717 0016 F8D1     		bne	.L71
 718              	.L70:
1606:./Libraries/STM32F10x_StdPeriph_Driver/src/stm32f10x_flash.c ****   }
1607:./Libraries/STM32F10x_StdPeriph_Driver/src/stm32f10x_flash.c ****   if(Timeout == 0x00 )
 719              		.loc 1 1607 3 is_stmt 1 view .LVU154
 720              		.loc 1 1607 5 is_stmt 0 view .LVU155
 721 0018 04B1     		cbz	r4, .L75
 722              	.LVL30:
 723              	.L72:
1608:./Libraries/STM32F10x_StdPeriph_Driver/src/stm32f10x_flash.c ****   {
1609:./Libraries/STM32F10x_StdPeriph_Driver/src/stm32f10x_flash.c ****     status = FLASH_TIMEOUT;
1610:./Libraries/STM32F10x_StdPeriph_Driver/src/stm32f10x_flash.c ****   }
1611:./Libraries/STM32F10x_StdPeriph_Driver/src/stm32f10x_flash.c ****   /* Return the operation status */
1612:./Libraries/STM32F10x_StdPeriph_Driver/src/stm32f10x_flash.c ****   return status;
 724              		.loc 1 1612 3 is_stmt 1 view .LVU156
1613:./Libraries/STM32F10x_StdPeriph_Driver/src/stm32f10x_flash.c **** }
 725              		.loc 1 1613 1 is_stmt 0 view .LVU157
 726 001a 10BD     		pop	{r4, pc}
 727              	.LVL31:
 728              	.L75:
1609:./Libraries/STM32F10x_StdPeriph_Driver/src/stm32f10x_flash.c ****   }
 729              		.loc 1 1609 12 view .LVU158
 730 001c 0520     		movs	r0, #5
 731              	.LVL32:
1609:./Libraries/STM32F10x_StdPeriph_Driver/src/stm32f10x_flash.c ****   }
 732              		.loc 1 1609 12 view .LVU159
 733 001e FCE7     		b	.L72
 734              		.cfi_endproc
 735              	.LFE55:
 737              		.section	.text.FLASH_ErasePage,"ax",%progbits
 738              		.align	1
 739              		.global	FLASH_ErasePage
 740              		.syntax unified
 741              		.thumb
 742              		.thumb_func
 743              		.fpu softvfp
 745              	FLASH_ErasePage:
 746              	.LVL33:
ARM GAS  /tmp/ccV0cNik.s 			page 42


 747              	.LFB36:
 420:./Libraries/STM32F10x_StdPeriph_Driver/src/stm32f10x_flash.c ****   FLASH_Status status = FLASH_COMPLETE;
 748              		.loc 1 420 1 is_stmt 1 view -0
 749              		.cfi_startproc
 750              		@ args = 0, pretend = 0, frame = 0
 751              		@ frame_needed = 0, uses_anonymous_args = 0
 420:./Libraries/STM32F10x_StdPeriph_Driver/src/stm32f10x_flash.c ****   FLASH_Status status = FLASH_COMPLETE;
 752              		.loc 1 420 1 is_stmt 0 view .LVU161
 753 0000 38B5     		push	{r3, r4, r5, lr}
 754              	.LCFI1:
 755              		.cfi_def_cfa_offset 16
 756              		.cfi_offset 3, -16
 757              		.cfi_offset 4, -12
 758              		.cfi_offset 5, -8
 759              		.cfi_offset 14, -4
 760 0002 0446     		mov	r4, r0
 421:./Libraries/STM32F10x_StdPeriph_Driver/src/stm32f10x_flash.c ****   /* Check the parameters */
 761              		.loc 1 421 3 is_stmt 1 view .LVU162
 762              	.LVL34:
 423:./Libraries/STM32F10x_StdPeriph_Driver/src/stm32f10x_flash.c **** 
 763              		.loc 1 423 3 view .LVU163
 464:./Libraries/STM32F10x_StdPeriph_Driver/src/stm32f10x_flash.c ****   
 764              		.loc 1 464 3 view .LVU164
 464:./Libraries/STM32F10x_StdPeriph_Driver/src/stm32f10x_flash.c ****   
 765              		.loc 1 464 12 is_stmt 0 view .LVU165
 766 0004 4FF43020 		mov	r0, #720896
 767              	.LVL35:
 464:./Libraries/STM32F10x_StdPeriph_Driver/src/stm32f10x_flash.c ****   
 768              		.loc 1 464 12 view .LVU166
 769 0008 FFF7FEFF 		bl	FLASH_WaitForLastOperation
 770              	.LVL36:
 466:./Libraries/STM32F10x_StdPeriph_Driver/src/stm32f10x_flash.c ****   { 
 771              		.loc 1 466 3 is_stmt 1 view .LVU167
 466:./Libraries/STM32F10x_StdPeriph_Driver/src/stm32f10x_flash.c ****   { 
 772              		.loc 1 466 5 is_stmt 0 view .LVU168
 773 000c 0428     		cmp	r0, #4
 774 000e 00D0     		beq	.L79
 775              	.L77:
 482:./Libraries/STM32F10x_StdPeriph_Driver/src/stm32f10x_flash.c **** }
 776              		.loc 1 482 3 is_stmt 1 view .LVU169
 483:./Libraries/STM32F10x_StdPeriph_Driver/src/stm32f10x_flash.c **** 
 777              		.loc 1 483 1 is_stmt 0 view .LVU170
 778 0010 38BD     		pop	{r3, r4, r5, pc}
 779              	.LVL37:
 780              	.L79:
 469:./Libraries/STM32F10x_StdPeriph_Driver/src/stm32f10x_flash.c ****     FLASH->AR = Page_Address; 
 781              		.loc 1 469 5 is_stmt 1 view .LVU171
 469:./Libraries/STM32F10x_StdPeriph_Driver/src/stm32f10x_flash.c ****     FLASH->AR = Page_Address; 
 782              		.loc 1 469 14 is_stmt 0 view .LVU172
 783 0012 0A4D     		ldr	r5, .L80
 784 0014 2B69     		ldr	r3, [r5, #16]
 785 0016 43F00203 		orr	r3, r3, #2
 786 001a 2B61     		str	r3, [r5, #16]
 470:./Libraries/STM32F10x_StdPeriph_Driver/src/stm32f10x_flash.c ****     FLASH->CR|= CR_STRT_Set;
 787              		.loc 1 470 5 is_stmt 1 view .LVU173
 470:./Libraries/STM32F10x_StdPeriph_Driver/src/stm32f10x_flash.c ****     FLASH->CR|= CR_STRT_Set;
 788              		.loc 1 470 15 is_stmt 0 view .LVU174
ARM GAS  /tmp/ccV0cNik.s 			page 43


 789 001c 6C61     		str	r4, [r5, #20]
 471:./Libraries/STM32F10x_StdPeriph_Driver/src/stm32f10x_flash.c ****     
 790              		.loc 1 471 5 is_stmt 1 view .LVU175
 471:./Libraries/STM32F10x_StdPeriph_Driver/src/stm32f10x_flash.c ****     
 791              		.loc 1 471 14 is_stmt 0 view .LVU176
 792 001e 2B69     		ldr	r3, [r5, #16]
 793 0020 43F04003 		orr	r3, r3, #64
 794 0024 2B61     		str	r3, [r5, #16]
 474:./Libraries/STM32F10x_StdPeriph_Driver/src/stm32f10x_flash.c ****     
 795              		.loc 1 474 5 is_stmt 1 view .LVU177
 474:./Libraries/STM32F10x_StdPeriph_Driver/src/stm32f10x_flash.c ****     
 796              		.loc 1 474 14 is_stmt 0 view .LVU178
 797 0026 4FF43020 		mov	r0, #720896
 798              	.LVL38:
 474:./Libraries/STM32F10x_StdPeriph_Driver/src/stm32f10x_flash.c ****     
 799              		.loc 1 474 14 view .LVU179
 800 002a FFF7FEFF 		bl	FLASH_WaitForLastOperation
 801              	.LVL39:
 477:./Libraries/STM32F10x_StdPeriph_Driver/src/stm32f10x_flash.c ****   }
 802              		.loc 1 477 5 is_stmt 1 view .LVU180
 477:./Libraries/STM32F10x_StdPeriph_Driver/src/stm32f10x_flash.c ****   }
 803              		.loc 1 477 15 is_stmt 0 view .LVU181
 804 002e 2B69     		ldr	r3, [r5, #16]
 805 0030 23F00203 		bic	r3, r3, #2
 806 0034 DB04     		lsls	r3, r3, #19
 807 0036 DB0C     		lsrs	r3, r3, #19
 808 0038 2B61     		str	r3, [r5, #16]
 809 003a E9E7     		b	.L77
 810              	.L81:
 811              		.align	2
 812              	.L80:
 813 003c 00200240 		.word	1073881088
 814              		.cfi_endproc
 815              	.LFE36:
 817              		.section	.text.FLASH_EraseAllPages,"ax",%progbits
 818              		.align	1
 819              		.global	FLASH_EraseAllPages
 820              		.syntax unified
 821              		.thumb
 822              		.thumb_func
 823              		.fpu softvfp
 825              	FLASH_EraseAllPages:
 826              	.LFB37:
 493:./Libraries/STM32F10x_StdPeriph_Driver/src/stm32f10x_flash.c ****   FLASH_Status status = FLASH_COMPLETE;
 827              		.loc 1 493 1 is_stmt 1 view -0
 828              		.cfi_startproc
 829              		@ args = 0, pretend = 0, frame = 0
 830              		@ frame_needed = 0, uses_anonymous_args = 0
 831 0000 10B5     		push	{r4, lr}
 832              	.LCFI2:
 833              		.cfi_def_cfa_offset 8
 834              		.cfi_offset 4, -8
 835              		.cfi_offset 14, -4
 494:./Libraries/STM32F10x_StdPeriph_Driver/src/stm32f10x_flash.c **** 
 836              		.loc 1 494 3 view .LVU183
 837              	.LVL40:
 526:./Libraries/STM32F10x_StdPeriph_Driver/src/stm32f10x_flash.c ****   if(status == FLASH_COMPLETE)
ARM GAS  /tmp/ccV0cNik.s 			page 44


 838              		.loc 1 526 3 view .LVU184
 526:./Libraries/STM32F10x_StdPeriph_Driver/src/stm32f10x_flash.c ****   if(status == FLASH_COMPLETE)
 839              		.loc 1 526 12 is_stmt 0 view .LVU185
 840 0002 4FF43020 		mov	r0, #720896
 841 0006 FFF7FEFF 		bl	FLASH_WaitForLastOperation
 842              	.LVL41:
 527:./Libraries/STM32F10x_StdPeriph_Driver/src/stm32f10x_flash.c ****   {
 843              		.loc 1 527 3 is_stmt 1 view .LVU186
 527:./Libraries/STM32F10x_StdPeriph_Driver/src/stm32f10x_flash.c ****   {
 844              		.loc 1 527 5 is_stmt 0 view .LVU187
 845 000a 0428     		cmp	r0, #4
 846 000c 00D0     		beq	.L85
 847              	.L83:
 542:./Libraries/STM32F10x_StdPeriph_Driver/src/stm32f10x_flash.c **** }
 848              		.loc 1 542 3 is_stmt 1 view .LVU188
 543:./Libraries/STM32F10x_StdPeriph_Driver/src/stm32f10x_flash.c **** 
 849              		.loc 1 543 1 is_stmt 0 view .LVU189
 850 000e 10BD     		pop	{r4, pc}
 851              	.L85:
 530:./Libraries/STM32F10x_StdPeriph_Driver/src/stm32f10x_flash.c ****      FLASH->CR |= CR_STRT_Set;
 852              		.loc 1 530 6 is_stmt 1 view .LVU190
 530:./Libraries/STM32F10x_StdPeriph_Driver/src/stm32f10x_flash.c ****      FLASH->CR |= CR_STRT_Set;
 853              		.loc 1 530 16 is_stmt 0 view .LVU191
 854 0010 094C     		ldr	r4, .L86
 855 0012 2369     		ldr	r3, [r4, #16]
 856 0014 43F00403 		orr	r3, r3, #4
 857 0018 2361     		str	r3, [r4, #16]
 531:./Libraries/STM32F10x_StdPeriph_Driver/src/stm32f10x_flash.c ****     
 858              		.loc 1 531 6 is_stmt 1 view .LVU192
 531:./Libraries/STM32F10x_StdPeriph_Driver/src/stm32f10x_flash.c ****     
 859              		.loc 1 531 16 is_stmt 0 view .LVU193
 860 001a 2369     		ldr	r3, [r4, #16]
 861 001c 43F04003 		orr	r3, r3, #64
 862 0020 2361     		str	r3, [r4, #16]
 534:./Libraries/STM32F10x_StdPeriph_Driver/src/stm32f10x_flash.c **** 
 863              		.loc 1 534 5 is_stmt 1 view .LVU194
 534:./Libraries/STM32F10x_StdPeriph_Driver/src/stm32f10x_flash.c **** 
 864              		.loc 1 534 14 is_stmt 0 view .LVU195
 865 0022 4FF43020 		mov	r0, #720896
 866              	.LVL42:
 534:./Libraries/STM32F10x_StdPeriph_Driver/src/stm32f10x_flash.c **** 
 867              		.loc 1 534 14 view .LVU196
 868 0026 FFF7FEFF 		bl	FLASH_WaitForLastOperation
 869              	.LVL43:
 537:./Libraries/STM32F10x_StdPeriph_Driver/src/stm32f10x_flash.c ****   }
 870              		.loc 1 537 5 is_stmt 1 view .LVU197
 537:./Libraries/STM32F10x_StdPeriph_Driver/src/stm32f10x_flash.c ****   }
 871              		.loc 1 537 15 is_stmt 0 view .LVU198
 872 002a 2369     		ldr	r3, [r4, #16]
 873 002c 23F00403 		bic	r3, r3, #4
 874 0030 DB04     		lsls	r3, r3, #19
 875 0032 DB0C     		lsrs	r3, r3, #19
 876 0034 2361     		str	r3, [r4, #16]
 877 0036 EAE7     		b	.L83
 878              	.L87:
 879              		.align	2
 880              	.L86:
ARM GAS  /tmp/ccV0cNik.s 			page 45


 881 0038 00200240 		.word	1073881088
 882              		.cfi_endproc
 883              	.LFE37:
 885              		.section	.text.FLASH_EraseOptionBytes,"ax",%progbits
 886              		.align	1
 887              		.global	FLASH_EraseOptionBytes
 888              		.syntax unified
 889              		.thumb
 890              		.thumb_func
 891              		.fpu softvfp
 893              	FLASH_EraseOptionBytes:
 894              	.LFB39:
 617:./Libraries/STM32F10x_StdPeriph_Driver/src/stm32f10x_flash.c ****   uint16_t rdptmp = RDP_Key;
 895              		.loc 1 617 1 is_stmt 1 view -0
 896              		.cfi_startproc
 897              		@ args = 0, pretend = 0, frame = 0
 898              		@ frame_needed = 0, uses_anonymous_args = 0
 899 0000 10B5     		push	{r4, lr}
 900              	.LCFI3:
 901              		.cfi_def_cfa_offset 8
 902              		.cfi_offset 4, -8
 903              		.cfi_offset 14, -4
 618:./Libraries/STM32F10x_StdPeriph_Driver/src/stm32f10x_flash.c **** 
 904              		.loc 1 618 3 view .LVU200
 905              	.LVL44:
 620:./Libraries/STM32F10x_StdPeriph_Driver/src/stm32f10x_flash.c **** 
 906              		.loc 1 620 3 view .LVU201
 623:./Libraries/STM32F10x_StdPeriph_Driver/src/stm32f10x_flash.c ****   {
 907              		.loc 1 623 3 view .LVU202
 623:./Libraries/STM32F10x_StdPeriph_Driver/src/stm32f10x_flash.c ****   {
 908              		.loc 1 623 6 is_stmt 0 view .LVU203
 909 0002 FFF7FEFF 		bl	FLASH_GetReadOutProtectionStatus
 910              	.LVL45:
 623:./Libraries/STM32F10x_StdPeriph_Driver/src/stm32f10x_flash.c ****   {
 911              		.loc 1 623 5 view .LVU204
 912 0006 38B9     		cbnz	r0, .L92
 618:./Libraries/STM32F10x_StdPeriph_Driver/src/stm32f10x_flash.c **** 
 913              		.loc 1 618 12 view .LVU205
 914 0008 A524     		movs	r4, #165
 915              	.L89:
 916              	.LVL46:
 629:./Libraries/STM32F10x_StdPeriph_Driver/src/stm32f10x_flash.c ****   if(status == FLASH_COMPLETE)
 917              		.loc 1 629 3 is_stmt 1 view .LVU206
 629:./Libraries/STM32F10x_StdPeriph_Driver/src/stm32f10x_flash.c ****   if(status == FLASH_COMPLETE)
 918              		.loc 1 629 12 is_stmt 0 view .LVU207
 919 000a 4FF43020 		mov	r0, #720896
 920 000e FFF7FEFF 		bl	FLASH_WaitForLastOperation
 921              	.LVL47:
 630:./Libraries/STM32F10x_StdPeriph_Driver/src/stm32f10x_flash.c ****   {
 922              		.loc 1 630 3 is_stmt 1 view .LVU208
 630:./Libraries/STM32F10x_StdPeriph_Driver/src/stm32f10x_flash.c ****   {
 923              		.loc 1 630 5 is_stmt 0 view .LVU209
 924 0012 0428     		cmp	r0, #4
 925 0014 02D0     		beq	.L94
 926              	.L90:
 670:./Libraries/STM32F10x_StdPeriph_Driver/src/stm32f10x_flash.c **** }
 927              		.loc 1 670 3 is_stmt 1 view .LVU210
ARM GAS  /tmp/ccV0cNik.s 			page 46


 671:./Libraries/STM32F10x_StdPeriph_Driver/src/stm32f10x_flash.c **** 
 928              		.loc 1 671 1 is_stmt 0 view .LVU211
 929 0016 10BD     		pop	{r4, pc}
 930              	.LVL48:
 931              	.L92:
 625:./Libraries/STM32F10x_StdPeriph_Driver/src/stm32f10x_flash.c ****   }
 932              		.loc 1 625 12 view .LVU212
 933 0018 0024     		movs	r4, #0
 934 001a F6E7     		b	.L89
 935              	.LVL49:
 936              	.L94:
 633:./Libraries/STM32F10x_StdPeriph_Driver/src/stm32f10x_flash.c ****     FLASH->OPTKEYR = FLASH_KEY2;
 937              		.loc 1 633 5 is_stmt 1 view .LVU213
 633:./Libraries/STM32F10x_StdPeriph_Driver/src/stm32f10x_flash.c ****     FLASH->OPTKEYR = FLASH_KEY2;
 938              		.loc 1 633 20 is_stmt 0 view .LVU214
 939 001c 1C4B     		ldr	r3, .L96
 940 001e 1D4A     		ldr	r2, .L96+4
 941 0020 9A60     		str	r2, [r3, #8]
 634:./Libraries/STM32F10x_StdPeriph_Driver/src/stm32f10x_flash.c ****     
 942              		.loc 1 634 5 is_stmt 1 view .LVU215
 634:./Libraries/STM32F10x_StdPeriph_Driver/src/stm32f10x_flash.c ****     
 943              		.loc 1 634 20 is_stmt 0 view .LVU216
 944 0022 02F18832 		add	r2, r2, #-2004318072
 945 0026 9A60     		str	r2, [r3, #8]
 637:./Libraries/STM32F10x_StdPeriph_Driver/src/stm32f10x_flash.c ****     FLASH->CR |= CR_STRT_Set;
 946              		.loc 1 637 5 is_stmt 1 view .LVU217
 637:./Libraries/STM32F10x_StdPeriph_Driver/src/stm32f10x_flash.c ****     FLASH->CR |= CR_STRT_Set;
 947              		.loc 1 637 15 is_stmt 0 view .LVU218
 948 0028 1A69     		ldr	r2, [r3, #16]
 949 002a 42F02002 		orr	r2, r2, #32
 950 002e 1A61     		str	r2, [r3, #16]
 638:./Libraries/STM32F10x_StdPeriph_Driver/src/stm32f10x_flash.c ****     /* Wait for last operation to be completed */
 951              		.loc 1 638 5 is_stmt 1 view .LVU219
 638:./Libraries/STM32F10x_StdPeriph_Driver/src/stm32f10x_flash.c ****     /* Wait for last operation to be completed */
 952              		.loc 1 638 15 is_stmt 0 view .LVU220
 953 0030 1A69     		ldr	r2, [r3, #16]
 954 0032 42F04002 		orr	r2, r2, #64
 955 0036 1A61     		str	r2, [r3, #16]
 640:./Libraries/STM32F10x_StdPeriph_Driver/src/stm32f10x_flash.c ****     
 956              		.loc 1 640 5 is_stmt 1 view .LVU221
 640:./Libraries/STM32F10x_StdPeriph_Driver/src/stm32f10x_flash.c ****     
 957              		.loc 1 640 14 is_stmt 0 view .LVU222
 958 0038 4FF43020 		mov	r0, #720896
 959              	.LVL50:
 640:./Libraries/STM32F10x_StdPeriph_Driver/src/stm32f10x_flash.c ****     
 960              		.loc 1 640 14 view .LVU223
 961 003c FFF7FEFF 		bl	FLASH_WaitForLastOperation
 962              	.LVL51:
 642:./Libraries/STM32F10x_StdPeriph_Driver/src/stm32f10x_flash.c ****     {
 963              		.loc 1 642 5 is_stmt 1 view .LVU224
 642:./Libraries/STM32F10x_StdPeriph_Driver/src/stm32f10x_flash.c ****     {
 964              		.loc 1 642 7 is_stmt 0 view .LVU225
 965 0040 0428     		cmp	r0, #4
 966 0042 09D0     		beq	.L95
 662:./Libraries/STM32F10x_StdPeriph_Driver/src/stm32f10x_flash.c ****       {
 967              		.loc 1 662 7 is_stmt 1 view .LVU226
 662:./Libraries/STM32F10x_StdPeriph_Driver/src/stm32f10x_flash.c ****       {
ARM GAS  /tmp/ccV0cNik.s 			page 47


 968              		.loc 1 662 10 is_stmt 0 view .LVU227
 969 0044 0528     		cmp	r0, #5
 970 0046 E6D0     		beq	.L90
 665:./Libraries/STM32F10x_StdPeriph_Driver/src/stm32f10x_flash.c ****       }
 971              		.loc 1 665 9 is_stmt 1 view .LVU228
 665:./Libraries/STM32F10x_StdPeriph_Driver/src/stm32f10x_flash.c ****       }
 972              		.loc 1 665 19 is_stmt 0 view .LVU229
 973 0048 114A     		ldr	r2, .L96
 974 004a 1369     		ldr	r3, [r2, #16]
 975 004c 23F01003 		bic	r3, r3, #16
 976 0050 DB04     		lsls	r3, r3, #19
 977 0052 DB0C     		lsrs	r3, r3, #19
 978 0054 1361     		str	r3, [r2, #16]
 979 0056 DEE7     		b	.L90
 980              	.L95:
 645:./Libraries/STM32F10x_StdPeriph_Driver/src/stm32f10x_flash.c ****        
 981              		.loc 1 645 7 is_stmt 1 view .LVU230
 645:./Libraries/STM32F10x_StdPeriph_Driver/src/stm32f10x_flash.c ****        
 982              		.loc 1 645 17 is_stmt 0 view .LVU231
 983 0058 0D4B     		ldr	r3, .L96
 984 005a 1A69     		ldr	r2, [r3, #16]
 985 005c 22F02002 		bic	r2, r2, #32
 986 0060 D204     		lsls	r2, r2, #19
 987 0062 D20C     		lsrs	r2, r2, #19
 988 0064 1A61     		str	r2, [r3, #16]
 648:./Libraries/STM32F10x_StdPeriph_Driver/src/stm32f10x_flash.c ****       /* Restore the last read protection Option Byte value */
 989              		.loc 1 648 7 is_stmt 1 view .LVU232
 648:./Libraries/STM32F10x_StdPeriph_Driver/src/stm32f10x_flash.c ****       /* Restore the last read protection Option Byte value */
 990              		.loc 1 648 17 is_stmt 0 view .LVU233
 991 0066 1A69     		ldr	r2, [r3, #16]
 992 0068 42F01002 		orr	r2, r2, #16
 993 006c 1A61     		str	r2, [r3, #16]
 650:./Libraries/STM32F10x_StdPeriph_Driver/src/stm32f10x_flash.c ****       /* Wait for last operation to be completed */
 994              		.loc 1 650 7 is_stmt 1 view .LVU234
 650:./Libraries/STM32F10x_StdPeriph_Driver/src/stm32f10x_flash.c ****       /* Wait for last operation to be completed */
 995              		.loc 1 650 15 is_stmt 0 view .LVU235
 996 006e 0A4B     		ldr	r3, .L96+8
 997 0070 1C80     		strh	r4, [r3]	@ movhi
 652:./Libraries/STM32F10x_StdPeriph_Driver/src/stm32f10x_flash.c ****  
 998              		.loc 1 652 7 is_stmt 1 view .LVU236
 652:./Libraries/STM32F10x_StdPeriph_Driver/src/stm32f10x_flash.c ****  
 999              		.loc 1 652 16 is_stmt 0 view .LVU237
 1000 0072 4FF40050 		mov	r0, #8192
 1001              	.LVL52:
 652:./Libraries/STM32F10x_StdPeriph_Driver/src/stm32f10x_flash.c ****  
 1002              		.loc 1 652 16 view .LVU238
 1003 0076 FFF7FEFF 		bl	FLASH_WaitForLastOperation
 1004              	.LVL53:
 654:./Libraries/STM32F10x_StdPeriph_Driver/src/stm32f10x_flash.c ****       {
 1005              		.loc 1 654 7 is_stmt 1 view .LVU239
 654:./Libraries/STM32F10x_StdPeriph_Driver/src/stm32f10x_flash.c ****       {
 1006              		.loc 1 654 9 is_stmt 0 view .LVU240
 1007 007a 0528     		cmp	r0, #5
 1008 007c CBD0     		beq	.L90
 657:./Libraries/STM32F10x_StdPeriph_Driver/src/stm32f10x_flash.c ****       }
 1009              		.loc 1 657 9 is_stmt 1 view .LVU241
 657:./Libraries/STM32F10x_StdPeriph_Driver/src/stm32f10x_flash.c ****       }
ARM GAS  /tmp/ccV0cNik.s 			page 48


 1010              		.loc 1 657 19 is_stmt 0 view .LVU242
 1011 007e 044A     		ldr	r2, .L96
 1012 0080 1369     		ldr	r3, [r2, #16]
 1013 0082 23F01003 		bic	r3, r3, #16
 1014 0086 DB04     		lsls	r3, r3, #19
 1015 0088 DB0C     		lsrs	r3, r3, #19
 1016 008a 1361     		str	r3, [r2, #16]
 1017 008c C3E7     		b	.L90
 1018              	.L97:
 1019 008e 00BF     		.align	2
 1020              	.L96:
 1021 0090 00200240 		.word	1073881088
 1022 0094 23016745 		.word	1164378403
 1023 0098 00F8FF1F 		.word	536868864
 1024              		.cfi_endproc
 1025              	.LFE39:
 1027              		.section	.text.FLASH_ProgramWord,"ax",%progbits
 1028              		.align	1
 1029              		.global	FLASH_ProgramWord
 1030              		.syntax unified
 1031              		.thumb
 1032              		.thumb_func
 1033              		.fpu softvfp
 1035              	FLASH_ProgramWord:
 1036              	.LVL54:
 1037              	.LFB40:
 682:./Libraries/STM32F10x_StdPeriph_Driver/src/stm32f10x_flash.c ****   FLASH_Status status = FLASH_COMPLETE;
 1038              		.loc 1 682 1 is_stmt 1 view -0
 1039              		.cfi_startproc
 1040              		@ args = 0, pretend = 0, frame = 8
 1041              		@ frame_needed = 0, uses_anonymous_args = 0
 682:./Libraries/STM32F10x_StdPeriph_Driver/src/stm32f10x_flash.c ****   FLASH_Status status = FLASH_COMPLETE;
 1042              		.loc 1 682 1 is_stmt 0 view .LVU244
 1043 0000 30B5     		push	{r4, r5, lr}
 1044              	.LCFI4:
 1045              		.cfi_def_cfa_offset 12
 1046              		.cfi_offset 4, -12
 1047              		.cfi_offset 5, -8
 1048              		.cfi_offset 14, -4
 1049 0002 83B0     		sub	sp, sp, #12
 1050              	.LCFI5:
 1051              		.cfi_def_cfa_offset 24
 1052 0004 0546     		mov	r5, r0
 1053 0006 0C46     		mov	r4, r1
 683:./Libraries/STM32F10x_StdPeriph_Driver/src/stm32f10x_flash.c ****   __IO uint32_t tmp = 0;
 1054              		.loc 1 683 3 is_stmt 1 view .LVU245
 1055              	.LVL55:
 684:./Libraries/STM32F10x_StdPeriph_Driver/src/stm32f10x_flash.c **** 
 1056              		.loc 1 684 3 view .LVU246
 684:./Libraries/STM32F10x_StdPeriph_Driver/src/stm32f10x_flash.c **** 
 1057              		.loc 1 684 17 is_stmt 0 view .LVU247
 1058 0008 0023     		movs	r3, #0
 1059 000a 0193     		str	r3, [sp, #4]
 687:./Libraries/STM32F10x_StdPeriph_Driver/src/stm32f10x_flash.c **** 
 1060              		.loc 1 687 3 is_stmt 1 view .LVU248
 812:./Libraries/STM32F10x_StdPeriph_Driver/src/stm32f10x_flash.c ****   
 1061              		.loc 1 812 3 view .LVU249
ARM GAS  /tmp/ccV0cNik.s 			page 49


 812:./Libraries/STM32F10x_StdPeriph_Driver/src/stm32f10x_flash.c ****   
 1062              		.loc 1 812 12 is_stmt 0 view .LVU250
 1063 000c 4FF40050 		mov	r0, #8192
 1064              	.LVL56:
 812:./Libraries/STM32F10x_StdPeriph_Driver/src/stm32f10x_flash.c ****   
 1065              		.loc 1 812 12 view .LVU251
 1066 0010 FFF7FEFF 		bl	FLASH_WaitForLastOperation
 1067              	.LVL57:
 814:./Libraries/STM32F10x_StdPeriph_Driver/src/stm32f10x_flash.c ****   {
 1068              		.loc 1 814 3 is_stmt 1 view .LVU252
 814:./Libraries/STM32F10x_StdPeriph_Driver/src/stm32f10x_flash.c ****   {
 1069              		.loc 1 814 5 is_stmt 0 view .LVU253
 1070 0014 0428     		cmp	r0, #4
 1071 0016 01D0     		beq	.L102
 1072              	.LVL58:
 1073              	.L99:
 847:./Libraries/STM32F10x_StdPeriph_Driver/src/stm32f10x_flash.c **** }
 1074              		.loc 1 847 3 is_stmt 1 view .LVU254
 848:./Libraries/STM32F10x_StdPeriph_Driver/src/stm32f10x_flash.c **** 
 1075              		.loc 1 848 1 is_stmt 0 view .LVU255
 1076 0018 03B0     		add	sp, sp, #12
 1077              	.LCFI6:
 1078              		.cfi_remember_state
 1079              		.cfi_def_cfa_offset 12
 1080              		@ sp needed
 1081 001a 30BD     		pop	{r4, r5, pc}
 1082              	.LVL59:
 1083              	.L102:
 1084              	.LCFI7:
 1085              		.cfi_restore_state
 818:./Libraries/STM32F10x_StdPeriph_Driver/src/stm32f10x_flash.c ****   
 1086              		.loc 1 818 5 is_stmt 1 view .LVU256
 818:./Libraries/STM32F10x_StdPeriph_Driver/src/stm32f10x_flash.c ****   
 1087              		.loc 1 818 15 is_stmt 0 view .LVU257
 1088 001c 124A     		ldr	r2, .L104
 1089 001e 1369     		ldr	r3, [r2, #16]
 1090 0020 43F00103 		orr	r3, r3, #1
 1091 0024 1361     		str	r3, [r2, #16]
 820:./Libraries/STM32F10x_StdPeriph_Driver/src/stm32f10x_flash.c ****     /* Wait for last operation to be completed */
 1092              		.loc 1 820 5 is_stmt 1 view .LVU258
 820:./Libraries/STM32F10x_StdPeriph_Driver/src/stm32f10x_flash.c ****     /* Wait for last operation to be completed */
 1093              		.loc 1 820 32 is_stmt 0 view .LVU259
 1094 0026 A3B2     		uxth	r3, r4
 820:./Libraries/STM32F10x_StdPeriph_Driver/src/stm32f10x_flash.c ****     /* Wait for last operation to be completed */
 1095              		.loc 1 820 30 view .LVU260
 1096 0028 2B80     		strh	r3, [r5]	@ movhi
 822:./Libraries/STM32F10x_StdPeriph_Driver/src/stm32f10x_flash.c ****  
 1097              		.loc 1 822 5 is_stmt 1 view .LVU261
 822:./Libraries/STM32F10x_StdPeriph_Driver/src/stm32f10x_flash.c ****  
 1098              		.loc 1 822 14 is_stmt 0 view .LVU262
 1099 002a 4FF40050 		mov	r0, #8192
 1100              	.LVL60:
 822:./Libraries/STM32F10x_StdPeriph_Driver/src/stm32f10x_flash.c ****  
 1101              		.loc 1 822 14 view .LVU263
 1102 002e FFF7FEFF 		bl	FLASH_WaitForLastOperation
 1103              	.LVL61:
 824:./Libraries/STM32F10x_StdPeriph_Driver/src/stm32f10x_flash.c ****     {
ARM GAS  /tmp/ccV0cNik.s 			page 50


 1104              		.loc 1 824 5 is_stmt 1 view .LVU264
 824:./Libraries/STM32F10x_StdPeriph_Driver/src/stm32f10x_flash.c ****     {
 1105              		.loc 1 824 7 is_stmt 0 view .LVU265
 1106 0032 0428     		cmp	r0, #4
 1107 0034 07D0     		beq	.L103
 841:./Libraries/STM32F10x_StdPeriph_Driver/src/stm32f10x_flash.c ****     }
 1108              		.loc 1 841 7 is_stmt 1 view .LVU266
 841:./Libraries/STM32F10x_StdPeriph_Driver/src/stm32f10x_flash.c ****     }
 1109              		.loc 1 841 17 is_stmt 0 view .LVU267
 1110 0036 0C4A     		ldr	r2, .L104
 1111 0038 1369     		ldr	r3, [r2, #16]
 1112 003a 23F00103 		bic	r3, r3, #1
 1113 003e DB04     		lsls	r3, r3, #19
 1114 0040 DB0C     		lsrs	r3, r3, #19
 1115 0042 1361     		str	r3, [r2, #16]
 1116 0044 E8E7     		b	.L99
 1117              	.L103:
 828:./Libraries/STM32F10x_StdPeriph_Driver/src/stm32f10x_flash.c **** 
 1118              		.loc 1 828 7 is_stmt 1 view .LVU268
 828:./Libraries/STM32F10x_StdPeriph_Driver/src/stm32f10x_flash.c **** 
 1119              		.loc 1 828 21 is_stmt 0 view .LVU269
 1120 0046 0235     		adds	r5, r5, #2
 1121              	.LVL62:
 828:./Libraries/STM32F10x_StdPeriph_Driver/src/stm32f10x_flash.c **** 
 1122              		.loc 1 828 11 view .LVU270
 1123 0048 0195     		str	r5, [sp, #4]
 830:./Libraries/STM32F10x_StdPeriph_Driver/src/stm32f10x_flash.c ****     
 1124              		.loc 1 830 7 is_stmt 1 view .LVU271
 830:./Libraries/STM32F10x_StdPeriph_Driver/src/stm32f10x_flash.c ****     
 1125              		.loc 1 830 8 is_stmt 0 view .LVU272
 1126 004a 019B     		ldr	r3, [sp, #4]
 830:./Libraries/STM32F10x_StdPeriph_Driver/src/stm32f10x_flash.c ****     
 1127              		.loc 1 830 29 view .LVU273
 1128 004c 210C     		lsrs	r1, r4, #16
 1129 004e 1980     		strh	r1, [r3]	@ movhi
 833:./Libraries/STM32F10x_StdPeriph_Driver/src/stm32f10x_flash.c ****         
 1130              		.loc 1 833 7 is_stmt 1 view .LVU274
 833:./Libraries/STM32F10x_StdPeriph_Driver/src/stm32f10x_flash.c ****         
 1131              		.loc 1 833 16 is_stmt 0 view .LVU275
 1132 0050 4FF40050 		mov	r0, #8192
 1133              	.LVL63:
 833:./Libraries/STM32F10x_StdPeriph_Driver/src/stm32f10x_flash.c ****         
 1134              		.loc 1 833 16 view .LVU276
 1135 0054 FFF7FEFF 		bl	FLASH_WaitForLastOperation
 1136              	.LVL64:
 836:./Libraries/STM32F10x_StdPeriph_Driver/src/stm32f10x_flash.c ****     }
 1137              		.loc 1 836 7 is_stmt 1 view .LVU277
 836:./Libraries/STM32F10x_StdPeriph_Driver/src/stm32f10x_flash.c ****     }
 1138              		.loc 1 836 17 is_stmt 0 view .LVU278
 1139 0058 034A     		ldr	r2, .L104
 1140 005a 1369     		ldr	r3, [r2, #16]
 1141 005c 23F00103 		bic	r3, r3, #1
 1142 0060 DB04     		lsls	r3, r3, #19
 1143 0062 DB0C     		lsrs	r3, r3, #19
 1144 0064 1361     		str	r3, [r2, #16]
 1145 0066 D7E7     		b	.L99
 1146              	.L105:
ARM GAS  /tmp/ccV0cNik.s 			page 51


 1147              		.align	2
 1148              	.L104:
 1149 0068 00200240 		.word	1073881088
 1150              		.cfi_endproc
 1151              	.LFE40:
 1153              		.section	.text.FLASH_ProgramHalfWord,"ax",%progbits
 1154              		.align	1
 1155              		.global	FLASH_ProgramHalfWord
 1156              		.syntax unified
 1157              		.thumb
 1158              		.thumb_func
 1159              		.fpu softvfp
 1161              	FLASH_ProgramHalfWord:
 1162              	.LVL65:
 1163              	.LFB41:
 859:./Libraries/STM32F10x_StdPeriph_Driver/src/stm32f10x_flash.c ****   FLASH_Status status = FLASH_COMPLETE;
 1164              		.loc 1 859 1 is_stmt 1 view -0
 1165              		.cfi_startproc
 1166              		@ args = 0, pretend = 0, frame = 0
 1167              		@ frame_needed = 0, uses_anonymous_args = 0
 859:./Libraries/STM32F10x_StdPeriph_Driver/src/stm32f10x_flash.c ****   FLASH_Status status = FLASH_COMPLETE;
 1168              		.loc 1 859 1 is_stmt 0 view .LVU280
 1169 0000 70B5     		push	{r4, r5, r6, lr}
 1170              	.LCFI8:
 1171              		.cfi_def_cfa_offset 16
 1172              		.cfi_offset 4, -16
 1173              		.cfi_offset 5, -12
 1174              		.cfi_offset 6, -8
 1175              		.cfi_offset 14, -4
 1176 0002 0446     		mov	r4, r0
 1177 0004 0D46     		mov	r5, r1
 860:./Libraries/STM32F10x_StdPeriph_Driver/src/stm32f10x_flash.c ****   /* Check the parameters */
 1178              		.loc 1 860 3 is_stmt 1 view .LVU281
 1179              	.LVL66:
 862:./Libraries/STM32F10x_StdPeriph_Driver/src/stm32f10x_flash.c **** 
 1180              		.loc 1 862 3 view .LVU282
 900:./Libraries/STM32F10x_StdPeriph_Driver/src/stm32f10x_flash.c ****   
 1181              		.loc 1 900 3 view .LVU283
 900:./Libraries/STM32F10x_StdPeriph_Driver/src/stm32f10x_flash.c ****   
 1182              		.loc 1 900 12 is_stmt 0 view .LVU284
 1183 0006 4FF40050 		mov	r0, #8192
 1184              	.LVL67:
 900:./Libraries/STM32F10x_StdPeriph_Driver/src/stm32f10x_flash.c ****   
 1185              		.loc 1 900 12 view .LVU285
 1186 000a FFF7FEFF 		bl	FLASH_WaitForLastOperation
 1187              	.LVL68:
 902:./Libraries/STM32F10x_StdPeriph_Driver/src/stm32f10x_flash.c ****   {
 1188              		.loc 1 902 3 is_stmt 1 view .LVU286
 902:./Libraries/STM32F10x_StdPeriph_Driver/src/stm32f10x_flash.c ****   {
 1189              		.loc 1 902 5 is_stmt 0 view .LVU287
 1190 000e 0428     		cmp	r0, #4
 1191 0010 00D0     		beq	.L109
 1192              	.L107:
 917:./Libraries/STM32F10x_StdPeriph_Driver/src/stm32f10x_flash.c **** }
 1193              		.loc 1 917 3 is_stmt 1 view .LVU288
 918:./Libraries/STM32F10x_StdPeriph_Driver/src/stm32f10x_flash.c **** 
 1194              		.loc 1 918 1 is_stmt 0 view .LVU289
ARM GAS  /tmp/ccV0cNik.s 			page 52


 1195 0012 70BD     		pop	{r4, r5, r6, pc}
 1196              	.LVL69:
 1197              	.L109:
 905:./Libraries/STM32F10x_StdPeriph_Driver/src/stm32f10x_flash.c ****   
 1198              		.loc 1 905 5 is_stmt 1 view .LVU290
 905:./Libraries/STM32F10x_StdPeriph_Driver/src/stm32f10x_flash.c ****   
 1199              		.loc 1 905 15 is_stmt 0 view .LVU291
 1200 0014 084E     		ldr	r6, .L110
 1201 0016 3369     		ldr	r3, [r6, #16]
 1202 0018 43F00103 		orr	r3, r3, #1
 1203 001c 3361     		str	r3, [r6, #16]
 907:./Libraries/STM32F10x_StdPeriph_Driver/src/stm32f10x_flash.c ****     /* Wait for last operation to be completed */
 1204              		.loc 1 907 5 is_stmt 1 view .LVU292
 907:./Libraries/STM32F10x_StdPeriph_Driver/src/stm32f10x_flash.c ****     /* Wait for last operation to be completed */
 1205              		.loc 1 907 30 is_stmt 0 view .LVU293
 1206 001e 2580     		strh	r5, [r4]	@ movhi
 909:./Libraries/STM32F10x_StdPeriph_Driver/src/stm32f10x_flash.c ****     
 1207              		.loc 1 909 5 is_stmt 1 view .LVU294
 909:./Libraries/STM32F10x_StdPeriph_Driver/src/stm32f10x_flash.c ****     
 1208              		.loc 1 909 14 is_stmt 0 view .LVU295
 1209 0020 4FF40050 		mov	r0, #8192
 1210              	.LVL70:
 909:./Libraries/STM32F10x_StdPeriph_Driver/src/stm32f10x_flash.c ****     
 1211              		.loc 1 909 14 view .LVU296
 1212 0024 FFF7FEFF 		bl	FLASH_WaitForLastOperation
 1213              	.LVL71:
 912:./Libraries/STM32F10x_StdPeriph_Driver/src/stm32f10x_flash.c ****   } 
 1214              		.loc 1 912 5 is_stmt 1 view .LVU297
 912:./Libraries/STM32F10x_StdPeriph_Driver/src/stm32f10x_flash.c ****   } 
 1215              		.loc 1 912 15 is_stmt 0 view .LVU298
 1216 0028 3369     		ldr	r3, [r6, #16]
 1217 002a 23F00103 		bic	r3, r3, #1
 1218 002e DB04     		lsls	r3, r3, #19
 1219 0030 DB0C     		lsrs	r3, r3, #19
 1220 0032 3361     		str	r3, [r6, #16]
 1221 0034 EDE7     		b	.L107
 1222              	.L111:
 1223 0036 00BF     		.align	2
 1224              	.L110:
 1225 0038 00200240 		.word	1073881088
 1226              		.cfi_endproc
 1227              	.LFE41:
 1229              		.section	.text.FLASH_ProgramOptionByteData,"ax",%progbits
 1230              		.align	1
 1231              		.global	FLASH_ProgramOptionByteData
 1232              		.syntax unified
 1233              		.thumb
 1234              		.thumb_func
 1235              		.fpu softvfp
 1237              	FLASH_ProgramOptionByteData:
 1238              	.LVL72:
 1239              	.LFB42:
 930:./Libraries/STM32F10x_StdPeriph_Driver/src/stm32f10x_flash.c ****   FLASH_Status status = FLASH_COMPLETE;
 1240              		.loc 1 930 1 is_stmt 1 view -0
 1241              		.cfi_startproc
 1242              		@ args = 0, pretend = 0, frame = 0
 1243              		@ frame_needed = 0, uses_anonymous_args = 0
ARM GAS  /tmp/ccV0cNik.s 			page 53


 930:./Libraries/STM32F10x_StdPeriph_Driver/src/stm32f10x_flash.c ****   FLASH_Status status = FLASH_COMPLETE;
 1244              		.loc 1 930 1 is_stmt 0 view .LVU300
 1245 0000 38B5     		push	{r3, r4, r5, lr}
 1246              	.LCFI9:
 1247              		.cfi_def_cfa_offset 16
 1248              		.cfi_offset 3, -16
 1249              		.cfi_offset 4, -12
 1250              		.cfi_offset 5, -8
 1251              		.cfi_offset 14, -4
 1252 0002 0546     		mov	r5, r0
 1253 0004 0C46     		mov	r4, r1
 931:./Libraries/STM32F10x_StdPeriph_Driver/src/stm32f10x_flash.c ****   /* Check the parameters */
 1254              		.loc 1 931 3 is_stmt 1 view .LVU301
 1255              	.LVL73:
 933:./Libraries/STM32F10x_StdPeriph_Driver/src/stm32f10x_flash.c ****   status = FLASH_WaitForLastOperation(ProgramTimeout);
 1256              		.loc 1 933 3 view .LVU302
 934:./Libraries/STM32F10x_StdPeriph_Driver/src/stm32f10x_flash.c **** 
 1257              		.loc 1 934 3 view .LVU303
 934:./Libraries/STM32F10x_StdPeriph_Driver/src/stm32f10x_flash.c **** 
 1258              		.loc 1 934 12 is_stmt 0 view .LVU304
 1259 0006 4FF40050 		mov	r0, #8192
 1260              	.LVL74:
 934:./Libraries/STM32F10x_StdPeriph_Driver/src/stm32f10x_flash.c **** 
 1261              		.loc 1 934 12 view .LVU305
 1262 000a FFF7FEFF 		bl	FLASH_WaitForLastOperation
 1263              	.LVL75:
 936:./Libraries/STM32F10x_StdPeriph_Driver/src/stm32f10x_flash.c ****   {
 1264              		.loc 1 936 3 is_stmt 1 view .LVU306
 936:./Libraries/STM32F10x_StdPeriph_Driver/src/stm32f10x_flash.c ****   {
 1265              		.loc 1 936 5 is_stmt 0 view .LVU307
 1266 000e 0428     		cmp	r0, #4
 1267 0010 00D0     		beq	.L115
 1268              	.L113:
 954:./Libraries/STM32F10x_StdPeriph_Driver/src/stm32f10x_flash.c **** }
 1269              		.loc 1 954 3 is_stmt 1 view .LVU308
 955:./Libraries/STM32F10x_StdPeriph_Driver/src/stm32f10x_flash.c **** 
 1270              		.loc 1 955 1 is_stmt 0 view .LVU309
 1271 0012 38BD     		pop	{r3, r4, r5, pc}
 1272              	.LVL76:
 1273              	.L115:
 939:./Libraries/STM32F10x_StdPeriph_Driver/src/stm32f10x_flash.c ****     FLASH->OPTKEYR = FLASH_KEY2;
 1274              		.loc 1 939 5 is_stmt 1 view .LVU310
 939:./Libraries/STM32F10x_StdPeriph_Driver/src/stm32f10x_flash.c ****     FLASH->OPTKEYR = FLASH_KEY2;
 1275              		.loc 1 939 20 is_stmt 0 view .LVU311
 1276 0014 0C4B     		ldr	r3, .L116
 1277 0016 0D4A     		ldr	r2, .L116+4
 1278 0018 9A60     		str	r2, [r3, #8]
 940:./Libraries/STM32F10x_StdPeriph_Driver/src/stm32f10x_flash.c ****     /* Enables the Option Bytes Programming operation */
 1279              		.loc 1 940 5 is_stmt 1 view .LVU312
 940:./Libraries/STM32F10x_StdPeriph_Driver/src/stm32f10x_flash.c ****     /* Enables the Option Bytes Programming operation */
 1280              		.loc 1 940 20 is_stmt 0 view .LVU313
 1281 001a 02F18832 		add	r2, r2, #-2004318072
 1282 001e 9A60     		str	r2, [r3, #8]
 942:./Libraries/STM32F10x_StdPeriph_Driver/src/stm32f10x_flash.c ****     *(__IO uint16_t*)Address = Data;
 1283              		.loc 1 942 5 is_stmt 1 view .LVU314
 942:./Libraries/STM32F10x_StdPeriph_Driver/src/stm32f10x_flash.c ****     *(__IO uint16_t*)Address = Data;
 1284              		.loc 1 942 15 is_stmt 0 view .LVU315
ARM GAS  /tmp/ccV0cNik.s 			page 54


 1285 0020 1A69     		ldr	r2, [r3, #16]
 1286 0022 42F01002 		orr	r2, r2, #16
 1287 0026 1A61     		str	r2, [r3, #16]
 943:./Libraries/STM32F10x_StdPeriph_Driver/src/stm32f10x_flash.c ****     
 1288              		.loc 1 943 5 is_stmt 1 view .LVU316
 943:./Libraries/STM32F10x_StdPeriph_Driver/src/stm32f10x_flash.c ****     
 1289              		.loc 1 943 30 is_stmt 0 view .LVU317
 1290 0028 A1B2     		uxth	r1, r4
 1291 002a 2980     		strh	r1, [r5]	@ movhi
 946:./Libraries/STM32F10x_StdPeriph_Driver/src/stm32f10x_flash.c ****     if(status != FLASH_TIMEOUT)
 1292              		.loc 1 946 5 is_stmt 1 view .LVU318
 946:./Libraries/STM32F10x_StdPeriph_Driver/src/stm32f10x_flash.c ****     if(status != FLASH_TIMEOUT)
 1293              		.loc 1 946 14 is_stmt 0 view .LVU319
 1294 002c 4FF40050 		mov	r0, #8192
 1295              	.LVL77:
 946:./Libraries/STM32F10x_StdPeriph_Driver/src/stm32f10x_flash.c ****     if(status != FLASH_TIMEOUT)
 1296              		.loc 1 946 14 view .LVU320
 1297 0030 FFF7FEFF 		bl	FLASH_WaitForLastOperation
 1298              	.LVL78:
 947:./Libraries/STM32F10x_StdPeriph_Driver/src/stm32f10x_flash.c ****     {
 1299              		.loc 1 947 5 is_stmt 1 view .LVU321
 947:./Libraries/STM32F10x_StdPeriph_Driver/src/stm32f10x_flash.c ****     {
 1300              		.loc 1 947 7 is_stmt 0 view .LVU322
 1301 0034 0528     		cmp	r0, #5
 1302 0036 ECD0     		beq	.L113
 950:./Libraries/STM32F10x_StdPeriph_Driver/src/stm32f10x_flash.c ****     }
 1303              		.loc 1 950 7 is_stmt 1 view .LVU323
 950:./Libraries/STM32F10x_StdPeriph_Driver/src/stm32f10x_flash.c ****     }
 1304              		.loc 1 950 17 is_stmt 0 view .LVU324
 1305 0038 034A     		ldr	r2, .L116
 1306 003a 1369     		ldr	r3, [r2, #16]
 1307 003c 23F01003 		bic	r3, r3, #16
 1308 0040 DB04     		lsls	r3, r3, #19
 1309 0042 DB0C     		lsrs	r3, r3, #19
 1310 0044 1361     		str	r3, [r2, #16]
 1311 0046 E4E7     		b	.L113
 1312              	.L117:
 1313              		.align	2
 1314              	.L116:
 1315 0048 00200240 		.word	1073881088
 1316 004c 23016745 		.word	1164378403
 1317              		.cfi_endproc
 1318              	.LFE42:
 1320              		.section	.text.FLASH_EnableWriteProtection,"ax",%progbits
 1321              		.align	1
 1322              		.global	FLASH_EnableWriteProtection
 1323              		.syntax unified
 1324              		.thumb
 1325              		.thumb_func
 1326              		.fpu softvfp
 1328              	FLASH_EnableWriteProtection:
 1329              	.LVL79:
 1330              	.LFB43:
 976:./Libraries/STM32F10x_StdPeriph_Driver/src/stm32f10x_flash.c ****   uint16_t WRP0_Data = 0xFFFF, WRP1_Data = 0xFFFF, WRP2_Data = 0xFFFF, WRP3_Data = 0xFFFF;
 1331              		.loc 1 976 1 is_stmt 1 view -0
 1332              		.cfi_startproc
 1333              		@ args = 0, pretend = 0, frame = 0
ARM GAS  /tmp/ccV0cNik.s 			page 55


 1334              		@ frame_needed = 0, uses_anonymous_args = 0
 976:./Libraries/STM32F10x_StdPeriph_Driver/src/stm32f10x_flash.c ****   uint16_t WRP0_Data = 0xFFFF, WRP1_Data = 0xFFFF, WRP2_Data = 0xFFFF, WRP3_Data = 0xFFFF;
 1335              		.loc 1 976 1 is_stmt 0 view .LVU326
 1336 0000 F8B5     		push	{r3, r4, r5, r6, r7, lr}
 1337              	.LCFI10:
 1338              		.cfi_def_cfa_offset 24
 1339              		.cfi_offset 3, -24
 1340              		.cfi_offset 4, -20
 1341              		.cfi_offset 5, -16
 1342              		.cfi_offset 6, -12
 1343              		.cfi_offset 7, -8
 1344              		.cfi_offset 14, -4
 977:./Libraries/STM32F10x_StdPeriph_Driver/src/stm32f10x_flash.c ****   
 1345              		.loc 1 977 3 is_stmt 1 view .LVU327
 1346              	.LVL80:
 979:./Libraries/STM32F10x_StdPeriph_Driver/src/stm32f10x_flash.c ****   
 1347              		.loc 1 979 3 view .LVU328
 982:./Libraries/STM32F10x_StdPeriph_Driver/src/stm32f10x_flash.c ****   
 1348              		.loc 1 982 3 view .LVU329
 984:./Libraries/STM32F10x_StdPeriph_Driver/src/stm32f10x_flash.c ****   WRP0_Data = (uint16_t)(FLASH_Pages & WRP0_Mask);
 1349              		.loc 1 984 3 view .LVU330
 984:./Libraries/STM32F10x_StdPeriph_Driver/src/stm32f10x_flash.c ****   WRP0_Data = (uint16_t)(FLASH_Pages & WRP0_Mask);
 1350              		.loc 1 984 15 is_stmt 0 view .LVU331
 1351 0002 C043     		mvns	r0, r0
 1352              	.LVL81:
 985:./Libraries/STM32F10x_StdPeriph_Driver/src/stm32f10x_flash.c ****   WRP1_Data = (uint16_t)((FLASH_Pages & WRP1_Mask) >> 8);
 1353              		.loc 1 985 3 is_stmt 1 view .LVU332
 985:./Libraries/STM32F10x_StdPeriph_Driver/src/stm32f10x_flash.c ****   WRP1_Data = (uint16_t)((FLASH_Pages & WRP1_Mask) >> 8);
 1354              		.loc 1 985 13 is_stmt 0 view .LVU333
 1355 0004 C7B2     		uxtb	r7, r0
 1356              	.LVL82:
 986:./Libraries/STM32F10x_StdPeriph_Driver/src/stm32f10x_flash.c ****   WRP2_Data = (uint16_t)((FLASH_Pages & WRP2_Mask) >> 16);
 1357              		.loc 1 986 3 is_stmt 1 view .LVU334
 986:./Libraries/STM32F10x_StdPeriph_Driver/src/stm32f10x_flash.c ****   WRP2_Data = (uint16_t)((FLASH_Pages & WRP2_Mask) >> 16);
 1358              		.loc 1 986 13 is_stmt 0 view .LVU335
 1359 0006 C0F30726 		ubfx	r6, r0, #8, #8
 1360              	.LVL83:
 987:./Libraries/STM32F10x_StdPeriph_Driver/src/stm32f10x_flash.c ****   WRP3_Data = (uint16_t)((FLASH_Pages & WRP3_Mask) >> 24);
 1361              		.loc 1 987 3 is_stmt 1 view .LVU336
 987:./Libraries/STM32F10x_StdPeriph_Driver/src/stm32f10x_flash.c ****   WRP3_Data = (uint16_t)((FLASH_Pages & WRP3_Mask) >> 24);
 1362              		.loc 1 987 13 is_stmt 0 view .LVU337
 1363 000a C0F30745 		ubfx	r5, r0, #16, #8
 1364              	.LVL84:
 988:./Libraries/STM32F10x_StdPeriph_Driver/src/stm32f10x_flash.c ****   
 1365              		.loc 1 988 3 is_stmt 1 view .LVU338
 988:./Libraries/STM32F10x_StdPeriph_Driver/src/stm32f10x_flash.c ****   
 1366              		.loc 1 988 13 is_stmt 0 view .LVU339
 1367 000e 040E     		lsrs	r4, r0, #24
 1368              	.LVL85:
 991:./Libraries/STM32F10x_StdPeriph_Driver/src/stm32f10x_flash.c ****   
 1369              		.loc 1 991 3 is_stmt 1 view .LVU340
 991:./Libraries/STM32F10x_StdPeriph_Driver/src/stm32f10x_flash.c ****   
 1370              		.loc 1 991 12 is_stmt 0 view .LVU341
 1371 0010 4FF40050 		mov	r0, #8192
 1372              	.LVL86:
 991:./Libraries/STM32F10x_StdPeriph_Driver/src/stm32f10x_flash.c ****   
 1373              		.loc 1 991 12 view .LVU342
ARM GAS  /tmp/ccV0cNik.s 			page 56


 1374 0014 FFF7FEFF 		bl	FLASH_WaitForLastOperation
 1375              	.LVL87:
 993:./Libraries/STM32F10x_StdPeriph_Driver/src/stm32f10x_flash.c ****   {
 1376              		.loc 1 993 3 is_stmt 1 view .LVU343
 993:./Libraries/STM32F10x_StdPeriph_Driver/src/stm32f10x_flash.c ****   {
 1377              		.loc 1 993 5 is_stmt 0 view .LVU344
 1378 0018 0428     		cmp	r0, #4
 1379 001a 00D0     		beq	.L125
 1380              	.L119:
1036:./Libraries/STM32F10x_StdPeriph_Driver/src/stm32f10x_flash.c **** }
 1381              		.loc 1 1036 3 is_stmt 1 view .LVU345
1037:./Libraries/STM32F10x_StdPeriph_Driver/src/stm32f10x_flash.c **** 
 1382              		.loc 1 1037 1 is_stmt 0 view .LVU346
 1383 001c F8BD     		pop	{r3, r4, r5, r6, r7, pc}
 1384              	.LVL88:
 1385              	.L125:
 996:./Libraries/STM32F10x_StdPeriph_Driver/src/stm32f10x_flash.c ****     FLASH->OPTKEYR = FLASH_KEY2;
 1386              		.loc 1 996 5 is_stmt 1 view .LVU347
 996:./Libraries/STM32F10x_StdPeriph_Driver/src/stm32f10x_flash.c ****     FLASH->OPTKEYR = FLASH_KEY2;
 1387              		.loc 1 996 20 is_stmt 0 view .LVU348
 1388 001e 1F4B     		ldr	r3, .L130
 1389 0020 1F4A     		ldr	r2, .L130+4
 1390 0022 9A60     		str	r2, [r3, #8]
 997:./Libraries/STM32F10x_StdPeriph_Driver/src/stm32f10x_flash.c ****     FLASH->CR |= CR_OPTPG_Set;
 1391              		.loc 1 997 5 is_stmt 1 view .LVU349
 997:./Libraries/STM32F10x_StdPeriph_Driver/src/stm32f10x_flash.c ****     FLASH->CR |= CR_OPTPG_Set;
 1392              		.loc 1 997 20 is_stmt 0 view .LVU350
 1393 0024 02F18832 		add	r2, r2, #-2004318072
 1394 0028 9A60     		str	r2, [r3, #8]
 998:./Libraries/STM32F10x_StdPeriph_Driver/src/stm32f10x_flash.c ****     if(WRP0_Data != 0xFF)
 1395              		.loc 1 998 5 is_stmt 1 view .LVU351
 998:./Libraries/STM32F10x_StdPeriph_Driver/src/stm32f10x_flash.c ****     if(WRP0_Data != 0xFF)
 1396              		.loc 1 998 15 is_stmt 0 view .LVU352
 1397 002a 1A69     		ldr	r2, [r3, #16]
 1398 002c 42F01002 		orr	r2, r2, #16
 1399 0030 1A61     		str	r2, [r3, #16]
 999:./Libraries/STM32F10x_StdPeriph_Driver/src/stm32f10x_flash.c ****     {
 1400              		.loc 1 999 5 is_stmt 1 view .LVU353
 999:./Libraries/STM32F10x_StdPeriph_Driver/src/stm32f10x_flash.c ****     {
 1401              		.loc 1 999 7 is_stmt 0 view .LVU354
 1402 0032 FF2F     		cmp	r7, #255
 1403 0034 0FD1     		bne	.L126
 1404              	.L120:
1006:./Libraries/STM32F10x_StdPeriph_Driver/src/stm32f10x_flash.c ****     {
 1405              		.loc 1 1006 5 is_stmt 1 view .LVU355
1006:./Libraries/STM32F10x_StdPeriph_Driver/src/stm32f10x_flash.c ****     {
 1406              		.loc 1 1006 7 is_stmt 0 view .LVU356
 1407 0036 0428     		cmp	r0, #4
 1408 0038 14D0     		beq	.L127
 1409              	.L121:
1013:./Libraries/STM32F10x_StdPeriph_Driver/src/stm32f10x_flash.c ****     {
 1410              		.loc 1 1013 5 is_stmt 1 view .LVU357
1013:./Libraries/STM32F10x_StdPeriph_Driver/src/stm32f10x_flash.c ****     {
 1411              		.loc 1 1013 7 is_stmt 0 view .LVU358
 1412 003a 0428     		cmp	r0, #4
 1413 003c 1BD0     		beq	.L128
 1414              	.L122:
ARM GAS  /tmp/ccV0cNik.s 			page 57


1021:./Libraries/STM32F10x_StdPeriph_Driver/src/stm32f10x_flash.c ****     {
 1415              		.loc 1 1021 5 is_stmt 1 view .LVU359
1021:./Libraries/STM32F10x_StdPeriph_Driver/src/stm32f10x_flash.c ****     {
 1416              		.loc 1 1021 7 is_stmt 0 view .LVU360
 1417 003e 0428     		cmp	r0, #4
 1418 0040 22D0     		beq	.L129
 1419              	.L123:
1029:./Libraries/STM32F10x_StdPeriph_Driver/src/stm32f10x_flash.c ****     {
 1420              		.loc 1 1029 5 is_stmt 1 view .LVU361
1029:./Libraries/STM32F10x_StdPeriph_Driver/src/stm32f10x_flash.c ****     {
 1421              		.loc 1 1029 7 is_stmt 0 view .LVU362
 1422 0042 0528     		cmp	r0, #5
 1423 0044 EAD0     		beq	.L119
1032:./Libraries/STM32F10x_StdPeriph_Driver/src/stm32f10x_flash.c ****     }
 1424              		.loc 1 1032 7 is_stmt 1 view .LVU363
1032:./Libraries/STM32F10x_StdPeriph_Driver/src/stm32f10x_flash.c ****     }
 1425              		.loc 1 1032 17 is_stmt 0 view .LVU364
 1426 0046 154A     		ldr	r2, .L130
 1427 0048 1369     		ldr	r3, [r2, #16]
 1428 004a 23F01003 		bic	r3, r3, #16
 1429 004e DB04     		lsls	r3, r3, #19
 1430 0050 DB0C     		lsrs	r3, r3, #19
 1431 0052 1361     		str	r3, [r2, #16]
 1432 0054 E2E7     		b	.L119
 1433              	.L126:
1001:./Libraries/STM32F10x_StdPeriph_Driver/src/stm32f10x_flash.c ****       
 1434              		.loc 1 1001 7 is_stmt 1 view .LVU365
1001:./Libraries/STM32F10x_StdPeriph_Driver/src/stm32f10x_flash.c ****       
 1435              		.loc 1 1001 16 is_stmt 0 view .LVU366
 1436 0056 134B     		ldr	r3, .L130+8
 1437 0058 1F81     		strh	r7, [r3, #8]	@ movhi
1004:./Libraries/STM32F10x_StdPeriph_Driver/src/stm32f10x_flash.c ****     }
 1438              		.loc 1 1004 7 is_stmt 1 view .LVU367
1004:./Libraries/STM32F10x_StdPeriph_Driver/src/stm32f10x_flash.c ****     }
 1439              		.loc 1 1004 16 is_stmt 0 view .LVU368
 1440 005a 4FF40050 		mov	r0, #8192
 1441              	.LVL89:
1004:./Libraries/STM32F10x_StdPeriph_Driver/src/stm32f10x_flash.c ****     }
 1442              		.loc 1 1004 16 view .LVU369
 1443 005e FFF7FEFF 		bl	FLASH_WaitForLastOperation
 1444              	.LVL90:
1004:./Libraries/STM32F10x_StdPeriph_Driver/src/stm32f10x_flash.c ****     }
 1445              		.loc 1 1004 16 view .LVU370
 1446 0062 E8E7     		b	.L120
 1447              	.L127:
1006:./Libraries/STM32F10x_StdPeriph_Driver/src/stm32f10x_flash.c ****     {
 1448              		.loc 1 1006 35 discriminator 1 view .LVU371
 1449 0064 FF2E     		cmp	r6, #255
 1450 0066 E8D0     		beq	.L121
1008:./Libraries/STM32F10x_StdPeriph_Driver/src/stm32f10x_flash.c ****       
 1451              		.loc 1 1008 7 is_stmt 1 view .LVU372
1008:./Libraries/STM32F10x_StdPeriph_Driver/src/stm32f10x_flash.c ****       
 1452              		.loc 1 1008 16 is_stmt 0 view .LVU373
 1453 0068 0E4B     		ldr	r3, .L130+8
 1454 006a 5E81     		strh	r6, [r3, #10]	@ movhi
1011:./Libraries/STM32F10x_StdPeriph_Driver/src/stm32f10x_flash.c ****     }
 1455              		.loc 1 1011 7 is_stmt 1 view .LVU374
ARM GAS  /tmp/ccV0cNik.s 			page 58


1011:./Libraries/STM32F10x_StdPeriph_Driver/src/stm32f10x_flash.c ****     }
 1456              		.loc 1 1011 16 is_stmt 0 view .LVU375
 1457 006c 4FF40050 		mov	r0, #8192
 1458              	.LVL91:
1011:./Libraries/STM32F10x_StdPeriph_Driver/src/stm32f10x_flash.c ****     }
 1459              		.loc 1 1011 16 view .LVU376
 1460 0070 FFF7FEFF 		bl	FLASH_WaitForLastOperation
 1461              	.LVL92:
1011:./Libraries/STM32F10x_StdPeriph_Driver/src/stm32f10x_flash.c ****     }
 1462              		.loc 1 1011 16 view .LVU377
 1463 0074 E1E7     		b	.L121
 1464              	.L128:
