ARM GAS  /tmp/cctrGC4Q.s 			page 1


   1              		.cpu cortex-m3
   2              		.eabi_attribute 20, 1
   3              		.eabi_attribute 21, 1
   4              		.eabi_attribute 23, 3
   5              		.eabi_attribute 24, 1
   6              		.eabi_attribute 25, 1
   7              		.eabi_attribute 26, 1
   8              		.eabi_attribute 30, 1
   9              		.eabi_attribute 34, 1
  10              		.eabi_attribute 18, 4
  11              		.file	"stm32f10x_i2c.c"
  12              		.text
  13              	.Ltext0:
  14              		.cfi_sections	.debug_frame
  15              		.section	.text.I2C_DeInit,"ax",%progbits
  16              		.align	1
  17              		.global	I2C_DeInit
  18              		.arch armv7-m
  19              		.syntax unified
  20              		.thumb
  21              		.thumb_func
  22              		.fpu softvfp
  24              	I2C_DeInit:
  25              	.LVL0:
  26              	.LFB29:
  27              		.file 1 "./Libraries/STM32F10x_StdPeriph_Driver/src/stm32f10x_i2c.c"
   1:./Libraries/STM32F10x_StdPeriph_Driver/src/stm32f10x_i2c.c **** /**
   2:./Libraries/STM32F10x_StdPeriph_Driver/src/stm32f10x_i2c.c ****   ******************************************************************************
   3:./Libraries/STM32F10x_StdPeriph_Driver/src/stm32f10x_i2c.c ****   * @file    stm32f10x_i2c.c
   4:./Libraries/STM32F10x_StdPeriph_Driver/src/stm32f10x_i2c.c ****   * @author  MCD Application Team
   5:./Libraries/STM32F10x_StdPeriph_Driver/src/stm32f10x_i2c.c ****   * @version V3.5.0
   6:./Libraries/STM32F10x_StdPeriph_Driver/src/stm32f10x_i2c.c ****   * @date    11-March-2011
   7:./Libraries/STM32F10x_StdPeriph_Driver/src/stm32f10x_i2c.c ****   * @brief   This file provides all the I2C firmware functions.
   8:./Libraries/STM32F10x_StdPeriph_Driver/src/stm32f10x_i2c.c ****   ******************************************************************************
   9:./Libraries/STM32F10x_StdPeriph_Driver/src/stm32f10x_i2c.c ****   * @attention
  10:./Libraries/STM32F10x_StdPeriph_Driver/src/stm32f10x_i2c.c ****   *
  11:./Libraries/STM32F10x_StdPeriph_Driver/src/stm32f10x_i2c.c ****   * THE PRESENT FIRMWARE WHICH IS FOR GUIDANCE ONLY AIMS AT PROVIDING CUSTOMERS
  12:./Libraries/STM32F10x_StdPeriph_Driver/src/stm32f10x_i2c.c ****   * WITH CODING INFORMATION REGARDING THEIR PRODUCTS IN ORDER FOR THEM TO SAVE
  13:./Libraries/STM32F10x_StdPeriph_Driver/src/stm32f10x_i2c.c ****   * TIME. AS A RESULT, STMICROELECTRONICS SHALL NOT BE HELD LIABLE FOR ANY
  14:./Libraries/STM32F10x_StdPeriph_Driver/src/stm32f10x_i2c.c ****   * DIRECT, INDIRECT OR CONSEQUENTIAL DAMAGES WITH RESPECT TO ANY CLAIMS ARISING
  15:./Libraries/STM32F10x_StdPeriph_Driver/src/stm32f10x_i2c.c ****   * FROM THE CONTENT OF SUCH FIRMWARE AND/OR THE USE MADE BY CUSTOMERS OF THE
  16:./Libraries/STM32F10x_StdPeriph_Driver/src/stm32f10x_i2c.c ****   * CODING INFORMATION CONTAINED HEREIN IN CONNECTION WITH THEIR PRODUCTS.
  17:./Libraries/STM32F10x_StdPeriph_Driver/src/stm32f10x_i2c.c ****   *
  18:./Libraries/STM32F10x_StdPeriph_Driver/src/stm32f10x_i2c.c ****   * <h2><center>&copy; COPYRIGHT 2011 STMicroelectronics</center></h2>
  19:./Libraries/STM32F10x_StdPeriph_Driver/src/stm32f10x_i2c.c ****   ******************************************************************************
  20:./Libraries/STM32F10x_StdPeriph_Driver/src/stm32f10x_i2c.c ****   */
  21:./Libraries/STM32F10x_StdPeriph_Driver/src/stm32f10x_i2c.c **** 
  22:./Libraries/STM32F10x_StdPeriph_Driver/src/stm32f10x_i2c.c **** /* Includes ------------------------------------------------------------------*/
  23:./Libraries/STM32F10x_StdPeriph_Driver/src/stm32f10x_i2c.c **** #include "stm32f10x_i2c.h"
  24:./Libraries/STM32F10x_StdPeriph_Driver/src/stm32f10x_i2c.c **** #include "stm32f10x_rcc.h"
  25:./Libraries/STM32F10x_StdPeriph_Driver/src/stm32f10x_i2c.c **** 
  26:./Libraries/STM32F10x_StdPeriph_Driver/src/stm32f10x_i2c.c **** 
  27:./Libraries/STM32F10x_StdPeriph_Driver/src/stm32f10x_i2c.c **** /** @addtogroup STM32F10x_StdPeriph_Driver
  28:./Libraries/STM32F10x_StdPeriph_Driver/src/stm32f10x_i2c.c ****   * @{
  29:./Libraries/STM32F10x_StdPeriph_Driver/src/stm32f10x_i2c.c ****   */
  30:./Libraries/STM32F10x_StdPeriph_Driver/src/stm32f10x_i2c.c **** 
  31:./Libraries/STM32F10x_StdPeriph_Driver/src/stm32f10x_i2c.c **** /** @defgroup I2C 
ARM GAS  /tmp/cctrGC4Q.s 			page 2


  32:./Libraries/STM32F10x_StdPeriph_Driver/src/stm32f10x_i2c.c ****   * @brief I2C driver modules
  33:./Libraries/STM32F10x_StdPeriph_Driver/src/stm32f10x_i2c.c ****   * @{
  34:./Libraries/STM32F10x_StdPeriph_Driver/src/stm32f10x_i2c.c ****   */ 
  35:./Libraries/STM32F10x_StdPeriph_Driver/src/stm32f10x_i2c.c **** 
  36:./Libraries/STM32F10x_StdPeriph_Driver/src/stm32f10x_i2c.c **** /** @defgroup I2C_Private_TypesDefinitions
  37:./Libraries/STM32F10x_StdPeriph_Driver/src/stm32f10x_i2c.c ****   * @{
  38:./Libraries/STM32F10x_StdPeriph_Driver/src/stm32f10x_i2c.c ****   */
  39:./Libraries/STM32F10x_StdPeriph_Driver/src/stm32f10x_i2c.c **** 
  40:./Libraries/STM32F10x_StdPeriph_Driver/src/stm32f10x_i2c.c **** /**
  41:./Libraries/STM32F10x_StdPeriph_Driver/src/stm32f10x_i2c.c ****   * @}
  42:./Libraries/STM32F10x_StdPeriph_Driver/src/stm32f10x_i2c.c ****   */
  43:./Libraries/STM32F10x_StdPeriph_Driver/src/stm32f10x_i2c.c **** 
  44:./Libraries/STM32F10x_StdPeriph_Driver/src/stm32f10x_i2c.c **** /** @defgroup I2C_Private_Defines
  45:./Libraries/STM32F10x_StdPeriph_Driver/src/stm32f10x_i2c.c ****   * @{
  46:./Libraries/STM32F10x_StdPeriph_Driver/src/stm32f10x_i2c.c ****   */
  47:./Libraries/STM32F10x_StdPeriph_Driver/src/stm32f10x_i2c.c **** 
  48:./Libraries/STM32F10x_StdPeriph_Driver/src/stm32f10x_i2c.c **** /* I2C SPE mask */
  49:./Libraries/STM32F10x_StdPeriph_Driver/src/stm32f10x_i2c.c **** #define CR1_PE_Set              ((uint16_t)0x0001)
  50:./Libraries/STM32F10x_StdPeriph_Driver/src/stm32f10x_i2c.c **** #define CR1_PE_Reset            ((uint16_t)0xFFFE)
  51:./Libraries/STM32F10x_StdPeriph_Driver/src/stm32f10x_i2c.c **** 
  52:./Libraries/STM32F10x_StdPeriph_Driver/src/stm32f10x_i2c.c **** /* I2C START mask */
  53:./Libraries/STM32F10x_StdPeriph_Driver/src/stm32f10x_i2c.c **** #define CR1_START_Set           ((uint16_t)0x0100)
  54:./Libraries/STM32F10x_StdPeriph_Driver/src/stm32f10x_i2c.c **** #define CR1_START_Reset         ((uint16_t)0xFEFF)
  55:./Libraries/STM32F10x_StdPeriph_Driver/src/stm32f10x_i2c.c **** 
  56:./Libraries/STM32F10x_StdPeriph_Driver/src/stm32f10x_i2c.c **** /* I2C STOP mask */
  57:./Libraries/STM32F10x_StdPeriph_Driver/src/stm32f10x_i2c.c **** #define CR1_STOP_Set            ((uint16_t)0x0200)
  58:./Libraries/STM32F10x_StdPeriph_Driver/src/stm32f10x_i2c.c **** #define CR1_STOP_Reset          ((uint16_t)0xFDFF)
  59:./Libraries/STM32F10x_StdPeriph_Driver/src/stm32f10x_i2c.c **** 
  60:./Libraries/STM32F10x_StdPeriph_Driver/src/stm32f10x_i2c.c **** /* I2C ACK mask */
  61:./Libraries/STM32F10x_StdPeriph_Driver/src/stm32f10x_i2c.c **** #define CR1_ACK_Set             ((uint16_t)0x0400)
  62:./Libraries/STM32F10x_StdPeriph_Driver/src/stm32f10x_i2c.c **** #define CR1_ACK_Reset           ((uint16_t)0xFBFF)
  63:./Libraries/STM32F10x_StdPeriph_Driver/src/stm32f10x_i2c.c **** 
  64:./Libraries/STM32F10x_StdPeriph_Driver/src/stm32f10x_i2c.c **** /* I2C ENGC mask */
  65:./Libraries/STM32F10x_StdPeriph_Driver/src/stm32f10x_i2c.c **** #define CR1_ENGC_Set            ((uint16_t)0x0040)
  66:./Libraries/STM32F10x_StdPeriph_Driver/src/stm32f10x_i2c.c **** #define CR1_ENGC_Reset          ((uint16_t)0xFFBF)
  67:./Libraries/STM32F10x_StdPeriph_Driver/src/stm32f10x_i2c.c **** 
  68:./Libraries/STM32F10x_StdPeriph_Driver/src/stm32f10x_i2c.c **** /* I2C SWRST mask */
  69:./Libraries/STM32F10x_StdPeriph_Driver/src/stm32f10x_i2c.c **** #define CR1_SWRST_Set           ((uint16_t)0x8000)
  70:./Libraries/STM32F10x_StdPeriph_Driver/src/stm32f10x_i2c.c **** #define CR1_SWRST_Reset         ((uint16_t)0x7FFF)
  71:./Libraries/STM32F10x_StdPeriph_Driver/src/stm32f10x_i2c.c **** 
  72:./Libraries/STM32F10x_StdPeriph_Driver/src/stm32f10x_i2c.c **** /* I2C PEC mask */
  73:./Libraries/STM32F10x_StdPeriph_Driver/src/stm32f10x_i2c.c **** #define CR1_PEC_Set             ((uint16_t)0x1000)
  74:./Libraries/STM32F10x_StdPeriph_Driver/src/stm32f10x_i2c.c **** #define CR1_PEC_Reset           ((uint16_t)0xEFFF)
  75:./Libraries/STM32F10x_StdPeriph_Driver/src/stm32f10x_i2c.c **** 
  76:./Libraries/STM32F10x_StdPeriph_Driver/src/stm32f10x_i2c.c **** /* I2C ENPEC mask */
  77:./Libraries/STM32F10x_StdPeriph_Driver/src/stm32f10x_i2c.c **** #define CR1_ENPEC_Set           ((uint16_t)0x0020)
  78:./Libraries/STM32F10x_StdPeriph_Driver/src/stm32f10x_i2c.c **** #define CR1_ENPEC_Reset         ((uint16_t)0xFFDF)
  79:./Libraries/STM32F10x_StdPeriph_Driver/src/stm32f10x_i2c.c **** 
  80:./Libraries/STM32F10x_StdPeriph_Driver/src/stm32f10x_i2c.c **** /* I2C ENARP mask */
  81:./Libraries/STM32F10x_StdPeriph_Driver/src/stm32f10x_i2c.c **** #define CR1_ENARP_Set           ((uint16_t)0x0010)
  82:./Libraries/STM32F10x_StdPeriph_Driver/src/stm32f10x_i2c.c **** #define CR1_ENARP_Reset         ((uint16_t)0xFFEF)
  83:./Libraries/STM32F10x_StdPeriph_Driver/src/stm32f10x_i2c.c **** 
  84:./Libraries/STM32F10x_StdPeriph_Driver/src/stm32f10x_i2c.c **** /* I2C NOSTRETCH mask */
  85:./Libraries/STM32F10x_StdPeriph_Driver/src/stm32f10x_i2c.c **** #define CR1_NOSTRETCH_Set       ((uint16_t)0x0080)
  86:./Libraries/STM32F10x_StdPeriph_Driver/src/stm32f10x_i2c.c **** #define CR1_NOSTRETCH_Reset     ((uint16_t)0xFF7F)
  87:./Libraries/STM32F10x_StdPeriph_Driver/src/stm32f10x_i2c.c **** 
  88:./Libraries/STM32F10x_StdPeriph_Driver/src/stm32f10x_i2c.c **** /* I2C registers Masks */
ARM GAS  /tmp/cctrGC4Q.s 			page 3


  89:./Libraries/STM32F10x_StdPeriph_Driver/src/stm32f10x_i2c.c **** #define CR1_CLEAR_Mask          ((uint16_t)0xFBF5)
  90:./Libraries/STM32F10x_StdPeriph_Driver/src/stm32f10x_i2c.c **** 
  91:./Libraries/STM32F10x_StdPeriph_Driver/src/stm32f10x_i2c.c **** /* I2C DMAEN mask */
  92:./Libraries/STM32F10x_StdPeriph_Driver/src/stm32f10x_i2c.c **** #define CR2_DMAEN_Set           ((uint16_t)0x0800)
  93:./Libraries/STM32F10x_StdPeriph_Driver/src/stm32f10x_i2c.c **** #define CR2_DMAEN_Reset         ((uint16_t)0xF7FF)
  94:./Libraries/STM32F10x_StdPeriph_Driver/src/stm32f10x_i2c.c **** 
  95:./Libraries/STM32F10x_StdPeriph_Driver/src/stm32f10x_i2c.c **** /* I2C LAST mask */
  96:./Libraries/STM32F10x_StdPeriph_Driver/src/stm32f10x_i2c.c **** #define CR2_LAST_Set            ((uint16_t)0x1000)
  97:./Libraries/STM32F10x_StdPeriph_Driver/src/stm32f10x_i2c.c **** #define CR2_LAST_Reset          ((uint16_t)0xEFFF)
  98:./Libraries/STM32F10x_StdPeriph_Driver/src/stm32f10x_i2c.c **** 
  99:./Libraries/STM32F10x_StdPeriph_Driver/src/stm32f10x_i2c.c **** /* I2C FREQ mask */
 100:./Libraries/STM32F10x_StdPeriph_Driver/src/stm32f10x_i2c.c **** #define CR2_FREQ_Reset          ((uint16_t)0xFFC0)
 101:./Libraries/STM32F10x_StdPeriph_Driver/src/stm32f10x_i2c.c **** 
 102:./Libraries/STM32F10x_StdPeriph_Driver/src/stm32f10x_i2c.c **** /* I2C ADD0 mask */
 103:./Libraries/STM32F10x_StdPeriph_Driver/src/stm32f10x_i2c.c **** #define OAR1_ADD0_Set           ((uint16_t)0x0001)
 104:./Libraries/STM32F10x_StdPeriph_Driver/src/stm32f10x_i2c.c **** #define OAR1_ADD0_Reset         ((uint16_t)0xFFFE)
 105:./Libraries/STM32F10x_StdPeriph_Driver/src/stm32f10x_i2c.c **** 
 106:./Libraries/STM32F10x_StdPeriph_Driver/src/stm32f10x_i2c.c **** /* I2C ENDUAL mask */
 107:./Libraries/STM32F10x_StdPeriph_Driver/src/stm32f10x_i2c.c **** #define OAR2_ENDUAL_Set         ((uint16_t)0x0001)
 108:./Libraries/STM32F10x_StdPeriph_Driver/src/stm32f10x_i2c.c **** #define OAR2_ENDUAL_Reset       ((uint16_t)0xFFFE)
 109:./Libraries/STM32F10x_StdPeriph_Driver/src/stm32f10x_i2c.c **** 
 110:./Libraries/STM32F10x_StdPeriph_Driver/src/stm32f10x_i2c.c **** /* I2C ADD2 mask */
 111:./Libraries/STM32F10x_StdPeriph_Driver/src/stm32f10x_i2c.c **** #define OAR2_ADD2_Reset         ((uint16_t)0xFF01)
 112:./Libraries/STM32F10x_StdPeriph_Driver/src/stm32f10x_i2c.c **** 
 113:./Libraries/STM32F10x_StdPeriph_Driver/src/stm32f10x_i2c.c **** /* I2C F/S mask */
 114:./Libraries/STM32F10x_StdPeriph_Driver/src/stm32f10x_i2c.c **** #define CCR_FS_Set              ((uint16_t)0x8000)
 115:./Libraries/STM32F10x_StdPeriph_Driver/src/stm32f10x_i2c.c **** 
 116:./Libraries/STM32F10x_StdPeriph_Driver/src/stm32f10x_i2c.c **** /* I2C CCR mask */
 117:./Libraries/STM32F10x_StdPeriph_Driver/src/stm32f10x_i2c.c **** #define CCR_CCR_Set             ((uint16_t)0x0FFF)
 118:./Libraries/STM32F10x_StdPeriph_Driver/src/stm32f10x_i2c.c **** 
 119:./Libraries/STM32F10x_StdPeriph_Driver/src/stm32f10x_i2c.c **** /* I2C FLAG mask */
 120:./Libraries/STM32F10x_StdPeriph_Driver/src/stm32f10x_i2c.c **** #define FLAG_Mask               ((uint32_t)0x00FFFFFF)
 121:./Libraries/STM32F10x_StdPeriph_Driver/src/stm32f10x_i2c.c **** 
 122:./Libraries/STM32F10x_StdPeriph_Driver/src/stm32f10x_i2c.c **** /* I2C Interrupt Enable mask */
 123:./Libraries/STM32F10x_StdPeriph_Driver/src/stm32f10x_i2c.c **** #define ITEN_Mask               ((uint32_t)0x07000000)
 124:./Libraries/STM32F10x_StdPeriph_Driver/src/stm32f10x_i2c.c **** 
 125:./Libraries/STM32F10x_StdPeriph_Driver/src/stm32f10x_i2c.c **** /**
 126:./Libraries/STM32F10x_StdPeriph_Driver/src/stm32f10x_i2c.c ****   * @}
 127:./Libraries/STM32F10x_StdPeriph_Driver/src/stm32f10x_i2c.c ****   */
 128:./Libraries/STM32F10x_StdPeriph_Driver/src/stm32f10x_i2c.c **** 
 129:./Libraries/STM32F10x_StdPeriph_Driver/src/stm32f10x_i2c.c **** /** @defgroup I2C_Private_Macros
 130:./Libraries/STM32F10x_StdPeriph_Driver/src/stm32f10x_i2c.c ****   * @{
 131:./Libraries/STM32F10x_StdPeriph_Driver/src/stm32f10x_i2c.c ****   */
 132:./Libraries/STM32F10x_StdPeriph_Driver/src/stm32f10x_i2c.c **** 
 133:./Libraries/STM32F10x_StdPeriph_Driver/src/stm32f10x_i2c.c **** /**
 134:./Libraries/STM32F10x_StdPeriph_Driver/src/stm32f10x_i2c.c ****   * @}
 135:./Libraries/STM32F10x_StdPeriph_Driver/src/stm32f10x_i2c.c ****   */
 136:./Libraries/STM32F10x_StdPeriph_Driver/src/stm32f10x_i2c.c **** 
 137:./Libraries/STM32F10x_StdPeriph_Driver/src/stm32f10x_i2c.c **** /** @defgroup I2C_Private_Variables
 138:./Libraries/STM32F10x_StdPeriph_Driver/src/stm32f10x_i2c.c ****   * @{
 139:./Libraries/STM32F10x_StdPeriph_Driver/src/stm32f10x_i2c.c ****   */
 140:./Libraries/STM32F10x_StdPeriph_Driver/src/stm32f10x_i2c.c **** 
 141:./Libraries/STM32F10x_StdPeriph_Driver/src/stm32f10x_i2c.c **** /**
 142:./Libraries/STM32F10x_StdPeriph_Driver/src/stm32f10x_i2c.c ****   * @}
 143:./Libraries/STM32F10x_StdPeriph_Driver/src/stm32f10x_i2c.c ****   */
 144:./Libraries/STM32F10x_StdPeriph_Driver/src/stm32f10x_i2c.c **** 
 145:./Libraries/STM32F10x_StdPeriph_Driver/src/stm32f10x_i2c.c **** /** @defgroup I2C_Private_FunctionPrototypes
ARM GAS  /tmp/cctrGC4Q.s 			page 4


 146:./Libraries/STM32F10x_StdPeriph_Driver/src/stm32f10x_i2c.c ****   * @{
 147:./Libraries/STM32F10x_StdPeriph_Driver/src/stm32f10x_i2c.c ****   */
 148:./Libraries/STM32F10x_StdPeriph_Driver/src/stm32f10x_i2c.c **** 
 149:./Libraries/STM32F10x_StdPeriph_Driver/src/stm32f10x_i2c.c **** /**
 150:./Libraries/STM32F10x_StdPeriph_Driver/src/stm32f10x_i2c.c ****   * @}
 151:./Libraries/STM32F10x_StdPeriph_Driver/src/stm32f10x_i2c.c ****   */
 152:./Libraries/STM32F10x_StdPeriph_Driver/src/stm32f10x_i2c.c **** 
 153:./Libraries/STM32F10x_StdPeriph_Driver/src/stm32f10x_i2c.c **** /** @defgroup I2C_Private_Functions
 154:./Libraries/STM32F10x_StdPeriph_Driver/src/stm32f10x_i2c.c ****   * @{
 155:./Libraries/STM32F10x_StdPeriph_Driver/src/stm32f10x_i2c.c ****   */
 156:./Libraries/STM32F10x_StdPeriph_Driver/src/stm32f10x_i2c.c **** 
 157:./Libraries/STM32F10x_StdPeriph_Driver/src/stm32f10x_i2c.c **** /**
 158:./Libraries/STM32F10x_StdPeriph_Driver/src/stm32f10x_i2c.c ****   * @brief  Deinitializes the I2Cx peripheral registers to their default reset values.
 159:./Libraries/STM32F10x_StdPeriph_Driver/src/stm32f10x_i2c.c ****   * @param  I2Cx: where x can be 1 or 2 to select the I2C peripheral.
 160:./Libraries/STM32F10x_StdPeriph_Driver/src/stm32f10x_i2c.c ****   * @retval None
 161:./Libraries/STM32F10x_StdPeriph_Driver/src/stm32f10x_i2c.c ****   */
 162:./Libraries/STM32F10x_StdPeriph_Driver/src/stm32f10x_i2c.c **** void I2C_DeInit(I2C_TypeDef* I2Cx)
 163:./Libraries/STM32F10x_StdPeriph_Driver/src/stm32f10x_i2c.c **** {
  28              		.loc 1 163 1 view -0
  29              		.cfi_startproc
  30              		@ args = 0, pretend = 0, frame = 0
  31              		@ frame_needed = 0, uses_anonymous_args = 0
  32              		.loc 1 163 1 is_stmt 0 view .LVU1
  33 0000 08B5     		push	{r3, lr}
  34              	.LCFI0:
  35              		.cfi_def_cfa_offset 8
  36              		.cfi_offset 3, -8
  37              		.cfi_offset 14, -4
 164:./Libraries/STM32F10x_StdPeriph_Driver/src/stm32f10x_i2c.c ****   /* Check the parameters */
 165:./Libraries/STM32F10x_StdPeriph_Driver/src/stm32f10x_i2c.c ****   assert_param(IS_I2C_ALL_PERIPH(I2Cx));
  38              		.loc 1 165 3 is_stmt 1 view .LVU2
 166:./Libraries/STM32F10x_StdPeriph_Driver/src/stm32f10x_i2c.c **** 
 167:./Libraries/STM32F10x_StdPeriph_Driver/src/stm32f10x_i2c.c ****   if (I2Cx == I2C1)
  39              		.loc 1 167 3 view .LVU3
  40              		.loc 1 167 6 is_stmt 0 view .LVU4
  41 0002 0C4B     		ldr	r3, .L6
  42 0004 9842     		cmp	r0, r3
  43 0006 0AD0     		beq	.L5
 168:./Libraries/STM32F10x_StdPeriph_Driver/src/stm32f10x_i2c.c ****   {
 169:./Libraries/STM32F10x_StdPeriph_Driver/src/stm32f10x_i2c.c ****     /* Enable I2C1 reset state */
 170:./Libraries/STM32F10x_StdPeriph_Driver/src/stm32f10x_i2c.c ****     RCC_APB1PeriphResetCmd(RCC_APB1Periph_I2C1, ENABLE);
 171:./Libraries/STM32F10x_StdPeriph_Driver/src/stm32f10x_i2c.c ****     /* Release I2C1 from reset state */
 172:./Libraries/STM32F10x_StdPeriph_Driver/src/stm32f10x_i2c.c ****     RCC_APB1PeriphResetCmd(RCC_APB1Periph_I2C1, DISABLE);
 173:./Libraries/STM32F10x_StdPeriph_Driver/src/stm32f10x_i2c.c ****   }
 174:./Libraries/STM32F10x_StdPeriph_Driver/src/stm32f10x_i2c.c ****   else
 175:./Libraries/STM32F10x_StdPeriph_Driver/src/stm32f10x_i2c.c ****   {
 176:./Libraries/STM32F10x_StdPeriph_Driver/src/stm32f10x_i2c.c ****     /* Enable I2C2 reset state */
 177:./Libraries/STM32F10x_StdPeriph_Driver/src/stm32f10x_i2c.c ****     RCC_APB1PeriphResetCmd(RCC_APB1Periph_I2C2, ENABLE);
  44              		.loc 1 177 5 is_stmt 1 view .LVU5
  45 0008 0121     		movs	r1, #1
  46 000a 4FF48000 		mov	r0, #4194304
  47              	.LVL1:
  48              		.loc 1 177 5 is_stmt 0 view .LVU6
  49 000e FFF7FEFF 		bl	RCC_APB1PeriphResetCmd
  50              	.LVL2:
 178:./Libraries/STM32F10x_StdPeriph_Driver/src/stm32f10x_i2c.c ****     /* Release I2C2 from reset state */
 179:./Libraries/STM32F10x_StdPeriph_Driver/src/stm32f10x_i2c.c ****     RCC_APB1PeriphResetCmd(RCC_APB1Periph_I2C2, DISABLE);
ARM GAS  /tmp/cctrGC4Q.s 			page 5


  51              		.loc 1 179 5 is_stmt 1 view .LVU7
  52 0012 0021     		movs	r1, #0
  53 0014 4FF48000 		mov	r0, #4194304
  54 0018 FFF7FEFF 		bl	RCC_APB1PeriphResetCmd
  55              	.LVL3:
  56              	.L1:
 180:./Libraries/STM32F10x_StdPeriph_Driver/src/stm32f10x_i2c.c ****   }
 181:./Libraries/STM32F10x_StdPeriph_Driver/src/stm32f10x_i2c.c **** }
  57              		.loc 1 181 1 is_stmt 0 view .LVU8
  58 001c 08BD     		pop	{r3, pc}
  59              	.LVL4:
  60              	.L5:
 170:./Libraries/STM32F10x_StdPeriph_Driver/src/stm32f10x_i2c.c ****     /* Release I2C1 from reset state */
  61              		.loc 1 170 5 is_stmt 1 view .LVU9
  62 001e 0121     		movs	r1, #1
  63 0020 4FF40010 		mov	r0, #2097152
  64              	.LVL5:
 170:./Libraries/STM32F10x_StdPeriph_Driver/src/stm32f10x_i2c.c ****     /* Release I2C1 from reset state */
  65              		.loc 1 170 5 is_stmt 0 view .LVU10
  66 0024 FFF7FEFF 		bl	RCC_APB1PeriphResetCmd
  67              	.LVL6:
 172:./Libraries/STM32F10x_StdPeriph_Driver/src/stm32f10x_i2c.c ****   }
  68              		.loc 1 172 5 is_stmt 1 view .LVU11
  69 0028 0021     		movs	r1, #0
  70 002a 4FF40010 		mov	r0, #2097152
  71 002e FFF7FEFF 		bl	RCC_APB1PeriphResetCmd
  72              	.LVL7:
  73 0032 F3E7     		b	.L1
  74              	.L7:
  75              		.align	2
  76              	.L6:
  77 0034 00540040 		.word	1073763328
  78              		.cfi_endproc
  79              	.LFE29:
  81              		.section	.text.I2C_Init,"ax",%progbits
  82              		.align	1
  83              		.global	I2C_Init
  84              		.syntax unified
  85              		.thumb
  86              		.thumb_func
  87              		.fpu softvfp
  89              	I2C_Init:
  90              	.LVL8:
  91              	.LFB30:
 182:./Libraries/STM32F10x_StdPeriph_Driver/src/stm32f10x_i2c.c **** 
 183:./Libraries/STM32F10x_StdPeriph_Driver/src/stm32f10x_i2c.c **** /**
 184:./Libraries/STM32F10x_StdPeriph_Driver/src/stm32f10x_i2c.c ****   * @brief  Initializes the I2Cx peripheral according to the specified 
 185:./Libraries/STM32F10x_StdPeriph_Driver/src/stm32f10x_i2c.c ****   *   parameters in the I2C_InitStruct.
 186:./Libraries/STM32F10x_StdPeriph_Driver/src/stm32f10x_i2c.c ****   * @param  I2Cx: where x can be 1 or 2 to select the I2C peripheral.
 187:./Libraries/STM32F10x_StdPeriph_Driver/src/stm32f10x_i2c.c ****   * @param  I2C_InitStruct: pointer to a I2C_InitTypeDef structure that
 188:./Libraries/STM32F10x_StdPeriph_Driver/src/stm32f10x_i2c.c ****   *   contains the configuration information for the specified I2C peripheral.
 189:./Libraries/STM32F10x_StdPeriph_Driver/src/stm32f10x_i2c.c ****   * @retval None
 190:./Libraries/STM32F10x_StdPeriph_Driver/src/stm32f10x_i2c.c ****   */
 191:./Libraries/STM32F10x_StdPeriph_Driver/src/stm32f10x_i2c.c **** void I2C_Init(I2C_TypeDef* I2Cx, I2C_InitTypeDef* I2C_InitStruct)
 192:./Libraries/STM32F10x_StdPeriph_Driver/src/stm32f10x_i2c.c **** {
  92              		.loc 1 192 1 view -0
  93              		.cfi_startproc
ARM GAS  /tmp/cctrGC4Q.s 			page 6


  94              		@ args = 0, pretend = 0, frame = 24
  95              		@ frame_needed = 0, uses_anonymous_args = 0
  96              		.loc 1 192 1 is_stmt 0 view .LVU13
  97 0000 70B5     		push	{r4, r5, r6, lr}
  98              	.LCFI1:
  99              		.cfi_def_cfa_offset 16
 100              		.cfi_offset 4, -16
 101              		.cfi_offset 5, -12
 102              		.cfi_offset 6, -8
 103              		.cfi_offset 14, -4
 104 0002 86B0     		sub	sp, sp, #24
 105              	.LCFI2:
 106              		.cfi_def_cfa_offset 40
 107 0004 0446     		mov	r4, r0
 108 0006 0D46     		mov	r5, r1
 193:./Libraries/STM32F10x_StdPeriph_Driver/src/stm32f10x_i2c.c ****   uint16_t tmpreg = 0, freqrange = 0;
 109              		.loc 1 193 3 is_stmt 1 view .LVU14
 110              	.LVL9:
 194:./Libraries/STM32F10x_StdPeriph_Driver/src/stm32f10x_i2c.c ****   uint16_t result = 0x04;
 111              		.loc 1 194 3 view .LVU15
 195:./Libraries/STM32F10x_StdPeriph_Driver/src/stm32f10x_i2c.c ****   uint32_t pclk1 = 8000000;
 112              		.loc 1 195 3 view .LVU16
 196:./Libraries/STM32F10x_StdPeriph_Driver/src/stm32f10x_i2c.c ****   RCC_ClocksTypeDef  rcc_clocks;
 113              		.loc 1 196 3 view .LVU17
 197:./Libraries/STM32F10x_StdPeriph_Driver/src/stm32f10x_i2c.c ****   /* Check the parameters */
 198:./Libraries/STM32F10x_StdPeriph_Driver/src/stm32f10x_i2c.c ****   assert_param(IS_I2C_ALL_PERIPH(I2Cx));
 114              		.loc 1 198 3 view .LVU18
 199:./Libraries/STM32F10x_StdPeriph_Driver/src/stm32f10x_i2c.c ****   assert_param(IS_I2C_CLOCK_SPEED(I2C_InitStruct->I2C_ClockSpeed));
 115              		.loc 1 199 3 view .LVU19
 200:./Libraries/STM32F10x_StdPeriph_Driver/src/stm32f10x_i2c.c ****   assert_param(IS_I2C_MODE(I2C_InitStruct->I2C_Mode));
 116              		.loc 1 200 3 view .LVU20
 201:./Libraries/STM32F10x_StdPeriph_Driver/src/stm32f10x_i2c.c ****   assert_param(IS_I2C_DUTY_CYCLE(I2C_InitStruct->I2C_DutyCycle));
 117              		.loc 1 201 3 view .LVU21
 202:./Libraries/STM32F10x_StdPeriph_Driver/src/stm32f10x_i2c.c ****   assert_param(IS_I2C_OWN_ADDRESS1(I2C_InitStruct->I2C_OwnAddress1));
 118              		.loc 1 202 3 view .LVU22
 203:./Libraries/STM32F10x_StdPeriph_Driver/src/stm32f10x_i2c.c ****   assert_param(IS_I2C_ACK_STATE(I2C_InitStruct->I2C_Ack));
 119              		.loc 1 203 3 view .LVU23
 204:./Libraries/STM32F10x_StdPeriph_Driver/src/stm32f10x_i2c.c ****   assert_param(IS_I2C_ACKNOWLEDGE_ADDRESS(I2C_InitStruct->I2C_AcknowledgedAddress));
 120              		.loc 1 204 3 view .LVU24
 205:./Libraries/STM32F10x_StdPeriph_Driver/src/stm32f10x_i2c.c **** 
 206:./Libraries/STM32F10x_StdPeriph_Driver/src/stm32f10x_i2c.c **** /*---------------------------- I2Cx CR2 Configuration ------------------------*/
 207:./Libraries/STM32F10x_StdPeriph_Driver/src/stm32f10x_i2c.c ****   /* Get the I2Cx CR2 value */
 208:./Libraries/STM32F10x_StdPeriph_Driver/src/stm32f10x_i2c.c ****   tmpreg = I2Cx->CR2;
 121              		.loc 1 208 3 view .LVU25
 122              		.loc 1 208 10 is_stmt 0 view .LVU26
 123 0008 8688     		ldrh	r6, [r0, #4]
 124 000a B6B2     		uxth	r6, r6
 125              	.LVL10:
 209:./Libraries/STM32F10x_StdPeriph_Driver/src/stm32f10x_i2c.c ****   /* Clear frequency FREQ[5:0] bits */
 210:./Libraries/STM32F10x_StdPeriph_Driver/src/stm32f10x_i2c.c ****   tmpreg &= CR2_FREQ_Reset;
 126              		.loc 1 210 3 is_stmt 1 view .LVU27
 127              		.loc 1 210 10 is_stmt 0 view .LVU28
 128 000c 26F03F06 		bic	r6, r6, #63
 129              	.LVL11:
 130              		.loc 1 210 10 view .LVU29
 131 0010 B6B2     		uxth	r6, r6
 132              	.LVL12:
ARM GAS  /tmp/cctrGC4Q.s 			page 7


 211:./Libraries/STM32F10x_StdPeriph_Driver/src/stm32f10x_i2c.c ****   /* Get pclk1 frequency value */
 212:./Libraries/STM32F10x_StdPeriph_Driver/src/stm32f10x_i2c.c ****   RCC_GetClocksFreq(&rcc_clocks);
 133              		.loc 1 212 3 is_stmt 1 view .LVU30
 134 0012 01A8     		add	r0, sp, #4
 135              	.LVL13:
 136              		.loc 1 212 3 is_stmt 0 view .LVU31
 137 0014 FFF7FEFF 		bl	RCC_GetClocksFreq
 138              	.LVL14:
 213:./Libraries/STM32F10x_StdPeriph_Driver/src/stm32f10x_i2c.c ****   pclk1 = rcc_clocks.PCLK1_Frequency;
 139              		.loc 1 213 3 is_stmt 1 view .LVU32
 140              		.loc 1 213 9 is_stmt 0 view .LVU33
 141 0018 0398     		ldr	r0, [sp, #12]
 142              	.LVL15:
 214:./Libraries/STM32F10x_StdPeriph_Driver/src/stm32f10x_i2c.c ****   /* Set frequency bits depending on pclk1 value */
 215:./Libraries/STM32F10x_StdPeriph_Driver/src/stm32f10x_i2c.c ****   freqrange = (uint16_t)(pclk1 / 1000000);
 143              		.loc 1 215 3 is_stmt 1 view .LVU34
 144              		.loc 1 215 32 is_stmt 0 view .LVU35
 145 001a 2D4B     		ldr	r3, .L18
 146 001c A3FB0023 		umull	r2, r3, r3, r0
 147 0020 990C     		lsrs	r1, r3, #18
 148              	.LVL16:
 216:./Libraries/STM32F10x_StdPeriph_Driver/src/stm32f10x_i2c.c ****   tmpreg |= freqrange;
 149              		.loc 1 216 3 is_stmt 1 view .LVU36
 150              		.loc 1 216 10 is_stmt 0 view .LVU37
 151 0022 46EA9346 		orr	r6, r6, r3, lsr #18
 152              	.LVL17:
 217:./Libraries/STM32F10x_StdPeriph_Driver/src/stm32f10x_i2c.c ****   /* Write to I2Cx CR2 */
 218:./Libraries/STM32F10x_StdPeriph_Driver/src/stm32f10x_i2c.c ****   I2Cx->CR2 = tmpreg;
 153              		.loc 1 218 3 is_stmt 1 view .LVU38
 154              		.loc 1 218 13 is_stmt 0 view .LVU39
 155 0026 A680     		strh	r6, [r4, #4]	@ movhi
 219:./Libraries/STM32F10x_StdPeriph_Driver/src/stm32f10x_i2c.c **** 
 220:./Libraries/STM32F10x_StdPeriph_Driver/src/stm32f10x_i2c.c **** /*---------------------------- I2Cx CCR Configuration ------------------------*/
 221:./Libraries/STM32F10x_StdPeriph_Driver/src/stm32f10x_i2c.c ****   /* Disable the selected I2C peripheral to configure TRISE */
 222:./Libraries/STM32F10x_StdPeriph_Driver/src/stm32f10x_i2c.c ****   I2Cx->CR1 &= CR1_PE_Reset;
 156              		.loc 1 222 3 is_stmt 1 view .LVU40
 157              		.loc 1 222 13 is_stmt 0 view .LVU41
 158 0028 2288     		ldrh	r2, [r4]
 159 002a 92B2     		uxth	r2, r2
 160 002c 22F00102 		bic	r2, r2, #1
 161 0030 92B2     		uxth	r2, r2
 162 0032 2280     		strh	r2, [r4]	@ movhi
 223:./Libraries/STM32F10x_StdPeriph_Driver/src/stm32f10x_i2c.c ****   /* Reset tmpreg value */
 224:./Libraries/STM32F10x_StdPeriph_Driver/src/stm32f10x_i2c.c ****   /* Clear F/S, DUTY and CCR[11:0] bits */
 225:./Libraries/STM32F10x_StdPeriph_Driver/src/stm32f10x_i2c.c ****   tmpreg = 0;
 163              		.loc 1 225 3 is_stmt 1 view .LVU42
 164              	.LVL18:
 226:./Libraries/STM32F10x_StdPeriph_Driver/src/stm32f10x_i2c.c **** 
 227:./Libraries/STM32F10x_StdPeriph_Driver/src/stm32f10x_i2c.c ****   /* Configure speed in standard mode */
 228:./Libraries/STM32F10x_StdPeriph_Driver/src/stm32f10x_i2c.c ****   if (I2C_InitStruct->I2C_ClockSpeed <= 100000)
 165              		.loc 1 228 3 view .LVU43
 166              		.loc 1 228 21 is_stmt 0 view .LVU44
 167 0034 2B68     		ldr	r3, [r5]
 168              		.loc 1 228 6 view .LVU45
 169 0036 274A     		ldr	r2, .L18+4
 170 0038 9342     		cmp	r3, r2
 171 003a 22D8     		bhi	.L9
ARM GAS  /tmp/cctrGC4Q.s 			page 8


 172 003c 8C46     		mov	ip, r1
 229:./Libraries/STM32F10x_StdPeriph_Driver/src/stm32f10x_i2c.c ****   {
 230:./Libraries/STM32F10x_StdPeriph_Driver/src/stm32f10x_i2c.c ****     /* Standard mode speed calculate */
 231:./Libraries/STM32F10x_StdPeriph_Driver/src/stm32f10x_i2c.c ****     result = (uint16_t)(pclk1 / (I2C_InitStruct->I2C_ClockSpeed << 1));
 173              		.loc 1 231 5 is_stmt 1 view .LVU46
 174              		.loc 1 231 65 is_stmt 0 view .LVU47
 175 003e 5B00     		lsls	r3, r3, #1
 176              		.loc 1 231 31 view .LVU48
 177 0040 B0FBF3F3 		udiv	r3, r0, r3
 178              		.loc 1 231 12 view .LVU49
 179 0044 9BB2     		uxth	r3, r3
 180              	.LVL19:
 232:./Libraries/STM32F10x_StdPeriph_Driver/src/stm32f10x_i2c.c ****     /* Test if CCR value is under 0x4*/
 233:./Libraries/STM32F10x_StdPeriph_Driver/src/stm32f10x_i2c.c ****     if (result < 0x04)
 181              		.loc 1 233 5 is_stmt 1 view .LVU50
 182              		.loc 1 233 8 is_stmt 0 view .LVU51
 183 0046 032B     		cmp	r3, #3
 184 0048 00D8     		bhi	.L10
 234:./Libraries/STM32F10x_StdPeriph_Driver/src/stm32f10x_i2c.c ****     {
 235:./Libraries/STM32F10x_StdPeriph_Driver/src/stm32f10x_i2c.c ****       /* Set minimum allowed value */
 236:./Libraries/STM32F10x_StdPeriph_Driver/src/stm32f10x_i2c.c ****       result = 0x04;  
 185              		.loc 1 236 14 view .LVU52
 186 004a 0423     		movs	r3, #4
 187              	.LVL20:
 188              	.L10:
 237:./Libraries/STM32F10x_StdPeriph_Driver/src/stm32f10x_i2c.c ****     }
 238:./Libraries/STM32F10x_StdPeriph_Driver/src/stm32f10x_i2c.c ****     /* Set speed value for standard mode */
 239:./Libraries/STM32F10x_StdPeriph_Driver/src/stm32f10x_i2c.c ****     tmpreg |= result;	  
 189              		.loc 1 239 5 is_stmt 1 view .LVU53
 240:./Libraries/STM32F10x_StdPeriph_Driver/src/stm32f10x_i2c.c ****     /* Set Maximum Rise Time for standard mode */
 241:./Libraries/STM32F10x_StdPeriph_Driver/src/stm32f10x_i2c.c ****     I2Cx->TRISE = freqrange + 1; 
 190              		.loc 1 241 5 view .LVU54
 191              		.loc 1 241 29 is_stmt 0 view .LVU55
 192 004c 0CF1010C 		add	ip, ip, #1
 193              		.loc 1 241 17 view .LVU56
 194 0050 A4F820C0 		strh	ip, [r4, #32]	@ movhi
 195              	.LVL21:
 196              	.L11:
 242:./Libraries/STM32F10x_StdPeriph_Driver/src/stm32f10x_i2c.c ****   }
 243:./Libraries/STM32F10x_StdPeriph_Driver/src/stm32f10x_i2c.c ****   /* Configure speed in fast mode */
 244:./Libraries/STM32F10x_StdPeriph_Driver/src/stm32f10x_i2c.c ****   else /*(I2C_InitStruct->I2C_ClockSpeed <= 400000)*/
 245:./Libraries/STM32F10x_StdPeriph_Driver/src/stm32f10x_i2c.c ****   {
 246:./Libraries/STM32F10x_StdPeriph_Driver/src/stm32f10x_i2c.c ****     if (I2C_InitStruct->I2C_DutyCycle == I2C_DutyCycle_2)
 247:./Libraries/STM32F10x_StdPeriph_Driver/src/stm32f10x_i2c.c ****     {
 248:./Libraries/STM32F10x_StdPeriph_Driver/src/stm32f10x_i2c.c ****       /* Fast mode speed calculate: Tlow/Thigh = 2 */
 249:./Libraries/STM32F10x_StdPeriph_Driver/src/stm32f10x_i2c.c ****       result = (uint16_t)(pclk1 / (I2C_InitStruct->I2C_ClockSpeed * 3));
 250:./Libraries/STM32F10x_StdPeriph_Driver/src/stm32f10x_i2c.c ****     }
 251:./Libraries/STM32F10x_StdPeriph_Driver/src/stm32f10x_i2c.c ****     else /*I2C_InitStruct->I2C_DutyCycle == I2C_DutyCycle_16_9*/
 252:./Libraries/STM32F10x_StdPeriph_Driver/src/stm32f10x_i2c.c ****     {
 253:./Libraries/STM32F10x_StdPeriph_Driver/src/stm32f10x_i2c.c ****       /* Fast mode speed calculate: Tlow/Thigh = 16/9 */
 254:./Libraries/STM32F10x_StdPeriph_Driver/src/stm32f10x_i2c.c ****       result = (uint16_t)(pclk1 / (I2C_InitStruct->I2C_ClockSpeed * 25));
 255:./Libraries/STM32F10x_StdPeriph_Driver/src/stm32f10x_i2c.c ****       /* Set DUTY bit */
 256:./Libraries/STM32F10x_StdPeriph_Driver/src/stm32f10x_i2c.c ****       result |= I2C_DutyCycle_16_9;
 257:./Libraries/STM32F10x_StdPeriph_Driver/src/stm32f10x_i2c.c ****     }
 258:./Libraries/STM32F10x_StdPeriph_Driver/src/stm32f10x_i2c.c **** 
 259:./Libraries/STM32F10x_StdPeriph_Driver/src/stm32f10x_i2c.c ****     /* Test if CCR value is under 0x1*/
 260:./Libraries/STM32F10x_StdPeriph_Driver/src/stm32f10x_i2c.c ****     if ((result & CCR_CCR_Set) == 0)
ARM GAS  /tmp/cctrGC4Q.s 			page 9


 261:./Libraries/STM32F10x_StdPeriph_Driver/src/stm32f10x_i2c.c ****     {
 262:./Libraries/STM32F10x_StdPeriph_Driver/src/stm32f10x_i2c.c ****       /* Set minimum allowed value */
 263:./Libraries/STM32F10x_StdPeriph_Driver/src/stm32f10x_i2c.c ****       result |= (uint16_t)0x0001;  
 264:./Libraries/STM32F10x_StdPeriph_Driver/src/stm32f10x_i2c.c ****     }
 265:./Libraries/STM32F10x_StdPeriph_Driver/src/stm32f10x_i2c.c ****     /* Set speed value and set F/S bit for fast mode */
 266:./Libraries/STM32F10x_StdPeriph_Driver/src/stm32f10x_i2c.c ****     tmpreg |= (uint16_t)(result | CCR_FS_Set);
 267:./Libraries/STM32F10x_StdPeriph_Driver/src/stm32f10x_i2c.c ****     /* Set Maximum Rise Time for fast mode */
 268:./Libraries/STM32F10x_StdPeriph_Driver/src/stm32f10x_i2c.c ****     I2Cx->TRISE = (uint16_t)(((freqrange * (uint16_t)300) / (uint16_t)1000) + (uint16_t)1);  
 269:./Libraries/STM32F10x_StdPeriph_Driver/src/stm32f10x_i2c.c ****   }
 270:./Libraries/STM32F10x_StdPeriph_Driver/src/stm32f10x_i2c.c **** 
 271:./Libraries/STM32F10x_StdPeriph_Driver/src/stm32f10x_i2c.c ****   /* Write to I2Cx CCR */
 272:./Libraries/STM32F10x_StdPeriph_Driver/src/stm32f10x_i2c.c ****   I2Cx->CCR = tmpreg;
 197              		.loc 1 272 3 is_stmt 1 view .LVU57
 198              		.loc 1 272 13 is_stmt 0 view .LVU58
 199 0054 A383     		strh	r3, [r4, #28]	@ movhi
 273:./Libraries/STM32F10x_StdPeriph_Driver/src/stm32f10x_i2c.c ****   /* Enable the selected I2C peripheral */
 274:./Libraries/STM32F10x_StdPeriph_Driver/src/stm32f10x_i2c.c ****   I2Cx->CR1 |= CR1_PE_Set;
 200              		.loc 1 274 3 is_stmt 1 view .LVU59
 201              		.loc 1 274 13 is_stmt 0 view .LVU60
 202 0056 2388     		ldrh	r3, [r4]
 203              	.LVL22:
 204              		.loc 1 274 13 view .LVU61
 205 0058 9BB2     		uxth	r3, r3
 206 005a 43F00103 		orr	r3, r3, #1
 207 005e 2380     		strh	r3, [r4]	@ movhi
 208              	.LVL23:
 275:./Libraries/STM32F10x_StdPeriph_Driver/src/stm32f10x_i2c.c **** 
 276:./Libraries/STM32F10x_StdPeriph_Driver/src/stm32f10x_i2c.c **** /*---------------------------- I2Cx CR1 Configuration ------------------------*/
 277:./Libraries/STM32F10x_StdPeriph_Driver/src/stm32f10x_i2c.c ****   /* Get the I2Cx CR1 value */
 278:./Libraries/STM32F10x_StdPeriph_Driver/src/stm32f10x_i2c.c ****   tmpreg = I2Cx->CR1;
 209              		.loc 1 278 3 is_stmt 1 view .LVU62
 210              		.loc 1 278 10 is_stmt 0 view .LVU63
 211 0060 2388     		ldrh	r3, [r4]
 212 0062 9BB2     		uxth	r3, r3
 213              	.LVL24:
 279:./Libraries/STM32F10x_StdPeriph_Driver/src/stm32f10x_i2c.c ****   /* Clear ACK, SMBTYPE and  SMBUS bits */
 280:./Libraries/STM32F10x_StdPeriph_Driver/src/stm32f10x_i2c.c ****   tmpreg &= CR1_CLEAR_Mask;
 214              		.loc 1 280 3 is_stmt 1 view .LVU64
 215              		.loc 1 280 10 is_stmt 0 view .LVU65
 216 0064 23F48163 		bic	r3, r3, #1032
 217              	.LVL25:
 218              		.loc 1 280 10 view .LVU66
 219 0068 23F00203 		bic	r3, r3, #2
 220              	.LVL26:
 281:./Libraries/STM32F10x_StdPeriph_Driver/src/stm32f10x_i2c.c ****   /* Configure I2Cx: mode and acknowledgement */
 282:./Libraries/STM32F10x_StdPeriph_Driver/src/stm32f10x_i2c.c ****   /* Set SMBTYPE and SMBUS bits according to I2C_Mode value */
 283:./Libraries/STM32F10x_StdPeriph_Driver/src/stm32f10x_i2c.c ****   /* Set ACK bit according to I2C_Ack value */
 284:./Libraries/STM32F10x_StdPeriph_Driver/src/stm32f10x_i2c.c ****   tmpreg |= (uint16_t)((uint32_t)I2C_InitStruct->I2C_Mode | I2C_InitStruct->I2C_Ack);
 221              		.loc 1 284 3 is_stmt 1 view .LVU67
 222              		.loc 1 284 48 is_stmt 0 view .LVU68
 223 006c AA88     		ldrh	r2, [r5, #4]
 224              		.loc 1 284 75 view .LVU69
 225 006e 6989     		ldrh	r1, [r5, #10]
 226              		.loc 1 284 13 view .LVU70
 227 0070 0A43     		orrs	r2, r2, r1
 228              		.loc 1 284 10 view .LVU71
 229 0072 1343     		orrs	r3, r3, r2
ARM GAS  /tmp/cctrGC4Q.s 			page 10


 230              	.LVL27:
 285:./Libraries/STM32F10x_StdPeriph_Driver/src/stm32f10x_i2c.c ****   /* Write to I2Cx CR1 */
 286:./Libraries/STM32F10x_StdPeriph_Driver/src/stm32f10x_i2c.c ****   I2Cx->CR1 = tmpreg;
 231              		.loc 1 286 3 is_stmt 1 view .LVU72
 232              		.loc 1 286 13 is_stmt 0 view .LVU73
 233 0074 2380     		strh	r3, [r4]	@ movhi
 287:./Libraries/STM32F10x_StdPeriph_Driver/src/stm32f10x_i2c.c **** 
 288:./Libraries/STM32F10x_StdPeriph_Driver/src/stm32f10x_i2c.c **** /*---------------------------- I2Cx OAR1 Configuration -----------------------*/
 289:./Libraries/STM32F10x_StdPeriph_Driver/src/stm32f10x_i2c.c ****   /* Set I2Cx Own Address1 and acknowledged address */
 290:./Libraries/STM32F10x_StdPeriph_Driver/src/stm32f10x_i2c.c ****   I2Cx->OAR1 = (I2C_InitStruct->I2C_AcknowledgedAddress | I2C_InitStruct->I2C_OwnAddress1);
 234              		.loc 1 290 3 is_stmt 1 view .LVU74
 235              		.loc 1 290 31 is_stmt 0 view .LVU75
 236 0076 AB89     		ldrh	r3, [r5, #12]
 237              	.LVL28:
 238              		.loc 1 290 73 view .LVU76
 239 0078 2A89     		ldrh	r2, [r5, #8]
 240              		.loc 1 290 14 view .LVU77
 241 007a 1343     		orrs	r3, r3, r2
 242 007c 2381     		strh	r3, [r4, #8]	@ movhi
 243              	.LVL29:
 291:./Libraries/STM32F10x_StdPeriph_Driver/src/stm32f10x_i2c.c **** }
 244              		.loc 1 291 1 view .LVU78
 245 007e 06B0     		add	sp, sp, #24
 246              	.LCFI3:
 247              		.cfi_remember_state
 248              		.cfi_def_cfa_offset 16
 249              		@ sp needed
 250 0080 70BD     		pop	{r4, r5, r6, pc}
 251              	.LVL30:
 252              	.L9:
 253              	.LCFI4:
 254              		.cfi_restore_state
 246:./Libraries/STM32F10x_StdPeriph_Driver/src/stm32f10x_i2c.c ****     {
 255              		.loc 1 246 5 is_stmt 1 view .LVU79
 246:./Libraries/STM32F10x_StdPeriph_Driver/src/stm32f10x_i2c.c ****     {
 256              		.loc 1 246 23 is_stmt 0 view .LVU80
 257 0082 EE88     		ldrh	r6, [r5, #6]
 246:./Libraries/STM32F10x_StdPeriph_Driver/src/stm32f10x_i2c.c ****     {
 258              		.loc 1 246 8 view .LVU81
 259 0084 4BF6FF72 		movw	r2, #49151
 260 0088 9642     		cmp	r6, r2
 261 008a 1BD0     		beq	.L17
 254:./Libraries/STM32F10x_StdPeriph_Driver/src/stm32f10x_i2c.c ****       /* Set DUTY bit */
 262              		.loc 1 254 7 is_stmt 1 view .LVU82
 254:./Libraries/STM32F10x_StdPeriph_Driver/src/stm32f10x_i2c.c ****       /* Set DUTY bit */
 263              		.loc 1 254 67 is_stmt 0 view .LVU83
 264 008c 03EB8303 		add	r3, r3, r3, lsl #2
 265 0090 03EB8303 		add	r3, r3, r3, lsl #2
 254:./Libraries/STM32F10x_StdPeriph_Driver/src/stm32f10x_i2c.c ****       /* Set DUTY bit */
 266              		.loc 1 254 33 view .LVU84
 267 0094 B0FBF3F3 		udiv	r3, r0, r3
 254:./Libraries/STM32F10x_StdPeriph_Driver/src/stm32f10x_i2c.c ****       /* Set DUTY bit */
 268              		.loc 1 254 14 view .LVU85
 269 0098 9BB2     		uxth	r3, r3
 270              	.LVL31:
 256:./Libraries/STM32F10x_StdPeriph_Driver/src/stm32f10x_i2c.c ****     }
 271              		.loc 1 256 7 is_stmt 1 view .LVU86
ARM GAS  /tmp/cctrGC4Q.s 			page 11


 256:./Libraries/STM32F10x_StdPeriph_Driver/src/stm32f10x_i2c.c ****     }
 272              		.loc 1 256 14 is_stmt 0 view .LVU87
 273 009a 43F48043 		orr	r3, r3, #16384
 274              	.LVL32:
 275              	.L13:
 260:./Libraries/STM32F10x_StdPeriph_Driver/src/stm32f10x_i2c.c ****     {
 276              		.loc 1 260 5 is_stmt 1 view .LVU88
 260:./Libraries/STM32F10x_StdPeriph_Driver/src/stm32f10x_i2c.c ****     {
 277              		.loc 1 260 8 is_stmt 0 view .LVU89
 278 009e C3F30B02 		ubfx	r2, r3, #0, #12
 279 00a2 0AB9     		cbnz	r2, .L14
 263:./Libraries/STM32F10x_StdPeriph_Driver/src/stm32f10x_i2c.c ****     }
 280              		.loc 1 263 7 is_stmt 1 view .LVU90
 263:./Libraries/STM32F10x_StdPeriph_Driver/src/stm32f10x_i2c.c ****     }
 281              		.loc 1 263 14 is_stmt 0 view .LVU91
 282 00a4 43F00103 		orr	r3, r3, #1
 283              	.LVL33:
 284              	.L14:
 266:./Libraries/STM32F10x_StdPeriph_Driver/src/stm32f10x_i2c.c ****     /* Set Maximum Rise Time for fast mode */
 285              		.loc 1 266 5 is_stmt 1 view .LVU92
 266:./Libraries/STM32F10x_StdPeriph_Driver/src/stm32f10x_i2c.c ****     /* Set Maximum Rise Time for fast mode */
 286              		.loc 1 266 12 is_stmt 0 view .LVU93
 287 00a8 43F40043 		orr	r3, r3, #32768
 288              	.LVL34:
 268:./Libraries/STM32F10x_StdPeriph_Driver/src/stm32f10x_i2c.c ****   }
 289              		.loc 1 268 5 is_stmt 1 view .LVU94
 268:./Libraries/STM32F10x_StdPeriph_Driver/src/stm32f10x_i2c.c ****   }
 290              		.loc 1 268 42 is_stmt 0 view .LVU95
 291 00ac 4FF49672 		mov	r2, #300
 292 00b0 01FB02F2 		mul	r2, r1, r2
 268:./Libraries/STM32F10x_StdPeriph_Driver/src/stm32f10x_i2c.c ****   }
 293              		.loc 1 268 59 view .LVU96
 294 00b4 0849     		ldr	r1, .L18+8
 295              	.LVL35:
 268:./Libraries/STM32F10x_StdPeriph_Driver/src/stm32f10x_i2c.c ****   }
 296              		.loc 1 268 59 view .LVU97
 297 00b6 81FB0212 		smull	r1, r2, r1, r2
 298 00ba 9211     		asrs	r2, r2, #6
 268:./Libraries/STM32F10x_StdPeriph_Driver/src/stm32f10x_i2c.c ****   }
 299              		.loc 1 268 19 view .LVU98
 300 00bc 0132     		adds	r2, r2, #1
 301 00be 92B2     		uxth	r2, r2
 268:./Libraries/STM32F10x_StdPeriph_Driver/src/stm32f10x_i2c.c ****   }
 302              		.loc 1 268 17 view .LVU99
 303 00c0 2284     		strh	r2, [r4, #32]	@ movhi
 304 00c2 C7E7     		b	.L11
 305              	.LVL36:
 306              	.L17:
 249:./Libraries/STM32F10x_StdPeriph_Driver/src/stm32f10x_i2c.c ****     }
 307              		.loc 1 249 7 is_stmt 1 view .LVU100
 249:./Libraries/STM32F10x_StdPeriph_Driver/src/stm32f10x_i2c.c ****     }
 308              		.loc 1 249 67 is_stmt 0 view .LVU101
 309 00c4 03EB4303 		add	r3, r3, r3, lsl #1
 249:./Libraries/STM32F10x_StdPeriph_Driver/src/stm32f10x_i2c.c ****     }
 310              		.loc 1 249 33 view .LVU102
 311 00c8 B0FBF3F3 		udiv	r3, r0, r3
 249:./Libraries/STM32F10x_StdPeriph_Driver/src/stm32f10x_i2c.c ****     }
ARM GAS  /tmp/cctrGC4Q.s 			page 12


 312              		.loc 1 249 14 view .LVU103
 313 00cc 9BB2     		uxth	r3, r3
 314              	.LVL37:
 249:./Libraries/STM32F10x_StdPeriph_Driver/src/stm32f10x_i2c.c ****     }
 315              		.loc 1 249 14 view .LVU104
 316 00ce E6E7     		b	.L13
 317              	.L19:
 318              		.align	2
 319              	.L18:
 320 00d0 83DE1B43 		.word	1125899907
 321 00d4 A0860100 		.word	100000
 322 00d8 D34D6210 		.word	274877907
 323              		.cfi_endproc
 324              	.LFE30:
 326              		.section	.text.I2C_StructInit,"ax",%progbits
 327              		.align	1
 328              		.global	I2C_StructInit
 329              		.syntax unified
 330              		.thumb
 331              		.thumb_func
 332              		.fpu softvfp
 334              	I2C_StructInit:
 335              	.LVL38:
 336              	.LFB31:
 292:./Libraries/STM32F10x_StdPeriph_Driver/src/stm32f10x_i2c.c **** 
 293:./Libraries/STM32F10x_StdPeriph_Driver/src/stm32f10x_i2c.c **** /**
 294:./Libraries/STM32F10x_StdPeriph_Driver/src/stm32f10x_i2c.c ****   * @brief  Fills each I2C_InitStruct member with its default value.
 295:./Libraries/STM32F10x_StdPeriph_Driver/src/stm32f10x_i2c.c ****   * @param  I2C_InitStruct: pointer to an I2C_InitTypeDef structure which will be initialized.
 296:./Libraries/STM32F10x_StdPeriph_Driver/src/stm32f10x_i2c.c ****   * @retval None
 297:./Libraries/STM32F10x_StdPeriph_Driver/src/stm32f10x_i2c.c ****   */
 298:./Libraries/STM32F10x_StdPeriph_Driver/src/stm32f10x_i2c.c **** void I2C_StructInit(I2C_InitTypeDef* I2C_InitStruct)
 299:./Libraries/STM32F10x_StdPeriph_Driver/src/stm32f10x_i2c.c **** {
 337              		.loc 1 299 1 is_stmt 1 view -0
 338              		.cfi_startproc
 339              		@ args = 0, pretend = 0, frame = 0
 340              		@ frame_needed = 0, uses_anonymous_args = 0
 341              		@ link register save eliminated.
 300:./Libraries/STM32F10x_StdPeriph_Driver/src/stm32f10x_i2c.c **** /*---------------- Reset I2C init structure parameters values ----------------*/
 301:./Libraries/STM32F10x_StdPeriph_Driver/src/stm32f10x_i2c.c ****   /* initialize the I2C_ClockSpeed member */
 302:./Libraries/STM32F10x_StdPeriph_Driver/src/stm32f10x_i2c.c ****   I2C_InitStruct->I2C_ClockSpeed = 5000;
 342              		.loc 1 302 3 view .LVU106
 343              		.loc 1 302 34 is_stmt 0 view .LVU107
 344 0000 41F28833 		movw	r3, #5000
 345 0004 0360     		str	r3, [r0]
 303:./Libraries/STM32F10x_StdPeriph_Driver/src/stm32f10x_i2c.c ****   /* Initialize the I2C_Mode member */
 304:./Libraries/STM32F10x_StdPeriph_Driver/src/stm32f10x_i2c.c ****   I2C_InitStruct->I2C_Mode = I2C_Mode_I2C;
 346              		.loc 1 304 3 is_stmt 1 view .LVU108
 347              		.loc 1 304 28 is_stmt 0 view .LVU109
 348 0006 0023     		movs	r3, #0
 349 0008 8380     		strh	r3, [r0, #4]	@ movhi
 305:./Libraries/STM32F10x_StdPeriph_Driver/src/stm32f10x_i2c.c ****   /* Initialize the I2C_DutyCycle member */
 306:./Libraries/STM32F10x_StdPeriph_Driver/src/stm32f10x_i2c.c ****   I2C_InitStruct->I2C_DutyCycle = I2C_DutyCycle_2;
 350              		.loc 1 306 3 is_stmt 1 view .LVU110
 351              		.loc 1 306 33 is_stmt 0 view .LVU111
 352 000a 4BF6FF72 		movw	r2, #49151
 353 000e C280     		strh	r2, [r0, #6]	@ movhi
 307:./Libraries/STM32F10x_StdPeriph_Driver/src/stm32f10x_i2c.c ****   /* Initialize the I2C_OwnAddress1 member */
ARM GAS  /tmp/cctrGC4Q.s 			page 13


 308:./Libraries/STM32F10x_StdPeriph_Driver/src/stm32f10x_i2c.c ****   I2C_InitStruct->I2C_OwnAddress1 = 0;
 354              		.loc 1 308 3 is_stmt 1 view .LVU112
 355              		.loc 1 308 35 is_stmt 0 view .LVU113
 356 0010 0381     		strh	r3, [r0, #8]	@ movhi
 309:./Libraries/STM32F10x_StdPeriph_Driver/src/stm32f10x_i2c.c ****   /* Initialize the I2C_Ack member */
 310:./Libraries/STM32F10x_StdPeriph_Driver/src/stm32f10x_i2c.c ****   I2C_InitStruct->I2C_Ack = I2C_Ack_Disable;
 357              		.loc 1 310 3 is_stmt 1 view .LVU114
 358              		.loc 1 310 27 is_stmt 0 view .LVU115
 359 0012 4381     		strh	r3, [r0, #10]	@ movhi
 311:./Libraries/STM32F10x_StdPeriph_Driver/src/stm32f10x_i2c.c ****   /* Initialize the I2C_AcknowledgedAddress member */
 312:./Libraries/STM32F10x_StdPeriph_Driver/src/stm32f10x_i2c.c ****   I2C_InitStruct->I2C_AcknowledgedAddress = I2C_AcknowledgedAddress_7bit;
 360              		.loc 1 312 3 is_stmt 1 view .LVU116
 361              		.loc 1 312 43 is_stmt 0 view .LVU117
 362 0014 4FF48043 		mov	r3, #16384
 363 0018 8381     		strh	r3, [r0, #12]	@ movhi
 313:./Libraries/STM32F10x_StdPeriph_Driver/src/stm32f10x_i2c.c **** }
 364              		.loc 1 313 1 view .LVU118
 365 001a 7047     		bx	lr
 366              		.cfi_endproc
 367              	.LFE31:
 369              		.section	.text.I2C_Cmd,"ax",%progbits
 370              		.align	1
 371              		.global	I2C_Cmd
 372              		.syntax unified
 373              		.thumb
 374              		.thumb_func
 375              		.fpu softvfp
 377              	I2C_Cmd:
 378              	.LVL39:
 379              	.LFB32:
 314:./Libraries/STM32F10x_StdPeriph_Driver/src/stm32f10x_i2c.c **** 
 315:./Libraries/STM32F10x_StdPeriph_Driver/src/stm32f10x_i2c.c **** /**
 316:./Libraries/STM32F10x_StdPeriph_Driver/src/stm32f10x_i2c.c ****   * @brief  Enables or disables the specified I2C peripheral.
 317:./Libraries/STM32F10x_StdPeriph_Driver/src/stm32f10x_i2c.c ****   * @param  I2Cx: where x can be 1 or 2 to select the I2C peripheral.
 318:./Libraries/STM32F10x_StdPeriph_Driver/src/stm32f10x_i2c.c ****   * @param  NewState: new state of the I2Cx peripheral. 
 319:./Libraries/STM32F10x_StdPeriph_Driver/src/stm32f10x_i2c.c ****   *   This parameter can be: ENABLE or DISABLE.
 320:./Libraries/STM32F10x_StdPeriph_Driver/src/stm32f10x_i2c.c ****   * @retval None
 321:./Libraries/STM32F10x_StdPeriph_Driver/src/stm32f10x_i2c.c ****   */
 322:./Libraries/STM32F10x_StdPeriph_Driver/src/stm32f10x_i2c.c **** void I2C_Cmd(I2C_TypeDef* I2Cx, FunctionalState NewState)
 323:./Libraries/STM32F10x_StdPeriph_Driver/src/stm32f10x_i2c.c **** {
 380              		.loc 1 323 1 is_stmt 1 view -0
 381              		.cfi_startproc
 382              		@ args = 0, pretend = 0, frame = 0
 383              		@ frame_needed = 0, uses_anonymous_args = 0
 384              		@ link register save eliminated.
 324:./Libraries/STM32F10x_StdPeriph_Driver/src/stm32f10x_i2c.c ****   /* Check the parameters */
 325:./Libraries/STM32F10x_StdPeriph_Driver/src/stm32f10x_i2c.c ****   assert_param(IS_I2C_ALL_PERIPH(I2Cx));
 385              		.loc 1 325 3 view .LVU120
 326:./Libraries/STM32F10x_StdPeriph_Driver/src/stm32f10x_i2c.c ****   assert_param(IS_FUNCTIONAL_STATE(NewState));
 386              		.loc 1 326 3 view .LVU121
 327:./Libraries/STM32F10x_StdPeriph_Driver/src/stm32f10x_i2c.c ****   if (NewState != DISABLE)
 387              		.loc 1 327 3 view .LVU122
 388              		.loc 1 327 6 is_stmt 0 view .LVU123
 389 0000 29B1     		cbz	r1, .L22
 328:./Libraries/STM32F10x_StdPeriph_Driver/src/stm32f10x_i2c.c ****   {
 329:./Libraries/STM32F10x_StdPeriph_Driver/src/stm32f10x_i2c.c ****     /* Enable the selected I2C peripheral */
 330:./Libraries/STM32F10x_StdPeriph_Driver/src/stm32f10x_i2c.c ****     I2Cx->CR1 |= CR1_PE_Set;
ARM GAS  /tmp/cctrGC4Q.s 			page 14


 390              		.loc 1 330 5 is_stmt 1 view .LVU124
 391              		.loc 1 330 15 is_stmt 0 view .LVU125
 392 0002 0388     		ldrh	r3, [r0]
 393 0004 9BB2     		uxth	r3, r3
 394 0006 43F00103 		orr	r3, r3, #1
 395 000a 0380     		strh	r3, [r0]	@ movhi
 396 000c 7047     		bx	lr
 397              	.L22:
 331:./Libraries/STM32F10x_StdPeriph_Driver/src/stm32f10x_i2c.c ****   }
 332:./Libraries/STM32F10x_StdPeriph_Driver/src/stm32f10x_i2c.c ****   else
 333:./Libraries/STM32F10x_StdPeriph_Driver/src/stm32f10x_i2c.c ****   {
 334:./Libraries/STM32F10x_StdPeriph_Driver/src/stm32f10x_i2c.c ****     /* Disable the selected I2C peripheral */
 335:./Libraries/STM32F10x_StdPeriph_Driver/src/stm32f10x_i2c.c ****     I2Cx->CR1 &= CR1_PE_Reset;
 398              		.loc 1 335 5 is_stmt 1 view .LVU126
 399              		.loc 1 335 15 is_stmt 0 view .LVU127
 400 000e 0388     		ldrh	r3, [r0]
 401 0010 9BB2     		uxth	r3, r3
 402 0012 23F00103 		bic	r3, r3, #1
 403 0016 9BB2     		uxth	r3, r3
 404 0018 0380     		strh	r3, [r0]	@ movhi
 336:./Libraries/STM32F10x_StdPeriph_Driver/src/stm32f10x_i2c.c ****   }
 337:./Libraries/STM32F10x_StdPeriph_Driver/src/stm32f10x_i2c.c **** }
 405              		.loc 1 337 1 view .LVU128
 406 001a 7047     		bx	lr
 407              		.cfi_endproc
 408              	.LFE32:
 410              		.section	.text.I2C_DMACmd,"ax",%progbits
 411              		.align	1
 412              		.global	I2C_DMACmd
 413              		.syntax unified
 414              		.thumb
 415              		.thumb_func
 416              		.fpu softvfp
 418              	I2C_DMACmd:
 419              	.LVL40:
 420              	.LFB33:
 338:./Libraries/STM32F10x_StdPeriph_Driver/src/stm32f10x_i2c.c **** 
 339:./Libraries/STM32F10x_StdPeriph_Driver/src/stm32f10x_i2c.c **** /**
 340:./Libraries/STM32F10x_StdPeriph_Driver/src/stm32f10x_i2c.c ****   * @brief  Enables or disables the specified I2C DMA requests.
 341:./Libraries/STM32F10x_StdPeriph_Driver/src/stm32f10x_i2c.c ****   * @param  I2Cx: where x can be 1 or 2 to select the I2C peripheral.
 342:./Libraries/STM32F10x_StdPeriph_Driver/src/stm32f10x_i2c.c ****   * @param  NewState: new state of the I2C DMA transfer.
 343:./Libraries/STM32F10x_StdPeriph_Driver/src/stm32f10x_i2c.c ****   *   This parameter can be: ENABLE or DISABLE.
 344:./Libraries/STM32F10x_StdPeriph_Driver/src/stm32f10x_i2c.c ****   * @retval None
 345:./Libraries/STM32F10x_StdPeriph_Driver/src/stm32f10x_i2c.c ****   */
 346:./Libraries/STM32F10x_StdPeriph_Driver/src/stm32f10x_i2c.c **** void I2C_DMACmd(I2C_TypeDef* I2Cx, FunctionalState NewState)
 347:./Libraries/STM32F10x_StdPeriph_Driver/src/stm32f10x_i2c.c **** {
 421              		.loc 1 347 1 is_stmt 1 view -0
 422              		.cfi_startproc
 423              		@ args = 0, pretend = 0, frame = 0
 424              		@ frame_needed = 0, uses_anonymous_args = 0
 425              		@ link register save eliminated.
 348:./Libraries/STM32F10x_StdPeriph_Driver/src/stm32f10x_i2c.c ****   /* Check the parameters */
 349:./Libraries/STM32F10x_StdPeriph_Driver/src/stm32f10x_i2c.c ****   assert_param(IS_I2C_ALL_PERIPH(I2Cx));
 426              		.loc 1 349 3 view .LVU130
 350:./Libraries/STM32F10x_StdPeriph_Driver/src/stm32f10x_i2c.c ****   assert_param(IS_FUNCTIONAL_STATE(NewState));
 427              		.loc 1 350 3 view .LVU131
 351:./Libraries/STM32F10x_StdPeriph_Driver/src/stm32f10x_i2c.c ****   if (NewState != DISABLE)
ARM GAS  /tmp/cctrGC4Q.s 			page 15


 428              		.loc 1 351 3 view .LVU132
 429              		.loc 1 351 6 is_stmt 0 view .LVU133
 430 0000 29B1     		cbz	r1, .L25
 352:./Libraries/STM32F10x_StdPeriph_Driver/src/stm32f10x_i2c.c ****   {
 353:./Libraries/STM32F10x_StdPeriph_Driver/src/stm32f10x_i2c.c ****     /* Enable the selected I2C DMA requests */
 354:./Libraries/STM32F10x_StdPeriph_Driver/src/stm32f10x_i2c.c ****     I2Cx->CR2 |= CR2_DMAEN_Set;
 431              		.loc 1 354 5 is_stmt 1 view .LVU134
 432              		.loc 1 354 15 is_stmt 0 view .LVU135
 433 0002 8388     		ldrh	r3, [r0, #4]
 434 0004 9BB2     		uxth	r3, r3
 435 0006 43F40063 		orr	r3, r3, #2048
 436 000a 8380     		strh	r3, [r0, #4]	@ movhi
 437 000c 7047     		bx	lr
 438              	.L25:
 355:./Libraries/STM32F10x_StdPeriph_Driver/src/stm32f10x_i2c.c ****   }
 356:./Libraries/STM32F10x_StdPeriph_Driver/src/stm32f10x_i2c.c ****   else
 357:./Libraries/STM32F10x_StdPeriph_Driver/src/stm32f10x_i2c.c ****   {
 358:./Libraries/STM32F10x_StdPeriph_Driver/src/stm32f10x_i2c.c ****     /* Disable the selected I2C DMA requests */
 359:./Libraries/STM32F10x_StdPeriph_Driver/src/stm32f10x_i2c.c ****     I2Cx->CR2 &= CR2_DMAEN_Reset;
 439              		.loc 1 359 5 is_stmt 1 view .LVU136
 440              		.loc 1 359 15 is_stmt 0 view .LVU137
 441 000e 8388     		ldrh	r3, [r0, #4]
 442 0010 9BB2     		uxth	r3, r3
 443 0012 23F40063 		bic	r3, r3, #2048
 444 0016 9BB2     		uxth	r3, r3
 445 0018 8380     		strh	r3, [r0, #4]	@ movhi
 360:./Libraries/STM32F10x_StdPeriph_Driver/src/stm32f10x_i2c.c ****   }
 361:./Libraries/STM32F10x_StdPeriph_Driver/src/stm32f10x_i2c.c **** }
 446              		.loc 1 361 1 view .LVU138
 447 001a 7047     		bx	lr
 448              		.cfi_endproc
 449              	.LFE33:
 451              		.section	.text.I2C_DMALastTransferCmd,"ax",%progbits
 452              		.align	1
 453              		.global	I2C_DMALastTransferCmd
 454              		.syntax unified
 455              		.thumb
 456              		.thumb_func
 457              		.fpu softvfp
 459              	I2C_DMALastTransferCmd:
 460              	.LVL41:
 461              	.LFB34:
 362:./Libraries/STM32F10x_StdPeriph_Driver/src/stm32f10x_i2c.c **** 
 363:./Libraries/STM32F10x_StdPeriph_Driver/src/stm32f10x_i2c.c **** /**
 364:./Libraries/STM32F10x_StdPeriph_Driver/src/stm32f10x_i2c.c ****   * @brief  Specifies if the next DMA transfer will be the last one.
 365:./Libraries/STM32F10x_StdPeriph_Driver/src/stm32f10x_i2c.c ****   * @param  I2Cx: where x can be 1 or 2 to select the I2C peripheral.
 366:./Libraries/STM32F10x_StdPeriph_Driver/src/stm32f10x_i2c.c ****   * @param  NewState: new state of the I2C DMA last transfer.
 367:./Libraries/STM32F10x_StdPeriph_Driver/src/stm32f10x_i2c.c ****   *   This parameter can be: ENABLE or DISABLE.
 368:./Libraries/STM32F10x_StdPeriph_Driver/src/stm32f10x_i2c.c ****   * @retval None
 369:./Libraries/STM32F10x_StdPeriph_Driver/src/stm32f10x_i2c.c ****   */
 370:./Libraries/STM32F10x_StdPeriph_Driver/src/stm32f10x_i2c.c **** void I2C_DMALastTransferCmd(I2C_TypeDef* I2Cx, FunctionalState NewState)
 371:./Libraries/STM32F10x_StdPeriph_Driver/src/stm32f10x_i2c.c **** {
 462              		.loc 1 371 1 is_stmt 1 view -0
 463              		.cfi_startproc
 464              		@ args = 0, pretend = 0, frame = 0
 465              		@ frame_needed = 0, uses_anonymous_args = 0
 466              		@ link register save eliminated.
ARM GAS  /tmp/cctrGC4Q.s 			page 16


 372:./Libraries/STM32F10x_StdPeriph_Driver/src/stm32f10x_i2c.c ****   /* Check the parameters */
 373:./Libraries/STM32F10x_StdPeriph_Driver/src/stm32f10x_i2c.c ****   assert_param(IS_I2C_ALL_PERIPH(I2Cx));
 467              		.loc 1 373 3 view .LVU140
 374:./Libraries/STM32F10x_StdPeriph_Driver/src/stm32f10x_i2c.c ****   assert_param(IS_FUNCTIONAL_STATE(NewState));
 468              		.loc 1 374 3 view .LVU141
 375:./Libraries/STM32F10x_StdPeriph_Driver/src/stm32f10x_i2c.c ****   if (NewState != DISABLE)
 469              		.loc 1 375 3 view .LVU142
 470              		.loc 1 375 6 is_stmt 0 view .LVU143
 471 0000 29B1     		cbz	r1, .L28
 376:./Libraries/STM32F10x_StdPeriph_Driver/src/stm32f10x_i2c.c ****   {
 377:./Libraries/STM32F10x_StdPeriph_Driver/src/stm32f10x_i2c.c ****     /* Next DMA transfer is the last transfer */
 378:./Libraries/STM32F10x_StdPeriph_Driver/src/stm32f10x_i2c.c ****     I2Cx->CR2 |= CR2_LAST_Set;
 472              		.loc 1 378 5 is_stmt 1 view .LVU144
 473              		.loc 1 378 15 is_stmt 0 view .LVU145
 474 0002 8388     		ldrh	r3, [r0, #4]
 475 0004 9BB2     		uxth	r3, r3
 476 0006 43F48053 		orr	r3, r3, #4096
 477 000a 8380     		strh	r3, [r0, #4]	@ movhi
 478 000c 7047     		bx	lr
 479              	.L28:
 379:./Libraries/STM32F10x_StdPeriph_Driver/src/stm32f10x_i2c.c ****   }
 380:./Libraries/STM32F10x_StdPeriph_Driver/src/stm32f10x_i2c.c ****   else
 381:./Libraries/STM32F10x_StdPeriph_Driver/src/stm32f10x_i2c.c ****   {
 382:./Libraries/STM32F10x_StdPeriph_Driver/src/stm32f10x_i2c.c ****     /* Next DMA transfer is not the last transfer */
 383:./Libraries/STM32F10x_StdPeriph_Driver/src/stm32f10x_i2c.c ****     I2Cx->CR2 &= CR2_LAST_Reset;
 480              		.loc 1 383 5 is_stmt 1 view .LVU146
 481              		.loc 1 383 15 is_stmt 0 view .LVU147
 482 000e 8388     		ldrh	r3, [r0, #4]
 483 0010 9BB2     		uxth	r3, r3
 484 0012 23F48053 		bic	r3, r3, #4096
 485 0016 9BB2     		uxth	r3, r3
 486 0018 8380     		strh	r3, [r0, #4]	@ movhi
 384:./Libraries/STM32F10x_StdPeriph_Driver/src/stm32f10x_i2c.c ****   }
 385:./Libraries/STM32F10x_StdPeriph_Driver/src/stm32f10x_i2c.c **** }
 487              		.loc 1 385 1 view .LVU148
 488 001a 7047     		bx	lr
 489              		.cfi_endproc
 490              	.LFE34:
 492              		.section	.text.I2C_GenerateSTART,"ax",%progbits
 493              		.align	1
 494              		.global	I2C_GenerateSTART
 495              		.syntax unified
 496              		.thumb
 497              		.thumb_func
 498              		.fpu softvfp
 500              	I2C_GenerateSTART:
 501              	.LVL42:
 502              	.LFB35:
 386:./Libraries/STM32F10x_StdPeriph_Driver/src/stm32f10x_i2c.c **** 
 387:./Libraries/STM32F10x_StdPeriph_Driver/src/stm32f10x_i2c.c **** /**
 388:./Libraries/STM32F10x_StdPeriph_Driver/src/stm32f10x_i2c.c ****   * @brief  Generates I2Cx communication START condition.
 389:./Libraries/STM32F10x_StdPeriph_Driver/src/stm32f10x_i2c.c ****   * @param  I2Cx: where x can be 1 or 2 to select the I2C peripheral.
 390:./Libraries/STM32F10x_StdPeriph_Driver/src/stm32f10x_i2c.c ****   * @param  NewState: new state of the I2C START condition generation.
 391:./Libraries/STM32F10x_StdPeriph_Driver/src/stm32f10x_i2c.c ****   *   This parameter can be: ENABLE or DISABLE.
 392:./Libraries/STM32F10x_StdPeriph_Driver/src/stm32f10x_i2c.c ****   * @retval None.
 393:./Libraries/STM32F10x_StdPeriph_Driver/src/stm32f10x_i2c.c ****   */
 394:./Libraries/STM32F10x_StdPeriph_Driver/src/stm32f10x_i2c.c **** void I2C_GenerateSTART(I2C_TypeDef* I2Cx, FunctionalState NewState)
ARM GAS  /tmp/cctrGC4Q.s 			page 17


 395:./Libraries/STM32F10x_StdPeriph_Driver/src/stm32f10x_i2c.c **** {
 503              		.loc 1 395 1 is_stmt 1 view -0
 504              		.cfi_startproc
 505              		@ args = 0, pretend = 0, frame = 0
 506              		@ frame_needed = 0, uses_anonymous_args = 0
 507              		@ link register save eliminated.
 396:./Libraries/STM32F10x_StdPeriph_Driver/src/stm32f10x_i2c.c ****   /* Check the parameters */
 397:./Libraries/STM32F10x_StdPeriph_Driver/src/stm32f10x_i2c.c ****   assert_param(IS_I2C_ALL_PERIPH(I2Cx));
 508              		.loc 1 397 3 view .LVU150
 398:./Libraries/STM32F10x_StdPeriph_Driver/src/stm32f10x_i2c.c ****   assert_param(IS_FUNCTIONAL_STATE(NewState));
 509              		.loc 1 398 3 view .LVU151
 399:./Libraries/STM32F10x_StdPeriph_Driver/src/stm32f10x_i2c.c ****   if (NewState != DISABLE)
 510              		.loc 1 399 3 view .LVU152
 511              		.loc 1 399 6 is_stmt 0 view .LVU153
 512 0000 29B1     		cbz	r1, .L31
 400:./Libraries/STM32F10x_StdPeriph_Driver/src/stm32f10x_i2c.c ****   {
 401:./Libraries/STM32F10x_StdPeriph_Driver/src/stm32f10x_i2c.c ****     /* Generate a START condition */
 402:./Libraries/STM32F10x_StdPeriph_Driver/src/stm32f10x_i2c.c ****     I2Cx->CR1 |= CR1_START_Set;
 513              		.loc 1 402 5 is_stmt 1 view .LVU154
 514              		.loc 1 402 15 is_stmt 0 view .LVU155
 515 0002 0388     		ldrh	r3, [r0]
 516 0004 9BB2     		uxth	r3, r3
 517 0006 43F48073 		orr	r3, r3, #256
 518 000a 0380     		strh	r3, [r0]	@ movhi
 519 000c 7047     		bx	lr
 520              	.L31:
 403:./Libraries/STM32F10x_StdPeriph_Driver/src/stm32f10x_i2c.c ****   }
 404:./Libraries/STM32F10x_StdPeriph_Driver/src/stm32f10x_i2c.c ****   else
 405:./Libraries/STM32F10x_StdPeriph_Driver/src/stm32f10x_i2c.c ****   {
 406:./Libraries/STM32F10x_StdPeriph_Driver/src/stm32f10x_i2c.c ****     /* Disable the START condition generation */
 407:./Libraries/STM32F10x_StdPeriph_Driver/src/stm32f10x_i2c.c ****     I2Cx->CR1 &= CR1_START_Reset;
 521              		.loc 1 407 5 is_stmt 1 view .LVU156
 522              		.loc 1 407 15 is_stmt 0 view .LVU157
 523 000e 0388     		ldrh	r3, [r0]
 524 0010 9BB2     		uxth	r3, r3
 525 0012 23F48073 		bic	r3, r3, #256
 526 0016 9BB2     		uxth	r3, r3
 527 0018 0380     		strh	r3, [r0]	@ movhi
 408:./Libraries/STM32F10x_StdPeriph_Driver/src/stm32f10x_i2c.c ****   }
 409:./Libraries/STM32F10x_StdPeriph_Driver/src/stm32f10x_i2c.c **** }
 528              		.loc 1 409 1 view .LVU158
 529 001a 7047     		bx	lr
 530              		.cfi_endproc
 531              	.LFE35:
 533              		.section	.text.I2C_GenerateSTOP,"ax",%progbits
 534              		.align	1
 535              		.global	I2C_GenerateSTOP
 536              		.syntax unified
 537              		.thumb
 538              		.thumb_func
 539              		.fpu softvfp
 541              	I2C_GenerateSTOP:
 542              	.LVL43:
 543              	.LFB36:
 410:./Libraries/STM32F10x_StdPeriph_Driver/src/stm32f10x_i2c.c **** 
 411:./Libraries/STM32F10x_StdPeriph_Driver/src/stm32f10x_i2c.c **** /**
 412:./Libraries/STM32F10x_StdPeriph_Driver/src/stm32f10x_i2c.c ****   * @brief  Generates I2Cx communication STOP condition.
ARM GAS  /tmp/cctrGC4Q.s 			page 18


 413:./Libraries/STM32F10x_StdPeriph_Driver/src/stm32f10x_i2c.c ****   * @param  I2Cx: where x can be 1 or 2 to select the I2C peripheral.
 414:./Libraries/STM32F10x_StdPeriph_Driver/src/stm32f10x_i2c.c ****   * @param  NewState: new state of the I2C STOP condition generation.
 415:./Libraries/STM32F10x_StdPeriph_Driver/src/stm32f10x_i2c.c ****   *   This parameter can be: ENABLE or DISABLE.
 416:./Libraries/STM32F10x_StdPeriph_Driver/src/stm32f10x_i2c.c ****   * @retval None.
 417:./Libraries/STM32F10x_StdPeriph_Driver/src/stm32f10x_i2c.c ****   */
 418:./Libraries/STM32F10x_StdPeriph_Driver/src/stm32f10x_i2c.c **** void I2C_GenerateSTOP(I2C_TypeDef* I2Cx, FunctionalState NewState)
 419:./Libraries/STM32F10x_StdPeriph_Driver/src/stm32f10x_i2c.c **** {
 544              		.loc 1 419 1 is_stmt 1 view -0
 545              		.cfi_startproc
 546              		@ args = 0, pretend = 0, frame = 0
 547              		@ frame_needed = 0, uses_anonymous_args = 0
 548              		@ link register save eliminated.
 420:./Libraries/STM32F10x_StdPeriph_Driver/src/stm32f10x_i2c.c ****   /* Check the parameters */
 421:./Libraries/STM32F10x_StdPeriph_Driver/src/stm32f10x_i2c.c ****   assert_param(IS_I2C_ALL_PERIPH(I2Cx));
 549              		.loc 1 421 3 view .LVU160
 422:./Libraries/STM32F10x_StdPeriph_Driver/src/stm32f10x_i2c.c ****   assert_param(IS_FUNCTIONAL_STATE(NewState));
 550              		.loc 1 422 3 view .LVU161
 423:./Libraries/STM32F10x_StdPeriph_Driver/src/stm32f10x_i2c.c ****   if (NewState != DISABLE)
 551              		.loc 1 423 3 view .LVU162
 552              		.loc 1 423 6 is_stmt 0 view .LVU163
 553 0000 29B1     		cbz	r1, .L34
 424:./Libraries/STM32F10x_StdPeriph_Driver/src/stm32f10x_i2c.c ****   {
 425:./Libraries/STM32F10x_StdPeriph_Driver/src/stm32f10x_i2c.c ****     /* Generate a STOP condition */
 426:./Libraries/STM32F10x_StdPeriph_Driver/src/stm32f10x_i2c.c ****     I2Cx->CR1 |= CR1_STOP_Set;
 554              		.loc 1 426 5 is_stmt 1 view .LVU164
 555              		.loc 1 426 15 is_stmt 0 view .LVU165
 556 0002 0388     		ldrh	r3, [r0]
 557 0004 9BB2     		uxth	r3, r3
 558 0006 43F40073 		orr	r3, r3, #512
 559 000a 0380     		strh	r3, [r0]	@ movhi
 560 000c 7047     		bx	lr
 561              	.L34:
 427:./Libraries/STM32F10x_StdPeriph_Driver/src/stm32f10x_i2c.c ****   }
 428:./Libraries/STM32F10x_StdPeriph_Driver/src/stm32f10x_i2c.c ****   else
 429:./Libraries/STM32F10x_StdPeriph_Driver/src/stm32f10x_i2c.c ****   {
 430:./Libraries/STM32F10x_StdPeriph_Driver/src/stm32f10x_i2c.c ****     /* Disable the STOP condition generation */
 431:./Libraries/STM32F10x_StdPeriph_Driver/src/stm32f10x_i2c.c ****     I2Cx->CR1 &= CR1_STOP_Reset;
 562              		.loc 1 431 5 is_stmt 1 view .LVU166
 563              		.loc 1 431 15 is_stmt 0 view .LVU167
 564 000e 0388     		ldrh	r3, [r0]
 565 0010 9BB2     		uxth	r3, r3
 566 0012 23F40073 		bic	r3, r3, #512
 567 0016 9BB2     		uxth	r3, r3
 568 0018 0380     		strh	r3, [r0]	@ movhi
 432:./Libraries/STM32F10x_StdPeriph_Driver/src/stm32f10x_i2c.c ****   }
 433:./Libraries/STM32F10x_StdPeriph_Driver/src/stm32f10x_i2c.c **** }
 569              		.loc 1 433 1 view .LVU168
 570 001a 7047     		bx	lr
 571              		.cfi_endproc
 572              	.LFE36:
 574              		.section	.text.I2C_AcknowledgeConfig,"ax",%progbits
 575              		.align	1
 576              		.global	I2C_AcknowledgeConfig
 577              		.syntax unified
 578              		.thumb
 579              		.thumb_func
 580              		.fpu softvfp
ARM GAS  /tmp/cctrGC4Q.s 			page 19


 582              	I2C_AcknowledgeConfig:
 583              	.LVL44:
 584              	.LFB37:
 434:./Libraries/STM32F10x_StdPeriph_Driver/src/stm32f10x_i2c.c **** 
 435:./Libraries/STM32F10x_StdPeriph_Driver/src/stm32f10x_i2c.c **** /**
 436:./Libraries/STM32F10x_StdPeriph_Driver/src/stm32f10x_i2c.c ****   * @brief  Enables or disables the specified I2C acknowledge feature.
 437:./Libraries/STM32F10x_StdPeriph_Driver/src/stm32f10x_i2c.c ****   * @param  I2Cx: where x can be 1 or 2 to select the I2C peripheral.
 438:./Libraries/STM32F10x_StdPeriph_Driver/src/stm32f10x_i2c.c ****   * @param  NewState: new state of the I2C Acknowledgement.
 439:./Libraries/STM32F10x_StdPeriph_Driver/src/stm32f10x_i2c.c ****   *   This parameter can be: ENABLE or DISABLE.
 440:./Libraries/STM32F10x_StdPeriph_Driver/src/stm32f10x_i2c.c ****   * @retval None.
 441:./Libraries/STM32F10x_StdPeriph_Driver/src/stm32f10x_i2c.c ****   */
 442:./Libraries/STM32F10x_StdPeriph_Driver/src/stm32f10x_i2c.c **** void I2C_AcknowledgeConfig(I2C_TypeDef* I2Cx, FunctionalState NewState)
 443:./Libraries/STM32F10x_StdPeriph_Driver/src/stm32f10x_i2c.c **** {
 585              		.loc 1 443 1 is_stmt 1 view -0
 586              		.cfi_startproc
 587              		@ args = 0, pretend = 0, frame = 0
 588              		@ frame_needed = 0, uses_anonymous_args = 0
 589              		@ link register save eliminated.
 444:./Libraries/STM32F10x_StdPeriph_Driver/src/stm32f10x_i2c.c ****   /* Check the parameters */
 445:./Libraries/STM32F10x_StdPeriph_Driver/src/stm32f10x_i2c.c ****   assert_param(IS_I2C_ALL_PERIPH(I2Cx));
 590              		.loc 1 445 3 view .LVU170
 446:./Libraries/STM32F10x_StdPeriph_Driver/src/stm32f10x_i2c.c ****   assert_param(IS_FUNCTIONAL_STATE(NewState));
 591              		.loc 1 446 3 view .LVU171
 447:./Libraries/STM32F10x_StdPeriph_Driver/src/stm32f10x_i2c.c ****   if (NewState != DISABLE)
 592              		.loc 1 447 3 view .LVU172
 593              		.loc 1 447 6 is_stmt 0 view .LVU173
 594 0000 29B1     		cbz	r1, .L37
 448:./Libraries/STM32F10x_StdPeriph_Driver/src/stm32f10x_i2c.c ****   {
 449:./Libraries/STM32F10x_StdPeriph_Driver/src/stm32f10x_i2c.c ****     /* Enable the acknowledgement */
 450:./Libraries/STM32F10x_StdPeriph_Driver/src/stm32f10x_i2c.c ****     I2Cx->CR1 |= CR1_ACK_Set;
 595              		.loc 1 450 5 is_stmt 1 view .LVU174
 596              		.loc 1 450 15 is_stmt 0 view .LVU175
 597 0002 0388     		ldrh	r3, [r0]
 598 0004 9BB2     		uxth	r3, r3
 599 0006 43F48063 		orr	r3, r3, #1024
 600 000a 0380     		strh	r3, [r0]	@ movhi
 601 000c 7047     		bx	lr
 602              	.L37:
 451:./Libraries/STM32F10x_StdPeriph_Driver/src/stm32f10x_i2c.c ****   }
 452:./Libraries/STM32F10x_StdPeriph_Driver/src/stm32f10x_i2c.c ****   else
 453:./Libraries/STM32F10x_StdPeriph_Driver/src/stm32f10x_i2c.c ****   {
 454:./Libraries/STM32F10x_StdPeriph_Driver/src/stm32f10x_i2c.c ****     /* Disable the acknowledgement */
 455:./Libraries/STM32F10x_StdPeriph_Driver/src/stm32f10x_i2c.c ****     I2Cx->CR1 &= CR1_ACK_Reset;
 603              		.loc 1 455 5 is_stmt 1 view .LVU176
 604              		.loc 1 455 15 is_stmt 0 view .LVU177
 605 000e 0388     		ldrh	r3, [r0]
 606 0010 9BB2     		uxth	r3, r3
 607 0012 23F48063 		bic	r3, r3, #1024
 608 0016 9BB2     		uxth	r3, r3
 609 0018 0380     		strh	r3, [r0]	@ movhi
 456:./Libraries/STM32F10x_StdPeriph_Driver/src/stm32f10x_i2c.c ****   }
 457:./Libraries/STM32F10x_StdPeriph_Driver/src/stm32f10x_i2c.c **** }
 610              		.loc 1 457 1 view .LVU178
 611 001a 7047     		bx	lr
 612              		.cfi_endproc
 613              	.LFE37:
 615              		.section	.text.I2C_OwnAddress2Config,"ax",%progbits
ARM GAS  /tmp/cctrGC4Q.s 			page 20


 616              		.align	1
 617              		.global	I2C_OwnAddress2Config
 618              		.syntax unified
 619              		.thumb
 620              		.thumb_func
 621              		.fpu softvfp
 623              	I2C_OwnAddress2Config:
 624              	.LVL45:
 625              	.LFB38:
 458:./Libraries/STM32F10x_StdPeriph_Driver/src/stm32f10x_i2c.c **** 
 459:./Libraries/STM32F10x_StdPeriph_Driver/src/stm32f10x_i2c.c **** /**
 460:./Libraries/STM32F10x_StdPeriph_Driver/src/stm32f10x_i2c.c ****   * @brief  Configures the specified I2C own address2.
 461:./Libraries/STM32F10x_StdPeriph_Driver/src/stm32f10x_i2c.c ****   * @param  I2Cx: where x can be 1 or 2 to select the I2C peripheral.
 462:./Libraries/STM32F10x_StdPeriph_Driver/src/stm32f10x_i2c.c ****   * @param  Address: specifies the 7bit I2C own address2.
 463:./Libraries/STM32F10x_StdPeriph_Driver/src/stm32f10x_i2c.c ****   * @retval None.
 464:./Libraries/STM32F10x_StdPeriph_Driver/src/stm32f10x_i2c.c ****   */
 465:./Libraries/STM32F10x_StdPeriph_Driver/src/stm32f10x_i2c.c **** void I2C_OwnAddress2Config(I2C_TypeDef* I2Cx, uint8_t Address)
 466:./Libraries/STM32F10x_StdPeriph_Driver/src/stm32f10x_i2c.c **** {
 626              		.loc 1 466 1 is_stmt 1 view -0
 627              		.cfi_startproc
 628              		@ args = 0, pretend = 0, frame = 0
 629              		@ frame_needed = 0, uses_anonymous_args = 0
 630              		@ link register save eliminated.
 467:./Libraries/STM32F10x_StdPeriph_Driver/src/stm32f10x_i2c.c ****   uint16_t tmpreg = 0;
 631              		.loc 1 467 3 view .LVU180
 468:./Libraries/STM32F10x_StdPeriph_Driver/src/stm32f10x_i2c.c **** 
 469:./Libraries/STM32F10x_StdPeriph_Driver/src/stm32f10x_i2c.c ****   /* Check the parameters */
 470:./Libraries/STM32F10x_StdPeriph_Driver/src/stm32f10x_i2c.c ****   assert_param(IS_I2C_ALL_PERIPH(I2Cx));
 632              		.loc 1 470 3 view .LVU181
 471:./Libraries/STM32F10x_StdPeriph_Driver/src/stm32f10x_i2c.c **** 
 472:./Libraries/STM32F10x_StdPeriph_Driver/src/stm32f10x_i2c.c ****   /* Get the old register value */
 473:./Libraries/STM32F10x_StdPeriph_Driver/src/stm32f10x_i2c.c ****   tmpreg = I2Cx->OAR2;
 633              		.loc 1 473 3 view .LVU182
 634              		.loc 1 473 10 is_stmt 0 view .LVU183
 635 0000 8389     		ldrh	r3, [r0, #12]
 636 0002 9BB2     		uxth	r3, r3
 637              	.LVL46:
 474:./Libraries/STM32F10x_StdPeriph_Driver/src/stm32f10x_i2c.c **** 
 475:./Libraries/STM32F10x_StdPeriph_Driver/src/stm32f10x_i2c.c ****   /* Reset I2Cx Own address2 bit [7:1] */
 476:./Libraries/STM32F10x_StdPeriph_Driver/src/stm32f10x_i2c.c ****   tmpreg &= OAR2_ADD2_Reset;
 638              		.loc 1 476 3 is_stmt 1 view .LVU184
 639              		.loc 1 476 10 is_stmt 0 view .LVU185
 640 0004 23F0FE03 		bic	r3, r3, #254
 641              	.LVL47:
 477:./Libraries/STM32F10x_StdPeriph_Driver/src/stm32f10x_i2c.c **** 
 478:./Libraries/STM32F10x_StdPeriph_Driver/src/stm32f10x_i2c.c ****   /* Set I2Cx Own address2 */
 479:./Libraries/STM32F10x_StdPeriph_Driver/src/stm32f10x_i2c.c ****   tmpreg |= (uint16_t)((uint16_t)Address & (uint16_t)0x00FE);
 642              		.loc 1 479 3 is_stmt 1 view .LVU186
 643              		.loc 1 479 13 is_stmt 0 view .LVU187
 644 0008 01F0FE01 		and	r1, r1, #254
 645              	.LVL48:
 646              		.loc 1 479 10 view .LVU188
 647 000c 0B43     		orrs	r3, r3, r1
 648              	.LVL49:
 480:./Libraries/STM32F10x_StdPeriph_Driver/src/stm32f10x_i2c.c **** 
 481:./Libraries/STM32F10x_StdPeriph_Driver/src/stm32f10x_i2c.c ****   /* Store the new register value */
 482:./Libraries/STM32F10x_StdPeriph_Driver/src/stm32f10x_i2c.c ****   I2Cx->OAR2 = tmpreg;
ARM GAS  /tmp/cctrGC4Q.s 			page 21


 649              		.loc 1 482 3 is_stmt 1 view .LVU189
 650              		.loc 1 482 14 is_stmt 0 view .LVU190
 651 000e 8381     		strh	r3, [r0, #12]	@ movhi
 483:./Libraries/STM32F10x_StdPeriph_Driver/src/stm32f10x_i2c.c **** }
 652              		.loc 1 483 1 view .LVU191
 653 0010 7047     		bx	lr
 654              		.cfi_endproc
 655              	.LFE38:
 657              		.section	.text.I2C_DualAddressCmd,"ax",%progbits
 658              		.align	1
 659              		.global	I2C_DualAddressCmd
 660              		.syntax unified
 661              		.thumb
 662              		.thumb_func
 663              		.fpu softvfp
 665              	I2C_DualAddressCmd:
 666              	.LVL50:
 667              	.LFB39:
 484:./Libraries/STM32F10x_StdPeriph_Driver/src/stm32f10x_i2c.c **** 
 485:./Libraries/STM32F10x_StdPeriph_Driver/src/stm32f10x_i2c.c **** /**
 486:./Libraries/STM32F10x_StdPeriph_Driver/src/stm32f10x_i2c.c ****   * @brief  Enables or disables the specified I2C dual addressing mode.
 487:./Libraries/STM32F10x_StdPeriph_Driver/src/stm32f10x_i2c.c ****   * @param  I2Cx: where x can be 1 or 2 to select the I2C peripheral.
 488:./Libraries/STM32F10x_StdPeriph_Driver/src/stm32f10x_i2c.c ****   * @param  NewState: new state of the I2C dual addressing mode.
 489:./Libraries/STM32F10x_StdPeriph_Driver/src/stm32f10x_i2c.c ****   *   This parameter can be: ENABLE or DISABLE.
 490:./Libraries/STM32F10x_StdPeriph_Driver/src/stm32f10x_i2c.c ****   * @retval None
 491:./Libraries/STM32F10x_StdPeriph_Driver/src/stm32f10x_i2c.c ****   */
 492:./Libraries/STM32F10x_StdPeriph_Driver/src/stm32f10x_i2c.c **** void I2C_DualAddressCmd(I2C_TypeDef* I2Cx, FunctionalState NewState)
 493:./Libraries/STM32F10x_StdPeriph_Driver/src/stm32f10x_i2c.c **** {
 668              		.loc 1 493 1 is_stmt 1 view -0
 669              		.cfi_startproc
 670              		@ args = 0, pretend = 0, frame = 0
 671              		@ frame_needed = 0, uses_anonymous_args = 0
 672              		@ link register save eliminated.
 494:./Libraries/STM32F10x_StdPeriph_Driver/src/stm32f10x_i2c.c ****   /* Check the parameters */
 495:./Libraries/STM32F10x_StdPeriph_Driver/src/stm32f10x_i2c.c ****   assert_param(IS_I2C_ALL_PERIPH(I2Cx));
 673              		.loc 1 495 3 view .LVU193
 496:./Libraries/STM32F10x_StdPeriph_Driver/src/stm32f10x_i2c.c ****   assert_param(IS_FUNCTIONAL_STATE(NewState));
 674              		.loc 1 496 3 view .LVU194
 497:./Libraries/STM32F10x_StdPeriph_Driver/src/stm32f10x_i2c.c ****   if (NewState != DISABLE)
 675              		.loc 1 497 3 view .LVU195
 676              		.loc 1 497 6 is_stmt 0 view .LVU196
 677 0000 29B1     		cbz	r1, .L41
 498:./Libraries/STM32F10x_StdPeriph_Driver/src/stm32f10x_i2c.c ****   {
 499:./Libraries/STM32F10x_StdPeriph_Driver/src/stm32f10x_i2c.c ****     /* Enable dual addressing mode */
 500:./Libraries/STM32F10x_StdPeriph_Driver/src/stm32f10x_i2c.c ****     I2Cx->OAR2 |= OAR2_ENDUAL_Set;
 678              		.loc 1 500 5 is_stmt 1 view .LVU197
 679              		.loc 1 500 16 is_stmt 0 view .LVU198
 680 0002 8389     		ldrh	r3, [r0, #12]
 681 0004 9BB2     		uxth	r3, r3
 682 0006 43F00103 		orr	r3, r3, #1
 683 000a 8381     		strh	r3, [r0, #12]	@ movhi
 684 000c 7047     		bx	lr
 685              	.L41:
 501:./Libraries/STM32F10x_StdPeriph_Driver/src/stm32f10x_i2c.c ****   }
 502:./Libraries/STM32F10x_StdPeriph_Driver/src/stm32f10x_i2c.c ****   else
 503:./Libraries/STM32F10x_StdPeriph_Driver/src/stm32f10x_i2c.c ****   {
 504:./Libraries/STM32F10x_StdPeriph_Driver/src/stm32f10x_i2c.c ****     /* Disable dual addressing mode */
ARM GAS  /tmp/cctrGC4Q.s 			page 22


 505:./Libraries/STM32F10x_StdPeriph_Driver/src/stm32f10x_i2c.c ****     I2Cx->OAR2 &= OAR2_ENDUAL_Reset;
 686              		.loc 1 505 5 is_stmt 1 view .LVU199
 687              		.loc 1 505 16 is_stmt 0 view .LVU200
 688 000e 8389     		ldrh	r3, [r0, #12]
 689 0010 9BB2     		uxth	r3, r3
 690 0012 23F00103 		bic	r3, r3, #1
 691 0016 9BB2     		uxth	r3, r3
 692 0018 8381     		strh	r3, [r0, #12]	@ movhi
 506:./Libraries/STM32F10x_StdPeriph_Driver/src/stm32f10x_i2c.c ****   }
 507:./Libraries/STM32F10x_StdPeriph_Driver/src/stm32f10x_i2c.c **** }
 693              		.loc 1 507 1 view .LVU201
 694 001a 7047     		bx	lr
 695              		.cfi_endproc
 696              	.LFE39:
 698              		.section	.text.I2C_GeneralCallCmd,"ax",%progbits
 699              		.align	1
 700              		.global	I2C_GeneralCallCmd
 701              		.syntax unified
 702              		.thumb
 703              		.thumb_func
 704              		.fpu softvfp
 706              	I2C_GeneralCallCmd:
 707              	.LVL51:
 708              	.LFB40:
 508:./Libraries/STM32F10x_StdPeriph_Driver/src/stm32f10x_i2c.c **** 
 509:./Libraries/STM32F10x_StdPeriph_Driver/src/stm32f10x_i2c.c **** /**
 510:./Libraries/STM32F10x_StdPeriph_Driver/src/stm32f10x_i2c.c ****   * @brief  Enables or disables the specified I2C general call feature.
 511:./Libraries/STM32F10x_StdPeriph_Driver/src/stm32f10x_i2c.c ****   * @param  I2Cx: where x can be 1 or 2 to select the I2C peripheral.
 512:./Libraries/STM32F10x_StdPeriph_Driver/src/stm32f10x_i2c.c ****   * @param  NewState: new state of the I2C General call.
 513:./Libraries/STM32F10x_StdPeriph_Driver/src/stm32f10x_i2c.c ****   *   This parameter can be: ENABLE or DISABLE.
 514:./Libraries/STM32F10x_StdPeriph_Driver/src/stm32f10x_i2c.c ****   * @retval None
 515:./Libraries/STM32F10x_StdPeriph_Driver/src/stm32f10x_i2c.c ****   */
 516:./Libraries/STM32F10x_StdPeriph_Driver/src/stm32f10x_i2c.c **** void I2C_GeneralCallCmd(I2C_TypeDef* I2Cx, FunctionalState NewState)
 517:./Libraries/STM32F10x_StdPeriph_Driver/src/stm32f10x_i2c.c **** {
 709              		.loc 1 517 1 is_stmt 1 view -0
 710              		.cfi_startproc
 711              		@ args = 0, pretend = 0, frame = 0
 712              		@ frame_needed = 0, uses_anonymous_args = 0
 713              		@ link register save eliminated.
 518:./Libraries/STM32F10x_StdPeriph_Driver/src/stm32f10x_i2c.c ****   /* Check the parameters */
 519:./Libraries/STM32F10x_StdPeriph_Driver/src/stm32f10x_i2c.c ****   assert_param(IS_I2C_ALL_PERIPH(I2Cx));
 714              		.loc 1 519 3 view .LVU203
 520:./Libraries/STM32F10x_StdPeriph_Driver/src/stm32f10x_i2c.c ****   assert_param(IS_FUNCTIONAL_STATE(NewState));
 715              		.loc 1 520 3 view .LVU204
 521:./Libraries/STM32F10x_StdPeriph_Driver/src/stm32f10x_i2c.c ****   if (NewState != DISABLE)
 716              		.loc 1 521 3 view .LVU205
 717              		.loc 1 521 6 is_stmt 0 view .LVU206
 718 0000 29B1     		cbz	r1, .L44
 522:./Libraries/STM32F10x_StdPeriph_Driver/src/stm32f10x_i2c.c ****   {
 523:./Libraries/STM32F10x_StdPeriph_Driver/src/stm32f10x_i2c.c ****     /* Enable generall call */
 524:./Libraries/STM32F10x_StdPeriph_Driver/src/stm32f10x_i2c.c ****     I2Cx->CR1 |= CR1_ENGC_Set;
 719              		.loc 1 524 5 is_stmt 1 view .LVU207
 720              		.loc 1 524 15 is_stmt 0 view .LVU208
 721 0002 0388     		ldrh	r3, [r0]
 722 0004 9BB2     		uxth	r3, r3
 723 0006 43F04003 		orr	r3, r3, #64
 724 000a 0380     		strh	r3, [r0]	@ movhi
ARM GAS  /tmp/cctrGC4Q.s 			page 23


 725 000c 7047     		bx	lr
 726              	.L44:
 525:./Libraries/STM32F10x_StdPeriph_Driver/src/stm32f10x_i2c.c ****   }
 526:./Libraries/STM32F10x_StdPeriph_Driver/src/stm32f10x_i2c.c ****   else
 527:./Libraries/STM32F10x_StdPeriph_Driver/src/stm32f10x_i2c.c ****   {
 528:./Libraries/STM32F10x_StdPeriph_Driver/src/stm32f10x_i2c.c ****     /* Disable generall call */
 529:./Libraries/STM32F10x_StdPeriph_Driver/src/stm32f10x_i2c.c ****     I2Cx->CR1 &= CR1_ENGC_Reset;
 727              		.loc 1 529 5 is_stmt 1 view .LVU209
 728              		.loc 1 529 15 is_stmt 0 view .LVU210
 729 000e 0388     		ldrh	r3, [r0]
 730 0010 9BB2     		uxth	r3, r3
 731 0012 23F04003 		bic	r3, r3, #64
 732 0016 9BB2     		uxth	r3, r3
 733 0018 0380     		strh	r3, [r0]	@ movhi
 530:./Libraries/STM32F10x_StdPeriph_Driver/src/stm32f10x_i2c.c ****   }
 531:./Libraries/STM32F10x_StdPeriph_Driver/src/stm32f10x_i2c.c **** }
 734              		.loc 1 531 1 view .LVU211
 735 001a 7047     		bx	lr
 736              		.cfi_endproc
 737              	.LFE40:
 739              		.section	.text.I2C_ITConfig,"ax",%progbits
 740              		.align	1
 741              		.global	I2C_ITConfig
 742              		.syntax unified
 743              		.thumb
 744              		.thumb_func
 745              		.fpu softvfp
 747              	I2C_ITConfig:
 748              	.LVL52:
 749              	.LFB41:
 532:./Libraries/STM32F10x_StdPeriph_Driver/src/stm32f10x_i2c.c **** 
 533:./Libraries/STM32F10x_StdPeriph_Driver/src/stm32f10x_i2c.c **** /**
 534:./Libraries/STM32F10x_StdPeriph_Driver/src/stm32f10x_i2c.c ****   * @brief  Enables or disables the specified I2C interrupts.
 535:./Libraries/STM32F10x_StdPeriph_Driver/src/stm32f10x_i2c.c ****   * @param  I2Cx: where x can be 1 or 2 to select the I2C peripheral.
 536:./Libraries/STM32F10x_StdPeriph_Driver/src/stm32f10x_i2c.c ****   * @param  I2C_IT: specifies the I2C interrupts sources to be enabled or disabled. 
 537:./Libraries/STM32F10x_StdPeriph_Driver/src/stm32f10x_i2c.c ****   *   This parameter can be any combination of the following values:
 538:./Libraries/STM32F10x_StdPeriph_Driver/src/stm32f10x_i2c.c ****   *     @arg I2C_IT_BUF: Buffer interrupt mask
 539:./Libraries/STM32F10x_StdPeriph_Driver/src/stm32f10x_i2c.c ****   *     @arg I2C_IT_EVT: Event interrupt mask
 540:./Libraries/STM32F10x_StdPeriph_Driver/src/stm32f10x_i2c.c ****   *     @arg I2C_IT_ERR: Error interrupt mask
 541:./Libraries/STM32F10x_StdPeriph_Driver/src/stm32f10x_i2c.c ****   * @param  NewState: new state of the specified I2C interrupts.
 542:./Libraries/STM32F10x_StdPeriph_Driver/src/stm32f10x_i2c.c ****   *   This parameter can be: ENABLE or DISABLE.
 543:./Libraries/STM32F10x_StdPeriph_Driver/src/stm32f10x_i2c.c ****   * @retval None
 544:./Libraries/STM32F10x_StdPeriph_Driver/src/stm32f10x_i2c.c ****   */
 545:./Libraries/STM32F10x_StdPeriph_Driver/src/stm32f10x_i2c.c **** void I2C_ITConfig(I2C_TypeDef* I2Cx, uint16_t I2C_IT, FunctionalState NewState)
 546:./Libraries/STM32F10x_StdPeriph_Driver/src/stm32f10x_i2c.c **** {
 750              		.loc 1 546 1 is_stmt 1 view -0
 751              		.cfi_startproc
 752              		@ args = 0, pretend = 0, frame = 0
 753              		@ frame_needed = 0, uses_anonymous_args = 0
 754              		@ link register save eliminated.
 547:./Libraries/STM32F10x_StdPeriph_Driver/src/stm32f10x_i2c.c ****   /* Check the parameters */
 548:./Libraries/STM32F10x_StdPeriph_Driver/src/stm32f10x_i2c.c ****   assert_param(IS_I2C_ALL_PERIPH(I2Cx));
 755              		.loc 1 548 3 view .LVU213
 549:./Libraries/STM32F10x_StdPeriph_Driver/src/stm32f10x_i2c.c ****   assert_param(IS_FUNCTIONAL_STATE(NewState));
 756              		.loc 1 549 3 view .LVU214
 550:./Libraries/STM32F10x_StdPeriph_Driver/src/stm32f10x_i2c.c ****   assert_param(IS_I2C_CONFIG_IT(I2C_IT));
 757              		.loc 1 550 3 view .LVU215
ARM GAS  /tmp/cctrGC4Q.s 			page 24


 551:./Libraries/STM32F10x_StdPeriph_Driver/src/stm32f10x_i2c.c ****   
 552:./Libraries/STM32F10x_StdPeriph_Driver/src/stm32f10x_i2c.c ****   if (NewState != DISABLE)
 758              		.loc 1 552 3 view .LVU216
 759              		.loc 1 552 6 is_stmt 0 view .LVU217
 760 0000 22B1     		cbz	r2, .L47
 553:./Libraries/STM32F10x_StdPeriph_Driver/src/stm32f10x_i2c.c ****   {
 554:./Libraries/STM32F10x_StdPeriph_Driver/src/stm32f10x_i2c.c ****     /* Enable the selected I2C interrupts */
 555:./Libraries/STM32F10x_StdPeriph_Driver/src/stm32f10x_i2c.c ****     I2Cx->CR2 |= I2C_IT;
 761              		.loc 1 555 5 is_stmt 1 view .LVU218
 762              		.loc 1 555 15 is_stmt 0 view .LVU219
 763 0002 8388     		ldrh	r3, [r0, #4]
 764 0004 9BB2     		uxth	r3, r3
 765 0006 1943     		orrs	r1, r1, r3
 766              	.LVL53:
 767              		.loc 1 555 15 view .LVU220
 768 0008 8180     		strh	r1, [r0, #4]	@ movhi
 769 000a 7047     		bx	lr
 770              	.LVL54:
 771              	.L47:
 556:./Libraries/STM32F10x_StdPeriph_Driver/src/stm32f10x_i2c.c ****   }
 557:./Libraries/STM32F10x_StdPeriph_Driver/src/stm32f10x_i2c.c ****   else
 558:./Libraries/STM32F10x_StdPeriph_Driver/src/stm32f10x_i2c.c ****   {
 559:./Libraries/STM32F10x_StdPeriph_Driver/src/stm32f10x_i2c.c ****     /* Disable the selected I2C interrupts */
 560:./Libraries/STM32F10x_StdPeriph_Driver/src/stm32f10x_i2c.c ****     I2Cx->CR2 &= (uint16_t)~I2C_IT;
 772              		.loc 1 560 5 is_stmt 1 view .LVU221
 773              		.loc 1 560 15 is_stmt 0 view .LVU222
 774 000c 8388     		ldrh	r3, [r0, #4]
 775              		.loc 1 560 18 view .LVU223
 776 000e C943     		mvns	r1, r1
 777              	.LVL55:
 778              		.loc 1 560 18 view .LVU224
 779 0010 89B2     		uxth	r1, r1
 780              		.loc 1 560 15 view .LVU225
 781 0012 1940     		ands	r1, r1, r3
 782 0014 8180     		strh	r1, [r0, #4]	@ movhi
 561:./Libraries/STM32F10x_StdPeriph_Driver/src/stm32f10x_i2c.c ****   }
 562:./Libraries/STM32F10x_StdPeriph_Driver/src/stm32f10x_i2c.c **** }
 783              		.loc 1 562 1 view .LVU226
 784 0016 7047     		bx	lr
 785              		.cfi_endproc
 786              	.LFE41:
 788              		.section	.text.I2C_SendData,"ax",%progbits
 789              		.align	1
 790              		.global	I2C_SendData
 791              		.syntax unified
 792              		.thumb
 793              		.thumb_func
 794              		.fpu softvfp
 796              	I2C_SendData:
 797              	.LVL56:
 798              	.LFB42:
 563:./Libraries/STM32F10x_StdPeriph_Driver/src/stm32f10x_i2c.c **** 
 564:./Libraries/STM32F10x_StdPeriph_Driver/src/stm32f10x_i2c.c **** /**
 565:./Libraries/STM32F10x_StdPeriph_Driver/src/stm32f10x_i2c.c ****   * @brief  Sends a data byte through the I2Cx peripheral.
 566:./Libraries/STM32F10x_StdPeriph_Driver/src/stm32f10x_i2c.c ****   * @param  I2Cx: where x can be 1 or 2 to select the I2C peripheral.
 567:./Libraries/STM32F10x_StdPeriph_Driver/src/stm32f10x_i2c.c ****   * @param  Data: Byte to be transmitted..
 568:./Libraries/STM32F10x_StdPeriph_Driver/src/stm32f10x_i2c.c ****   * @retval None
ARM GAS  /tmp/cctrGC4Q.s 			page 25


 569:./Libraries/STM32F10x_StdPeriph_Driver/src/stm32f10x_i2c.c ****   */
 570:./Libraries/STM32F10x_StdPeriph_Driver/src/stm32f10x_i2c.c **** void I2C_SendData(I2C_TypeDef* I2Cx, uint8_t Data)
 571:./Libraries/STM32F10x_StdPeriph_Driver/src/stm32f10x_i2c.c **** {
 799              		.loc 1 571 1 is_stmt 1 view -0
 800              		.cfi_startproc
 801              		@ args = 0, pretend = 0, frame = 0
 802              		@ frame_needed = 0, uses_anonymous_args = 0
 803              		@ link register save eliminated.
 572:./Libraries/STM32F10x_StdPeriph_Driver/src/stm32f10x_i2c.c ****   /* Check the parameters */
 573:./Libraries/STM32F10x_StdPeriph_Driver/src/stm32f10x_i2c.c ****   assert_param(IS_I2C_ALL_PERIPH(I2Cx));
 804              		.loc 1 573 3 view .LVU228
 574:./Libraries/STM32F10x_StdPeriph_Driver/src/stm32f10x_i2c.c ****   /* Write in the DR register the data to be sent */
 575:./Libraries/STM32F10x_StdPeriph_Driver/src/stm32f10x_i2c.c ****   I2Cx->DR = Data;
 805              		.loc 1 575 3 view .LVU229
 806              		.loc 1 575 12 is_stmt 0 view .LVU230
 807 0000 0182     		strh	r1, [r0, #16]	@ movhi
 576:./Libraries/STM32F10x_StdPeriph_Driver/src/stm32f10x_i2c.c **** }
 808              		.loc 1 576 1 view .LVU231
 809 0002 7047     		bx	lr
 810              		.cfi_endproc
 811              	.LFE42:
 813              		.section	.text.I2C_ReceiveData,"ax",%progbits
 814              		.align	1
 815              		.global	I2C_ReceiveData
 816              		.syntax unified
 817              		.thumb
 818              		.thumb_func
 819              		.fpu softvfp
 821              	I2C_ReceiveData:
 822              	.LVL57:
 823              	.LFB43:
 577:./Libraries/STM32F10x_StdPeriph_Driver/src/stm32f10x_i2c.c **** 
 578:./Libraries/STM32F10x_StdPeriph_Driver/src/stm32f10x_i2c.c **** /**
 579:./Libraries/STM32F10x_StdPeriph_Driver/src/stm32f10x_i2c.c ****   * @brief  Returns the most recent received data by the I2Cx peripheral.
 580:./Libraries/STM32F10x_StdPeriph_Driver/src/stm32f10x_i2c.c ****   * @param  I2Cx: where x can be 1 or 2 to select the I2C peripheral.
 581:./Libraries/STM32F10x_StdPeriph_Driver/src/stm32f10x_i2c.c ****   * @retval The value of the received data.
 582:./Libraries/STM32F10x_StdPeriph_Driver/src/stm32f10x_i2c.c ****   */
 583:./Libraries/STM32F10x_StdPeriph_Driver/src/stm32f10x_i2c.c **** uint8_t I2C_ReceiveData(I2C_TypeDef* I2Cx)
 584:./Libraries/STM32F10x_StdPeriph_Driver/src/stm32f10x_i2c.c **** {
 824              		.loc 1 584 1 is_stmt 1 view -0
 825              		.cfi_startproc
 826              		@ args = 0, pretend = 0, frame = 0
 827              		@ frame_needed = 0, uses_anonymous_args = 0
 828              		@ link register save eliminated.
 585:./Libraries/STM32F10x_StdPeriph_Driver/src/stm32f10x_i2c.c ****   /* Check the parameters */
 586:./Libraries/STM32F10x_StdPeriph_Driver/src/stm32f10x_i2c.c ****   assert_param(IS_I2C_ALL_PERIPH(I2Cx));
 829              		.loc 1 586 3 view .LVU233
 587:./Libraries/STM32F10x_StdPeriph_Driver/src/stm32f10x_i2c.c ****   /* Return the data in the DR register */
 588:./Libraries/STM32F10x_StdPeriph_Driver/src/stm32f10x_i2c.c ****   return (uint8_t)I2Cx->DR;
 830              		.loc 1 588 3 view .LVU234
 831              		.loc 1 588 23 is_stmt 0 view .LVU235
 832 0000 008A     		ldrh	r0, [r0, #16]
 833              	.LVL58:
 589:./Libraries/STM32F10x_StdPeriph_Driver/src/stm32f10x_i2c.c **** }
 834              		.loc 1 589 1 view .LVU236
 835 0002 C0B2     		uxtb	r0, r0
 836 0004 7047     		bx	lr
ARM GAS  /tmp/cctrGC4Q.s 			page 26


 837              		.cfi_endproc
 838              	.LFE43:
 840              		.section	.text.I2C_Send7bitAddress,"ax",%progbits
 841              		.align	1
 842              		.global	I2C_Send7bitAddress
 843              		.syntax unified
 844              		.thumb
 845              		.thumb_func
 846              		.fpu softvfp
 848              	I2C_Send7bitAddress:
 849              	.LVL59:
 850              	.LFB44:
 590:./Libraries/STM32F10x_StdPeriph_Driver/src/stm32f10x_i2c.c **** 
 591:./Libraries/STM32F10x_StdPeriph_Driver/src/stm32f10x_i2c.c **** /**
 592:./Libraries/STM32F10x_StdPeriph_Driver/src/stm32f10x_i2c.c ****   * @brief  Transmits the address byte to select the slave device.
 593:./Libraries/STM32F10x_StdPeriph_Driver/src/stm32f10x_i2c.c ****   * @param  I2Cx: where x can be 1 or 2 to select the I2C peripheral.
 594:./Libraries/STM32F10x_StdPeriph_Driver/src/stm32f10x_i2c.c ****   * @param  Address: specifies the slave address which will be transmitted
 595:./Libraries/STM32F10x_StdPeriph_Driver/src/stm32f10x_i2c.c ****   * @param  I2C_Direction: specifies whether the I2C device will be a
 596:./Libraries/STM32F10x_StdPeriph_Driver/src/stm32f10x_i2c.c ****   *   Transmitter or a Receiver. This parameter can be one of the following values
 597:./Libraries/STM32F10x_StdPeriph_Driver/src/stm32f10x_i2c.c ****   *     @arg I2C_Direction_Transmitter: Transmitter mode
 598:./Libraries/STM32F10x_StdPeriph_Driver/src/stm32f10x_i2c.c ****   *     @arg I2C_Direction_Receiver: Receiver mode
 599:./Libraries/STM32F10x_StdPeriph_Driver/src/stm32f10x_i2c.c ****   * @retval None.
 600:./Libraries/STM32F10x_StdPeriph_Driver/src/stm32f10x_i2c.c ****   */
 601:./Libraries/STM32F10x_StdPeriph_Driver/src/stm32f10x_i2c.c **** void I2C_Send7bitAddress(I2C_TypeDef* I2Cx, uint8_t Address, uint8_t I2C_Direction)
 602:./Libraries/STM32F10x_StdPeriph_Driver/src/stm32f10x_i2c.c **** {
 851              		.loc 1 602 1 is_stmt 1 view -0
 852              		.cfi_startproc
 853              		@ args = 0, pretend = 0, frame = 0
 854              		@ frame_needed = 0, uses_anonymous_args = 0
 855              		@ link register save eliminated.
 603:./Libraries/STM32F10x_StdPeriph_Driver/src/stm32f10x_i2c.c ****   /* Check the parameters */
 604:./Libraries/STM32F10x_StdPeriph_Driver/src/stm32f10x_i2c.c ****   assert_param(IS_I2C_ALL_PERIPH(I2Cx));
 856              		.loc 1 604 3 view .LVU238
 605:./Libraries/STM32F10x_StdPeriph_Driver/src/stm32f10x_i2c.c ****   assert_param(IS_I2C_DIRECTION(I2C_Direction));
 857              		.loc 1 605 3 view .LVU239
 606:./Libraries/STM32F10x_StdPeriph_Driver/src/stm32f10x_i2c.c ****   /* Test on the direction to set/reset the read/write bit */
 607:./Libraries/STM32F10x_StdPeriph_Driver/src/stm32f10x_i2c.c ****   if (I2C_Direction != I2C_Direction_Transmitter)
 858              		.loc 1 607 3 view .LVU240
 859              		.loc 1 607 6 is_stmt 0 view .LVU241
 860 0000 22B1     		cbz	r2, .L52
 608:./Libraries/STM32F10x_StdPeriph_Driver/src/stm32f10x_i2c.c ****   {
 609:./Libraries/STM32F10x_StdPeriph_Driver/src/stm32f10x_i2c.c ****     /* Set the address bit0 for read */
 610:./Libraries/STM32F10x_StdPeriph_Driver/src/stm32f10x_i2c.c ****     Address |= OAR1_ADD0_Set;
 861              		.loc 1 610 5 is_stmt 1 view .LVU242
 862              		.loc 1 610 13 is_stmt 0 view .LVU243
 863 0002 41F00101 		orr	r1, r1, #1
 864              	.LVL60:
 865              	.L53:
 611:./Libraries/STM32F10x_StdPeriph_Driver/src/stm32f10x_i2c.c ****   }
 612:./Libraries/STM32F10x_StdPeriph_Driver/src/stm32f10x_i2c.c ****   else
 613:./Libraries/STM32F10x_StdPeriph_Driver/src/stm32f10x_i2c.c ****   {
 614:./Libraries/STM32F10x_StdPeriph_Driver/src/stm32f10x_i2c.c ****     /* Reset the address bit0 for write */
 615:./Libraries/STM32F10x_StdPeriph_Driver/src/stm32f10x_i2c.c ****     Address &= OAR1_ADD0_Reset;
 616:./Libraries/STM32F10x_StdPeriph_Driver/src/stm32f10x_i2c.c ****   }
 617:./Libraries/STM32F10x_StdPeriph_Driver/src/stm32f10x_i2c.c ****   /* Send the address */
 618:./Libraries/STM32F10x_StdPeriph_Driver/src/stm32f10x_i2c.c ****   I2Cx->DR = Address;
 866              		.loc 1 618 3 is_stmt 1 view .LVU244
ARM GAS  /tmp/cctrGC4Q.s 			page 27


 867              		.loc 1 618 12 is_stmt 0 view .LVU245
 868 0006 89B2     		uxth	r1, r1
 869              	.LVL61:
 870              		.loc 1 618 12 view .LVU246
 871 0008 0182     		strh	r1, [r0, #16]	@ movhi
 619:./Libraries/STM32F10x_StdPeriph_Driver/src/stm32f10x_i2c.c **** }
 872              		.loc 1 619 1 view .LVU247
 873 000a 7047     		bx	lr
 874              	.LVL62:
 875              	.L52:
 615:./Libraries/STM32F10x_StdPeriph_Driver/src/stm32f10x_i2c.c ****   }
 876              		.loc 1 615 5 is_stmt 1 view .LVU248
 615:./Libraries/STM32F10x_StdPeriph_Driver/src/stm32f10x_i2c.c ****   }
 877              		.loc 1 615 13 is_stmt 0 view .LVU249
 878 000c 01F0FE01 		and	r1, r1, #254
 879              	.LVL63:
 615:./Libraries/STM32F10x_StdPeriph_Driver/src/stm32f10x_i2c.c ****   }
 880              		.loc 1 615 13 view .LVU250
 881 0010 F9E7     		b	.L53
 882              		.cfi_endproc
 883              	.LFE44:
 885              		.section	.text.I2C_ReadRegister,"ax",%progbits
 886              		.align	1
 887              		.global	I2C_ReadRegister
 888              		.syntax unified
 889              		.thumb
 890              		.thumb_func
 891              		.fpu softvfp
 893              	I2C_ReadRegister:
 894              	.LVL64:
 895              	.LFB45:
 620:./Libraries/STM32F10x_StdPeriph_Driver/src/stm32f10x_i2c.c **** 
 621:./Libraries/STM32F10x_StdPeriph_Driver/src/stm32f10x_i2c.c **** /**
 622:./Libraries/STM32F10x_StdPeriph_Driver/src/stm32f10x_i2c.c ****   * @brief  Reads the specified I2C register and returns its value.
 623:./Libraries/STM32F10x_StdPeriph_Driver/src/stm32f10x_i2c.c ****   * @param  I2C_Register: specifies the register to read.
 624:./Libraries/STM32F10x_StdPeriph_Driver/src/stm32f10x_i2c.c ****   *   This parameter can be one of the following values:
 625:./Libraries/STM32F10x_StdPeriph_Driver/src/stm32f10x_i2c.c ****   *     @arg I2C_Register_CR1:  CR1 register.
 626:./Libraries/STM32F10x_StdPeriph_Driver/src/stm32f10x_i2c.c ****   *     @arg I2C_Register_CR2:   CR2 register.
 627:./Libraries/STM32F10x_StdPeriph_Driver/src/stm32f10x_i2c.c ****   *     @arg I2C_Register_OAR1:  OAR1 register.
 628:./Libraries/STM32F10x_StdPeriph_Driver/src/stm32f10x_i2c.c ****   *     @arg I2C_Register_OAR2:  OAR2 register.
 629:./Libraries/STM32F10x_StdPeriph_Driver/src/stm32f10x_i2c.c ****   *     @arg I2C_Register_DR:    DR register.
 630:./Libraries/STM32F10x_StdPeriph_Driver/src/stm32f10x_i2c.c ****   *     @arg I2C_Register_SR1:   SR1 register.
 631:./Libraries/STM32F10x_StdPeriph_Driver/src/stm32f10x_i2c.c ****   *     @arg I2C_Register_SR2:   SR2 register.
 632:./Libraries/STM32F10x_StdPeriph_Driver/src/stm32f10x_i2c.c ****   *     @arg I2C_Register_CCR:   CCR register.
 633:./Libraries/STM32F10x_StdPeriph_Driver/src/stm32f10x_i2c.c ****   *     @arg I2C_Register_TRISE: TRISE register.
 634:./Libraries/STM32F10x_StdPeriph_Driver/src/stm32f10x_i2c.c ****   * @retval The value of the read register.
 635:./Libraries/STM32F10x_StdPeriph_Driver/src/stm32f10x_i2c.c ****   */
 636:./Libraries/STM32F10x_StdPeriph_Driver/src/stm32f10x_i2c.c **** uint16_t I2C_ReadRegister(I2C_TypeDef* I2Cx, uint8_t I2C_Register)
 637:./Libraries/STM32F10x_StdPeriph_Driver/src/stm32f10x_i2c.c **** {
 896              		.loc 1 637 1 is_stmt 1 view -0
 897              		.cfi_startproc
 898              		@ args = 0, pretend = 0, frame = 8
 899              		@ frame_needed = 0, uses_anonymous_args = 0
 900              		@ link register save eliminated.
 901              		.loc 1 637 1 is_stmt 0 view .LVU252
 902 0000 82B0     		sub	sp, sp, #8
 903              	.LCFI5:
ARM GAS  /tmp/cctrGC4Q.s 			page 28


 904              		.cfi_def_cfa_offset 8
 638:./Libraries/STM32F10x_StdPeriph_Driver/src/stm32f10x_i2c.c ****   __IO uint32_t tmp = 0;
 905              		.loc 1 638 3 is_stmt 1 view .LVU253
 906              		.loc 1 638 17 is_stmt 0 view .LVU254
 907 0002 0023     		movs	r3, #0
 908 0004 0193     		str	r3, [sp, #4]
 639:./Libraries/STM32F10x_StdPeriph_Driver/src/stm32f10x_i2c.c **** 
 640:./Libraries/STM32F10x_StdPeriph_Driver/src/stm32f10x_i2c.c ****   /* Check the parameters */
 641:./Libraries/STM32F10x_StdPeriph_Driver/src/stm32f10x_i2c.c ****   assert_param(IS_I2C_ALL_PERIPH(I2Cx));
 909              		.loc 1 641 3 is_stmt 1 view .LVU255
 642:./Libraries/STM32F10x_StdPeriph_Driver/src/stm32f10x_i2c.c ****   assert_param(IS_I2C_REGISTER(I2C_Register));
 910              		.loc 1 642 3 view .LVU256
 643:./Libraries/STM32F10x_StdPeriph_Driver/src/stm32f10x_i2c.c **** 
 644:./Libraries/STM32F10x_StdPeriph_Driver/src/stm32f10x_i2c.c ****   tmp = (uint32_t) I2Cx;
 911              		.loc 1 644 3 view .LVU257
 912              		.loc 1 644 7 is_stmt 0 view .LVU258
 913 0006 0190     		str	r0, [sp, #4]
 645:./Libraries/STM32F10x_StdPeriph_Driver/src/stm32f10x_i2c.c ****   tmp += I2C_Register;
 914              		.loc 1 645 3 is_stmt 1 view .LVU259
 915              		.loc 1 645 7 is_stmt 0 view .LVU260
 916 0008 019B     		ldr	r3, [sp, #4]
 917 000a 1944     		add	r1, r1, r3
 918              	.LVL65:
 919              		.loc 1 645 7 view .LVU261
 920 000c 0191     		str	r1, [sp, #4]
 646:./Libraries/STM32F10x_StdPeriph_Driver/src/stm32f10x_i2c.c **** 
 647:./Libraries/STM32F10x_StdPeriph_Driver/src/stm32f10x_i2c.c ****   /* Return the selected register value */
 648:./Libraries/STM32F10x_StdPeriph_Driver/src/stm32f10x_i2c.c ****   return (*(__IO uint16_t *) tmp);
 921              		.loc 1 648 3 is_stmt 1 view .LVU262
 922              		.loc 1 648 12 is_stmt 0 view .LVU263
 923 000e 019B     		ldr	r3, [sp, #4]
 924              		.loc 1 648 11 view .LVU264
 925 0010 1888     		ldrh	r0, [r3]
 926              	.LVL66:
 649:./Libraries/STM32F10x_StdPeriph_Driver/src/stm32f10x_i2c.c **** }
 927              		.loc 1 649 1 view .LVU265
 928 0012 80B2     		uxth	r0, r0
 929 0014 02B0     		add	sp, sp, #8
 930              	.LCFI6:
 931              		.cfi_def_cfa_offset 0
 932              		@ sp needed
 933 0016 7047     		bx	lr
 934              		.cfi_endproc
 935              	.LFE45:
 937              		.section	.text.I2C_SoftwareResetCmd,"ax",%progbits
 938              		.align	1
 939              		.global	I2C_SoftwareResetCmd
 940              		.syntax unified
 941              		.thumb
 942              		.thumb_func
 943              		.fpu softvfp
 945              	I2C_SoftwareResetCmd:
 946              	.LVL67:
 947              	.LFB46:
 650:./Libraries/STM32F10x_StdPeriph_Driver/src/stm32f10x_i2c.c **** 
 651:./Libraries/STM32F10x_StdPeriph_Driver/src/stm32f10x_i2c.c **** /**
 652:./Libraries/STM32F10x_StdPeriph_Driver/src/stm32f10x_i2c.c ****   * @brief  Enables or disables the specified I2C software reset.
ARM GAS  /tmp/cctrGC4Q.s 			page 29


 653:./Libraries/STM32F10x_StdPeriph_Driver/src/stm32f10x_i2c.c ****   * @param  I2Cx: where x can be 1 or 2 to select the I2C peripheral.
 654:./Libraries/STM32F10x_StdPeriph_Driver/src/stm32f10x_i2c.c ****   * @param  NewState: new state of the I2C software reset.
 655:./Libraries/STM32F10x_StdPeriph_Driver/src/stm32f10x_i2c.c ****   *   This parameter can be: ENABLE or DISABLE.
 656:./Libraries/STM32F10x_StdPeriph_Driver/src/stm32f10x_i2c.c ****   * @retval None
 657:./Libraries/STM32F10x_StdPeriph_Driver/src/stm32f10x_i2c.c ****   */
 658:./Libraries/STM32F10x_StdPeriph_Driver/src/stm32f10x_i2c.c **** void I2C_SoftwareResetCmd(I2C_TypeDef* I2Cx, FunctionalState NewState)
 659:./Libraries/STM32F10x_StdPeriph_Driver/src/stm32f10x_i2c.c **** {
 948              		.loc 1 659 1 is_stmt 1 view -0
 949              		.cfi_startproc
 950              		@ args = 0, pretend = 0, frame = 0
 951              		@ frame_needed = 0, uses_anonymous_args = 0
 952              		@ link register save eliminated.
 660:./Libraries/STM32F10x_StdPeriph_Driver/src/stm32f10x_i2c.c ****   /* Check the parameters */
 661:./Libraries/STM32F10x_StdPeriph_Driver/src/stm32f10x_i2c.c ****   assert_param(IS_I2C_ALL_PERIPH(I2Cx));
 953              		.loc 1 661 3 view .LVU267
 662:./Libraries/STM32F10x_StdPeriph_Driver/src/stm32f10x_i2c.c ****   assert_param(IS_FUNCTIONAL_STATE(NewState));
 954              		.loc 1 662 3 view .LVU268
 663:./Libraries/STM32F10x_StdPeriph_Driver/src/stm32f10x_i2c.c ****   if (NewState != DISABLE)
 955              		.loc 1 663 3 view .LVU269
 956              		.loc 1 663 6 is_stmt 0 view .LVU270
 957 0000 39B1     		cbz	r1, .L57
 664:./Libraries/STM32F10x_StdPeriph_Driver/src/stm32f10x_i2c.c ****   {
 665:./Libraries/STM32F10x_StdPeriph_Driver/src/stm32f10x_i2c.c ****     /* Peripheral under reset */
 666:./Libraries/STM32F10x_StdPeriph_Driver/src/stm32f10x_i2c.c ****     I2Cx->CR1 |= CR1_SWRST_Set;
 958              		.loc 1 666 5 is_stmt 1 view .LVU271
 959              		.loc 1 666 15 is_stmt 0 view .LVU272
 960 0002 0388     		ldrh	r3, [r0]
 961 0004 6FEA4343 		mvn	r3, r3, lsl #17
 962 0008 6FEA5343 		mvn	r3, r3, lsr #17
 963 000c 9BB2     		uxth	r3, r3
 964 000e 0380     		strh	r3, [r0]	@ movhi
 965 0010 7047     		bx	lr
 966              	.L57:
 667:./Libraries/STM32F10x_StdPeriph_Driver/src/stm32f10x_i2c.c ****   }
 668:./Libraries/STM32F10x_StdPeriph_Driver/src/stm32f10x_i2c.c ****   else
 669:./Libraries/STM32F10x_StdPeriph_Driver/src/stm32f10x_i2c.c ****   {
 670:./Libraries/STM32F10x_StdPeriph_Driver/src/stm32f10x_i2c.c ****     /* Peripheral not under reset */
 671:./Libraries/STM32F10x_StdPeriph_Driver/src/stm32f10x_i2c.c ****     I2Cx->CR1 &= CR1_SWRST_Reset;
 967              		.loc 1 671 5 is_stmt 1 view .LVU273
 968              		.loc 1 671 15 is_stmt 0 view .LVU274
 969 0012 0388     		ldrh	r3, [r0]
 970 0014 C3F30E03 		ubfx	r3, r3, #0, #15
 971 0018 0380     		strh	r3, [r0]	@ movhi
 672:./Libraries/STM32F10x_StdPeriph_Driver/src/stm32f10x_i2c.c ****   }
 673:./Libraries/STM32F10x_StdPeriph_Driver/src/stm32f10x_i2c.c **** }
 972              		.loc 1 673 1 view .LVU275
 973 001a 7047     		bx	lr
 974              		.cfi_endproc
 975              	.LFE46:
 977              		.section	.text.I2C_NACKPositionConfig,"ax",%progbits
 978              		.align	1
 979              		.global	I2C_NACKPositionConfig
 980              		.syntax unified
 981              		.thumb
 982              		.thumb_func
 983              		.fpu softvfp
 985              	I2C_NACKPositionConfig:
ARM GAS  /tmp/cctrGC4Q.s 			page 30


 986              	.LVL68:
 987              	.LFB47:
 674:./Libraries/STM32F10x_StdPeriph_Driver/src/stm32f10x_i2c.c **** 
 675:./Libraries/STM32F10x_StdPeriph_Driver/src/stm32f10x_i2c.c **** /**
 676:./Libraries/STM32F10x_StdPeriph_Driver/src/stm32f10x_i2c.c ****   * @brief  Selects the specified I2C NACK position in master receiver mode.
 677:./Libraries/STM32F10x_StdPeriph_Driver/src/stm32f10x_i2c.c ****   *         This function is useful in I2C Master Receiver mode when the number
 678:./Libraries/STM32F10x_StdPeriph_Driver/src/stm32f10x_i2c.c ****   *         of data to be received is equal to 2. In this case, this function 
 679:./Libraries/STM32F10x_StdPeriph_Driver/src/stm32f10x_i2c.c ****   *         should be called (with parameter I2C_NACKPosition_Next) before data 
 680:./Libraries/STM32F10x_StdPeriph_Driver/src/stm32f10x_i2c.c ****   *         reception starts,as described in the 2-byte reception procedure 
 681:./Libraries/STM32F10x_StdPeriph_Driver/src/stm32f10x_i2c.c ****   *         recommended in Reference Manual in Section: Master receiver.                
 682:./Libraries/STM32F10x_StdPeriph_Driver/src/stm32f10x_i2c.c ****   * @param  I2Cx: where x can be 1 or 2 to select the I2C peripheral.
 683:./Libraries/STM32F10x_StdPeriph_Driver/src/stm32f10x_i2c.c ****   * @param  I2C_NACKPosition: specifies the NACK position. 
 684:./Libraries/STM32F10x_StdPeriph_Driver/src/stm32f10x_i2c.c ****   *   This parameter can be one of the following values:
 685:./Libraries/STM32F10x_StdPeriph_Driver/src/stm32f10x_i2c.c ****   *     @arg I2C_NACKPosition_Next: indicates that the next byte will be the last
 686:./Libraries/STM32F10x_StdPeriph_Driver/src/stm32f10x_i2c.c ****   *          received byte.  
 687:./Libraries/STM32F10x_StdPeriph_Driver/src/stm32f10x_i2c.c ****   *     @arg I2C_NACKPosition_Current: indicates that current byte is the last 
 688:./Libraries/STM32F10x_StdPeriph_Driver/src/stm32f10x_i2c.c ****   *          received byte.
 689:./Libraries/STM32F10x_StdPeriph_Driver/src/stm32f10x_i2c.c ****   *            
 690:./Libraries/STM32F10x_StdPeriph_Driver/src/stm32f10x_i2c.c ****   * @note    This function configures the same bit (POS) as I2C_PECPositionConfig() 
 691:./Libraries/STM32F10x_StdPeriph_Driver/src/stm32f10x_i2c.c ****   *          but is intended to be used in I2C mode while I2C_PECPositionConfig() 
 692:./Libraries/STM32F10x_StdPeriph_Driver/src/stm32f10x_i2c.c ****   *          is intended to used in SMBUS mode. 
 693:./Libraries/STM32F10x_StdPeriph_Driver/src/stm32f10x_i2c.c ****   *            
 694:./Libraries/STM32F10x_StdPeriph_Driver/src/stm32f10x_i2c.c ****   * @retval None
 695:./Libraries/STM32F10x_StdPeriph_Driver/src/stm32f10x_i2c.c ****   */
 696:./Libraries/STM32F10x_StdPeriph_Driver/src/stm32f10x_i2c.c **** void I2C_NACKPositionConfig(I2C_TypeDef* I2Cx, uint16_t I2C_NACKPosition)
 697:./Libraries/STM32F10x_StdPeriph_Driver/src/stm32f10x_i2c.c **** {
 988              		.loc 1 697 1 is_stmt 1 view -0
 989              		.cfi_startproc
 990              		@ args = 0, pretend = 0, frame = 0
 991              		@ frame_needed = 0, uses_anonymous_args = 0
 992              		@ link register save eliminated.
 698:./Libraries/STM32F10x_StdPeriph_Driver/src/stm32f10x_i2c.c ****   /* Check the parameters */
 699:./Libraries/STM32F10x_StdPeriph_Driver/src/stm32f10x_i2c.c ****   assert_param(IS_I2C_ALL_PERIPH(I2Cx));
 993              		.loc 1 699 3 view .LVU277
 700:./Libraries/STM32F10x_StdPeriph_Driver/src/stm32f10x_i2c.c ****   assert_param(IS_I2C_NACK_POSITION(I2C_NACKPosition));
 994              		.loc 1 700 3 view .LVU278
 701:./Libraries/STM32F10x_StdPeriph_Driver/src/stm32f10x_i2c.c ****   
 702:./Libraries/STM32F10x_StdPeriph_Driver/src/stm32f10x_i2c.c ****   /* Check the input parameter */
 703:./Libraries/STM32F10x_StdPeriph_Driver/src/stm32f10x_i2c.c ****   if (I2C_NACKPosition == I2C_NACKPosition_Next)
 995              		.loc 1 703 3 view .LVU279
 996              		.loc 1 703 6 is_stmt 0 view .LVU280
 997 0000 B1F5006F 		cmp	r1, #2048
 998 0004 06D0     		beq	.L62
 704:./Libraries/STM32F10x_StdPeriph_Driver/src/stm32f10x_i2c.c ****   {
 705:./Libraries/STM32F10x_StdPeriph_Driver/src/stm32f10x_i2c.c ****     /* Next byte in shift register is the last received byte */
 706:./Libraries/STM32F10x_StdPeriph_Driver/src/stm32f10x_i2c.c ****     I2Cx->CR1 |= I2C_NACKPosition_Next;
 707:./Libraries/STM32F10x_StdPeriph_Driver/src/stm32f10x_i2c.c ****   }
 708:./Libraries/STM32F10x_StdPeriph_Driver/src/stm32f10x_i2c.c ****   else
 709:./Libraries/STM32F10x_StdPeriph_Driver/src/stm32f10x_i2c.c ****   {
 710:./Libraries/STM32F10x_StdPeriph_Driver/src/stm32f10x_i2c.c ****     /* Current byte in shift register is the last received byte */
 711:./Libraries/STM32F10x_StdPeriph_Driver/src/stm32f10x_i2c.c ****     I2Cx->CR1 &= I2C_NACKPosition_Current;
 999              		.loc 1 711 5 is_stmt 1 view .LVU281
 1000              		.loc 1 711 15 is_stmt 0 view .LVU282
 1001 0006 0388     		ldrh	r3, [r0]
 1002 0008 9BB2     		uxth	r3, r3
 1003 000a 23F40063 		bic	r3, r3, #2048
 1004 000e 9BB2     		uxth	r3, r3
ARM GAS  /tmp/cctrGC4Q.s 			page 31


 1005 0010 0380     		strh	r3, [r0]	@ movhi
 712:./Libraries/STM32F10x_StdPeriph_Driver/src/stm32f10x_i2c.c ****   }
 713:./Libraries/STM32F10x_StdPeriph_Driver/src/stm32f10x_i2c.c **** }
 1006              		.loc 1 713 1 view .LVU283
 1007 0012 7047     		bx	lr
 1008              	.L62:
 706:./Libraries/STM32F10x_StdPeriph_Driver/src/stm32f10x_i2c.c ****   }
 1009              		.loc 1 706 5 is_stmt 1 view .LVU284
 706:./Libraries/STM32F10x_StdPeriph_Driver/src/stm32f10x_i2c.c ****   }
 1010              		.loc 1 706 15 is_stmt 0 view .LVU285
 1011 0014 0388     		ldrh	r3, [r0]
 1012 0016 9BB2     		uxth	r3, r3
 1013 0018 43F40063 		orr	r3, r3, #2048
 1014 001c 0380     		strh	r3, [r0]	@ movhi
 1015 001e 7047     		bx	lr
 1016              		.cfi_endproc
 1017              	.LFE47:
 1019              		.section	.text.I2C_SMBusAlertConfig,"ax",%progbits
 1020              		.align	1
 1021              		.global	I2C_SMBusAlertConfig
 1022              		.syntax unified
 1023              		.thumb
 1024              		.thumb_func
 1025              		.fpu softvfp
 1027              	I2C_SMBusAlertConfig:
 1028              	.LVL69:
 1029              	.LFB48:
 714:./Libraries/STM32F10x_StdPeriph_Driver/src/stm32f10x_i2c.c **** 
 715:./Libraries/STM32F10x_StdPeriph_Driver/src/stm32f10x_i2c.c **** /**
 716:./Libraries/STM32F10x_StdPeriph_Driver/src/stm32f10x_i2c.c ****   * @brief  Drives the SMBusAlert pin high or low for the specified I2C.
 717:./Libraries/STM32F10x_StdPeriph_Driver/src/stm32f10x_i2c.c ****   * @param  I2Cx: where x can be 1 or 2 to select the I2C peripheral.
 718:./Libraries/STM32F10x_StdPeriph_Driver/src/stm32f10x_i2c.c ****   * @param  I2C_SMBusAlert: specifies SMBAlert pin level. 
 719:./Libraries/STM32F10x_StdPeriph_Driver/src/stm32f10x_i2c.c ****   *   This parameter can be one of the following values:
 720:./Libraries/STM32F10x_StdPeriph_Driver/src/stm32f10x_i2c.c ****   *     @arg I2C_SMBusAlert_Low: SMBAlert pin driven low
 721:./Libraries/STM32F10x_StdPeriph_Driver/src/stm32f10x_i2c.c ****   *     @arg I2C_SMBusAlert_High: SMBAlert pin driven high
 722:./Libraries/STM32F10x_StdPeriph_Driver/src/stm32f10x_i2c.c ****   * @retval None
 723:./Libraries/STM32F10x_StdPeriph_Driver/src/stm32f10x_i2c.c ****   */
 724:./Libraries/STM32F10x_StdPeriph_Driver/src/stm32f10x_i2c.c **** void I2C_SMBusAlertConfig(I2C_TypeDef* I2Cx, uint16_t I2C_SMBusAlert)
 725:./Libraries/STM32F10x_StdPeriph_Driver/src/stm32f10x_i2c.c **** {
 1030              		.loc 1 725 1 is_stmt 1 view -0
 1031              		.cfi_startproc
 1032              		@ args = 0, pretend = 0, frame = 0
 1033              		@ frame_needed = 0, uses_anonymous_args = 0
 1034              		@ link register save eliminated.
 726:./Libraries/STM32F10x_StdPeriph_Driver/src/stm32f10x_i2c.c ****   /* Check the parameters */
 727:./Libraries/STM32F10x_StdPeriph_Driver/src/stm32f10x_i2c.c ****   assert_param(IS_I2C_ALL_PERIPH(I2Cx));
 1035              		.loc 1 727 3 view .LVU287
 728:./Libraries/STM32F10x_StdPeriph_Driver/src/stm32f10x_i2c.c ****   assert_param(IS_I2C_SMBUS_ALERT(I2C_SMBusAlert));
 1036              		.loc 1 728 3 view .LVU288
 729:./Libraries/STM32F10x_StdPeriph_Driver/src/stm32f10x_i2c.c ****   if (I2C_SMBusAlert == I2C_SMBusAlert_Low)
 1037              		.loc 1 729 3 view .LVU289
 1038              		.loc 1 729 6 is_stmt 0 view .LVU290
 1039 0000 B1F5005F 		cmp	r1, #8192
 1040 0004 06D0     		beq	.L66
 730:./Libraries/STM32F10x_StdPeriph_Driver/src/stm32f10x_i2c.c ****   {
 731:./Libraries/STM32F10x_StdPeriph_Driver/src/stm32f10x_i2c.c ****     /* Drive the SMBusAlert pin Low */
 732:./Libraries/STM32F10x_StdPeriph_Driver/src/stm32f10x_i2c.c ****     I2Cx->CR1 |= I2C_SMBusAlert_Low;
ARM GAS  /tmp/cctrGC4Q.s 			page 32


 733:./Libraries/STM32F10x_StdPeriph_Driver/src/stm32f10x_i2c.c ****   }
 734:./Libraries/STM32F10x_StdPeriph_Driver/src/stm32f10x_i2c.c ****   else
 735:./Libraries/STM32F10x_StdPeriph_Driver/src/stm32f10x_i2c.c ****   {
 736:./Libraries/STM32F10x_StdPeriph_Driver/src/stm32f10x_i2c.c ****     /* Drive the SMBusAlert pin High  */
 737:./Libraries/STM32F10x_StdPeriph_Driver/src/stm32f10x_i2c.c ****     I2Cx->CR1 &= I2C_SMBusAlert_High;
 1041              		.loc 1 737 5 is_stmt 1 view .LVU291
 1042              		.loc 1 737 15 is_stmt 0 view .LVU292
 1043 0006 0388     		ldrh	r3, [r0]
 1044 0008 9BB2     		uxth	r3, r3
 1045 000a 23F40053 		bic	r3, r3, #8192
 1046 000e 9BB2     		uxth	r3, r3
 1047 0010 0380     		strh	r3, [r0]	@ movhi
 738:./Libraries/STM32F10x_StdPeriph_Driver/src/stm32f10x_i2c.c ****   }
 739:./Libraries/STM32F10x_StdPeriph_Driver/src/stm32f10x_i2c.c **** }
 1048              		.loc 1 739 1 view .LVU293
 1049 0012 7047     		bx	lr
 1050              	.L66:
 732:./Libraries/STM32F10x_StdPeriph_Driver/src/stm32f10x_i2c.c ****   }
 1051              		.loc 1 732 5 is_stmt 1 view .LVU294
 732:./Libraries/STM32F10x_StdPeriph_Driver/src/stm32f10x_i2c.c ****   }
 1052              		.loc 1 732 15 is_stmt 0 view .LVU295
 1053 0014 0388     		ldrh	r3, [r0]
 1054 0016 9BB2     		uxth	r3, r3
 1055 0018 43F40053 		orr	r3, r3, #8192
 1056 001c 0380     		strh	r3, [r0]	@ movhi
 1057 001e 7047     		bx	lr
 1058              		.cfi_endproc
 1059              	.LFE48:
 1061              		.section	.text.I2C_TransmitPEC,"ax",%progbits
 1062              		.align	1
 1063              		.global	I2C_TransmitPEC
 1064              		.syntax unified
 1065              		.thumb
 1066              		.thumb_func
 1067              		.fpu softvfp
 1069              	I2C_TransmitPEC:
 1070              	.LVL70:
 1071              	.LFB49:
 740:./Libraries/STM32F10x_StdPeriph_Driver/src/stm32f10x_i2c.c **** 
 741:./Libraries/STM32F10x_StdPeriph_Driver/src/stm32f10x_i2c.c **** /**
 742:./Libraries/STM32F10x_StdPeriph_Driver/src/stm32f10x_i2c.c ****   * @brief  Enables or disables the specified I2C PEC transfer.
 743:./Libraries/STM32F10x_StdPeriph_Driver/src/stm32f10x_i2c.c ****   * @param  I2Cx: where x can be 1 or 2 to select the I2C peripheral.
 744:./Libraries/STM32F10x_StdPeriph_Driver/src/stm32f10x_i2c.c ****   * @param  NewState: new state of the I2C PEC transmission.
 745:./Libraries/STM32F10x_StdPeriph_Driver/src/stm32f10x_i2c.c ****   *   This parameter can be: ENABLE or DISABLE.
 746:./Libraries/STM32F10x_StdPeriph_Driver/src/stm32f10x_i2c.c ****   * @retval None
 747:./Libraries/STM32F10x_StdPeriph_Driver/src/stm32f10x_i2c.c ****   */
 748:./Libraries/STM32F10x_StdPeriph_Driver/src/stm32f10x_i2c.c **** void I2C_TransmitPEC(I2C_TypeDef* I2Cx, FunctionalState NewState)
 749:./Libraries/STM32F10x_StdPeriph_Driver/src/stm32f10x_i2c.c **** {
 1072              		.loc 1 749 1 is_stmt 1 view -0
 1073              		.cfi_startproc
 1074              		@ args = 0, pretend = 0, frame = 0
 1075              		@ frame_needed = 0, uses_anonymous_args = 0
 1076              		@ link register save eliminated.
 750:./Libraries/STM32F10x_StdPeriph_Driver/src/stm32f10x_i2c.c ****   /* Check the parameters */
 751:./Libraries/STM32F10x_StdPeriph_Driver/src/stm32f10x_i2c.c ****   assert_param(IS_I2C_ALL_PERIPH(I2Cx));
 1077              		.loc 1 751 3 view .LVU297
 752:./Libraries/STM32F10x_StdPeriph_Driver/src/stm32f10x_i2c.c ****   assert_param(IS_FUNCTIONAL_STATE(NewState));
ARM GAS  /tmp/cctrGC4Q.s 			page 33


 1078              		.loc 1 752 3 view .LVU298
 753:./Libraries/STM32F10x_StdPeriph_Driver/src/stm32f10x_i2c.c ****   if (NewState != DISABLE)
 1079              		.loc 1 753 3 view .LVU299
 1080              		.loc 1 753 6 is_stmt 0 view .LVU300
 1081 0000 29B1     		cbz	r1, .L68
 754:./Libraries/STM32F10x_StdPeriph_Driver/src/stm32f10x_i2c.c ****   {
 755:./Libraries/STM32F10x_StdPeriph_Driver/src/stm32f10x_i2c.c ****     /* Enable the selected I2C PEC transmission */
 756:./Libraries/STM32F10x_StdPeriph_Driver/src/stm32f10x_i2c.c ****     I2Cx->CR1 |= CR1_PEC_Set;
 1082              		.loc 1 756 5 is_stmt 1 view .LVU301
 1083              		.loc 1 756 15 is_stmt 0 view .LVU302
 1084 0002 0388     		ldrh	r3, [r0]
 1085 0004 9BB2     		uxth	r3, r3
 1086 0006 43F48053 		orr	r3, r3, #4096
 1087 000a 0380     		strh	r3, [r0]	@ movhi
 1088 000c 7047     		bx	lr
 1089              	.L68:
 757:./Libraries/STM32F10x_StdPeriph_Driver/src/stm32f10x_i2c.c ****   }
 758:./Libraries/STM32F10x_StdPeriph_Driver/src/stm32f10x_i2c.c ****   else
 759:./Libraries/STM32F10x_StdPeriph_Driver/src/stm32f10x_i2c.c ****   {
 760:./Libraries/STM32F10x_StdPeriph_Driver/src/stm32f10x_i2c.c ****     /* Disable the selected I2C PEC transmission */
 761:./Libraries/STM32F10x_StdPeriph_Driver/src/stm32f10x_i2c.c ****     I2Cx->CR1 &= CR1_PEC_Reset;
 1090              		.loc 1 761 5 is_stmt 1 view .LVU303
 1091              		.loc 1 761 15 is_stmt 0 view .LVU304
 1092 000e 0388     		ldrh	r3, [r0]
 1093 0010 9BB2     		uxth	r3, r3
 1094 0012 23F48053 		bic	r3, r3, #4096
 1095 0016 9BB2     		uxth	r3, r3
 1096 0018 0380     		strh	r3, [r0]	@ movhi
 762:./Libraries/STM32F10x_StdPeriph_Driver/src/stm32f10x_i2c.c ****   }
 763:./Libraries/STM32F10x_StdPeriph_Driver/src/stm32f10x_i2c.c **** }
 1097              		.loc 1 763 1 view .LVU305
 1098 001a 7047     		bx	lr
 1099              		.cfi_endproc
 1100              	.LFE49:
 1102              		.section	.text.I2C_PECPositionConfig,"ax",%progbits
 1103              		.align	1
 1104              		.global	I2C_PECPositionConfig
 1105              		.syntax unified
 1106              		.thumb
 1107              		.thumb_func
 1108              		.fpu softvfp
 1110              	I2C_PECPositionConfig:
 1111              	.LVL71:
 1112              	.LFB50:
 764:./Libraries/STM32F10x_StdPeriph_Driver/src/stm32f10x_i2c.c **** 
 765:./Libraries/STM32F10x_StdPeriph_Driver/src/stm32f10x_i2c.c **** /**
 766:./Libraries/STM32F10x_StdPeriph_Driver/src/stm32f10x_i2c.c ****   * @brief  Selects the specified I2C PEC position.
 767:./Libraries/STM32F10x_StdPeriph_Driver/src/stm32f10x_i2c.c ****   * @param  I2Cx: where x can be 1 or 2 to select the I2C peripheral.
 768:./Libraries/STM32F10x_StdPeriph_Driver/src/stm32f10x_i2c.c ****   * @param  I2C_PECPosition: specifies the PEC position. 
 769:./Libraries/STM32F10x_StdPeriph_Driver/src/stm32f10x_i2c.c ****   *   This parameter can be one of the following values:
 770:./Libraries/STM32F10x_StdPeriph_Driver/src/stm32f10x_i2c.c ****   *     @arg I2C_PECPosition_Next: indicates that the next byte is PEC
 771:./Libraries/STM32F10x_StdPeriph_Driver/src/stm32f10x_i2c.c ****   *     @arg I2C_PECPosition_Current: indicates that current byte is PEC
 772:./Libraries/STM32F10x_StdPeriph_Driver/src/stm32f10x_i2c.c ****   *       
 773:./Libraries/STM32F10x_StdPeriph_Driver/src/stm32f10x_i2c.c ****   * @note    This function configures the same bit (POS) as I2C_NACKPositionConfig()
 774:./Libraries/STM32F10x_StdPeriph_Driver/src/stm32f10x_i2c.c ****   *          but is intended to be used in SMBUS mode while I2C_NACKPositionConfig() 
 775:./Libraries/STM32F10x_StdPeriph_Driver/src/stm32f10x_i2c.c ****   *          is intended to used in I2C mode.
 776:./Libraries/STM32F10x_StdPeriph_Driver/src/stm32f10x_i2c.c ****   *               
ARM GAS  /tmp/cctrGC4Q.s 			page 34


 777:./Libraries/STM32F10x_StdPeriph_Driver/src/stm32f10x_i2c.c ****   * @retval None
 778:./Libraries/STM32F10x_StdPeriph_Driver/src/stm32f10x_i2c.c ****   */
 779:./Libraries/STM32F10x_StdPeriph_Driver/src/stm32f10x_i2c.c **** void I2C_PECPositionConfig(I2C_TypeDef* I2Cx, uint16_t I2C_PECPosition)
 780:./Libraries/STM32F10x_StdPeriph_Driver/src/stm32f10x_i2c.c **** {
 1113              		.loc 1 780 1 is_stmt 1 view -0
 1114              		.cfi_startproc
 1115              		@ args = 0, pretend = 0, frame = 0
 1116              		@ frame_needed = 0, uses_anonymous_args = 0
 1117              		@ link register save eliminated.
 781:./Libraries/STM32F10x_StdPeriph_Driver/src/stm32f10x_i2c.c ****   /* Check the parameters */
 782:./Libraries/STM32F10x_StdPeriph_Driver/src/stm32f10x_i2c.c ****   assert_param(IS_I2C_ALL_PERIPH(I2Cx));
 1118              		.loc 1 782 3 view .LVU307
 783:./Libraries/STM32F10x_StdPeriph_Driver/src/stm32f10x_i2c.c ****   assert_param(IS_I2C_PEC_POSITION(I2C_PECPosition));
 1119              		.loc 1 783 3 view .LVU308
 784:./Libraries/STM32F10x_StdPeriph_Driver/src/stm32f10x_i2c.c ****   if (I2C_PECPosition == I2C_PECPosition_Next)
 1120              		.loc 1 784 3 view .LVU309
 1121              		.loc 1 784 6 is_stmt 0 view .LVU310
 1122 0000 B1F5006F 		cmp	r1, #2048
 1123 0004 06D0     		beq	.L73
 785:./Libraries/STM32F10x_StdPeriph_Driver/src/stm32f10x_i2c.c ****   {
 786:./Libraries/STM32F10x_StdPeriph_Driver/src/stm32f10x_i2c.c ****     /* Next byte in shift register is PEC */
 787:./Libraries/STM32F10x_StdPeriph_Driver/src/stm32f10x_i2c.c ****     I2Cx->CR1 |= I2C_PECPosition_Next;
 788:./Libraries/STM32F10x_StdPeriph_Driver/src/stm32f10x_i2c.c ****   }
 789:./Libraries/STM32F10x_StdPeriph_Driver/src/stm32f10x_i2c.c ****   else
 790:./Libraries/STM32F10x_StdPeriph_Driver/src/stm32f10x_i2c.c ****   {
 791:./Libraries/STM32F10x_StdPeriph_Driver/src/stm32f10x_i2c.c ****     /* Current byte in shift register is PEC */
 792:./Libraries/STM32F10x_StdPeriph_Driver/src/stm32f10x_i2c.c ****     I2Cx->CR1 &= I2C_PECPosition_Current;
 1124              		.loc 1 792 5 is_stmt 1 view .LVU311
 1125              		.loc 1 792 15 is_stmt 0 view .LVU312
 1126 0006 0388     		ldrh	r3, [r0]
 1127 0008 9BB2     		uxth	r3, r3
 1128 000a 23F40063 		bic	r3, r3, #2048
 1129 000e 9BB2     		uxth	r3, r3
 1130 0010 0380     		strh	r3, [r0]	@ movhi
 793:./Libraries/STM32F10x_StdPeriph_Driver/src/stm32f10x_i2c.c ****   }
 794:./Libraries/STM32F10x_StdPeriph_Driver/src/stm32f10x_i2c.c **** }
 1131              		.loc 1 794 1 view .LVU313
 1132 0012 7047     		bx	lr
 1133              	.L73:
 787:./Libraries/STM32F10x_StdPeriph_Driver/src/stm32f10x_i2c.c ****   }
 1134              		.loc 1 787 5 is_stmt 1 view .LVU314
 787:./Libraries/STM32F10x_StdPeriph_Driver/src/stm32f10x_i2c.c ****   }
 1135              		.loc 1 787 15 is_stmt 0 view .LVU315
 1136 0014 0388     		ldrh	r3, [r0]
 1137 0016 9BB2     		uxth	r3, r3
 1138 0018 43F40063 		orr	r3, r3, #2048
 1139 001c 0380     		strh	r3, [r0]	@ movhi
 1140 001e 7047     		bx	lr
 1141              		.cfi_endproc
 1142              	.LFE50:
 1144              		.section	.text.I2C_CalculatePEC,"ax",%progbits
 1145              		.align	1
 1146              		.global	I2C_CalculatePEC
 1147              		.syntax unified
 1148              		.thumb
 1149              		.thumb_func
 1150              		.fpu softvfp
ARM GAS  /tmp/cctrGC4Q.s 			page 35


 1152              	I2C_CalculatePEC:
 1153              	.LVL72:
 1154              	.LFB51:
 795:./Libraries/STM32F10x_StdPeriph_Driver/src/stm32f10x_i2c.c **** 
 796:./Libraries/STM32F10x_StdPeriph_Driver/src/stm32f10x_i2c.c **** /**
 797:./Libraries/STM32F10x_StdPeriph_Driver/src/stm32f10x_i2c.c ****   * @brief  Enables or disables the PEC value calculation of the transferred bytes.
 798:./Libraries/STM32F10x_StdPeriph_Driver/src/stm32f10x_i2c.c ****   * @param  I2Cx: where x can be 1 or 2 to select the I2C peripheral.
 799:./Libraries/STM32F10x_StdPeriph_Driver/src/stm32f10x_i2c.c ****   * @param  NewState: new state of the I2Cx PEC value calculation.
 800:./Libraries/STM32F10x_StdPeriph_Driver/src/stm32f10x_i2c.c ****   *   This parameter can be: ENABLE or DISABLE.
 801:./Libraries/STM32F10x_StdPeriph_Driver/src/stm32f10x_i2c.c ****   * @retval None
 802:./Libraries/STM32F10x_StdPeriph_Driver/src/stm32f10x_i2c.c ****   */
 803:./Libraries/STM32F10x_StdPeriph_Driver/src/stm32f10x_i2c.c **** void I2C_CalculatePEC(I2C_TypeDef* I2Cx, FunctionalState NewState)
 804:./Libraries/STM32F10x_StdPeriph_Driver/src/stm32f10x_i2c.c **** {
 1155              		.loc 1 804 1 is_stmt 1 view -0
 1156              		.cfi_startproc
 1157              		@ args = 0, pretend = 0, frame = 0
 1158              		@ frame_needed = 0, uses_anonymous_args = 0
 1159              		@ link register save eliminated.
 805:./Libraries/STM32F10x_StdPeriph_Driver/src/stm32f10x_i2c.c ****   /* Check the parameters */
 806:./Libraries/STM32F10x_StdPeriph_Driver/src/stm32f10x_i2c.c ****   assert_param(IS_I2C_ALL_PERIPH(I2Cx));
 1160              		.loc 1 806 3 view .LVU317
 807:./Libraries/STM32F10x_StdPeriph_Driver/src/stm32f10x_i2c.c ****   assert_param(IS_FUNCTIONAL_STATE(NewState));
 1161              		.loc 1 807 3 view .LVU318
 808:./Libraries/STM32F10x_StdPeriph_Driver/src/stm32f10x_i2c.c ****   if (NewState != DISABLE)
 1162              		.loc 1 808 3 view .LVU319
 1163              		.loc 1 808 6 is_stmt 0 view .LVU320
 1164 0000 29B1     		cbz	r1, .L75
 809:./Libraries/STM32F10x_StdPeriph_Driver/src/stm32f10x_i2c.c ****   {
 810:./Libraries/STM32F10x_StdPeriph_Driver/src/stm32f10x_i2c.c ****     /* Enable the selected I2C PEC calculation */
 811:./Libraries/STM32F10x_StdPeriph_Driver/src/stm32f10x_i2c.c ****     I2Cx->CR1 |= CR1_ENPEC_Set;
 1165              		.loc 1 811 5 is_stmt 1 view .LVU321
 1166              		.loc 1 811 15 is_stmt 0 view .LVU322
 1167 0002 0388     		ldrh	r3, [r0]
 1168 0004 9BB2     		uxth	r3, r3
 1169 0006 43F02003 		orr	r3, r3, #32
 1170 000a 0380     		strh	r3, [r0]	@ movhi
 1171 000c 7047     		bx	lr
 1172              	.L75:
 812:./Libraries/STM32F10x_StdPeriph_Driver/src/stm32f10x_i2c.c ****   }
 813:./Libraries/STM32F10x_StdPeriph_Driver/src/stm32f10x_i2c.c ****   else
 814:./Libraries/STM32F10x_StdPeriph_Driver/src/stm32f10x_i2c.c ****   {
 815:./Libraries/STM32F10x_StdPeriph_Driver/src/stm32f10x_i2c.c ****     /* Disable the selected I2C PEC calculation */
 816:./Libraries/STM32F10x_StdPeriph_Driver/src/stm32f10x_i2c.c ****     I2Cx->CR1 &= CR1_ENPEC_Reset;
 1173              		.loc 1 816 5 is_stmt 1 view .LVU323
 1174              		.loc 1 816 15 is_stmt 0 view .LVU324
 1175 000e 0388     		ldrh	r3, [r0]
 1176 0010 9BB2     		uxth	r3, r3
 1177 0012 23F02003 		bic	r3, r3, #32
 1178 0016 9BB2     		uxth	r3, r3
 1179 0018 0380     		strh	r3, [r0]	@ movhi
 817:./Libraries/STM32F10x_StdPeriph_Driver/src/stm32f10x_i2c.c ****   }
 818:./Libraries/STM32F10x_StdPeriph_Driver/src/stm32f10x_i2c.c **** }
 1180              		.loc 1 818 1 view .LVU325
 1181 001a 7047     		bx	lr
 1182              		.cfi_endproc
 1183              	.LFE51:
 1185              		.section	.text.I2C_GetPEC,"ax",%progbits
ARM GAS  /tmp/cctrGC4Q.s 			page 36


 1186              		.align	1
 1187              		.global	I2C_GetPEC
 1188              		.syntax unified
 1189              		.thumb
 1190              		.thumb_func
 1191              		.fpu softvfp
 1193              	I2C_GetPEC:
 1194              	.LVL73:
 1195              	.LFB52:
 819:./Libraries/STM32F10x_StdPeriph_Driver/src/stm32f10x_i2c.c **** 
 820:./Libraries/STM32F10x_StdPeriph_Driver/src/stm32f10x_i2c.c **** /**
 821:./Libraries/STM32F10x_StdPeriph_Driver/src/stm32f10x_i2c.c ****   * @brief  Returns the PEC value for the specified I2C.
 822:./Libraries/STM32F10x_StdPeriph_Driver/src/stm32f10x_i2c.c ****   * @param  I2Cx: where x can be 1 or 2 to select the I2C peripheral.
 823:./Libraries/STM32F10x_StdPeriph_Driver/src/stm32f10x_i2c.c ****   * @retval The PEC value.
 824:./Libraries/STM32F10x_StdPeriph_Driver/src/stm32f10x_i2c.c ****   */
 825:./Libraries/STM32F10x_StdPeriph_Driver/src/stm32f10x_i2c.c **** uint8_t I2C_GetPEC(I2C_TypeDef* I2Cx)
 826:./Libraries/STM32F10x_StdPeriph_Driver/src/stm32f10x_i2c.c **** {
 1196              		.loc 1 826 1 is_stmt 1 view -0
 1197              		.cfi_startproc
 1198              		@ args = 0, pretend = 0, frame = 0
 1199              		@ frame_needed = 0, uses_anonymous_args = 0
 1200              		@ link register save eliminated.
 827:./Libraries/STM32F10x_StdPeriph_Driver/src/stm32f10x_i2c.c ****   /* Check the parameters */
 828:./Libraries/STM32F10x_StdPeriph_Driver/src/stm32f10x_i2c.c ****   assert_param(IS_I2C_ALL_PERIPH(I2Cx));
 1201              		.loc 1 828 3 view .LVU327
 829:./Libraries/STM32F10x_StdPeriph_Driver/src/stm32f10x_i2c.c ****   /* Return the selected I2C PEC value */
 830:./Libraries/STM32F10x_StdPeriph_Driver/src/stm32f10x_i2c.c ****   return ((I2Cx->SR2) >> 8);
 1202              		.loc 1 830 3 view .LVU328
 1203              		.loc 1 830 16 is_stmt 0 view .LVU329
 1204 0000 008B     		ldrh	r0, [r0, #24]
 1205              	.LVL74:
 831:./Libraries/STM32F10x_StdPeriph_Driver/src/stm32f10x_i2c.c **** }
 1206              		.loc 1 831 1 view .LVU330
 1207 0002 C0F30720 		ubfx	r0, r0, #8, #8
 1208 0006 7047     		bx	lr
 1209              		.cfi_endproc
 1210              	.LFE52:
 1212              		.section	.text.I2C_ARPCmd,"ax",%progbits
 1213              		.align	1
 1214              		.global	I2C_ARPCmd
 1215              		.syntax unified
 1216              		.thumb
 1217              		.thumb_func
 1218              		.fpu softvfp
 1220              	I2C_ARPCmd:
 1221              	.LVL75:
 1222              	.LFB53:
 832:./Libraries/STM32F10x_StdPeriph_Driver/src/stm32f10x_i2c.c **** 
 833:./Libraries/STM32F10x_StdPeriph_Driver/src/stm32f10x_i2c.c **** /**
 834:./Libraries/STM32F10x_StdPeriph_Driver/src/stm32f10x_i2c.c ****   * @brief  Enables or disables the specified I2C ARP.
 835:./Libraries/STM32F10x_StdPeriph_Driver/src/stm32f10x_i2c.c ****   * @param  I2Cx: where x can be 1 or 2 to select the I2C peripheral.
 836:./Libraries/STM32F10x_StdPeriph_Driver/src/stm32f10x_i2c.c ****   * @param  NewState: new state of the I2Cx ARP. 
 837:./Libraries/STM32F10x_StdPeriph_Driver/src/stm32f10x_i2c.c ****   *   This parameter can be: ENABLE or DISABLE.
 838:./Libraries/STM32F10x_StdPeriph_Driver/src/stm32f10x_i2c.c ****   * @retval None
 839:./Libraries/STM32F10x_StdPeriph_Driver/src/stm32f10x_i2c.c ****   */
 840:./Libraries/STM32F10x_StdPeriph_Driver/src/stm32f10x_i2c.c **** void I2C_ARPCmd(I2C_TypeDef* I2Cx, FunctionalState NewState)
 841:./Libraries/STM32F10x_StdPeriph_Driver/src/stm32f10x_i2c.c **** {
ARM GAS  /tmp/cctrGC4Q.s 			page 37


 1223              		.loc 1 841 1 is_stmt 1 view -0
 1224              		.cfi_startproc
 1225              		@ args = 0, pretend = 0, frame = 0
 1226              		@ frame_needed = 0, uses_anonymous_args = 0
 1227              		@ link register save eliminated.
 842:./Libraries/STM32F10x_StdPeriph_Driver/src/stm32f10x_i2c.c ****   /* Check the parameters */
 843:./Libraries/STM32F10x_StdPeriph_Driver/src/stm32f10x_i2c.c ****   assert_param(IS_I2C_ALL_PERIPH(I2Cx));
 1228              		.loc 1 843 3 view .LVU332
 844:./Libraries/STM32F10x_StdPeriph_Driver/src/stm32f10x_i2c.c ****   assert_param(IS_FUNCTIONAL_STATE(NewState));
 1229              		.loc 1 844 3 view .LVU333
 845:./Libraries/STM32F10x_StdPeriph_Driver/src/stm32f10x_i2c.c ****   if (NewState != DISABLE)
 1230              		.loc 1 845 3 view .LVU334
 1231              		.loc 1 845 6 is_stmt 0 view .LVU335
 1232 0000 29B1     		cbz	r1, .L79
 846:./Libraries/STM32F10x_StdPeriph_Driver/src/stm32f10x_i2c.c ****   {
 847:./Libraries/STM32F10x_StdPeriph_Driver/src/stm32f10x_i2c.c ****     /* Enable the selected I2C ARP */
 848:./Libraries/STM32F10x_StdPeriph_Driver/src/stm32f10x_i2c.c ****     I2Cx->CR1 |= CR1_ENARP_Set;
 1233              		.loc 1 848 5 is_stmt 1 view .LVU336
 1234              		.loc 1 848 15 is_stmt 0 view .LVU337
 1235 0002 0388     		ldrh	r3, [r0]
 1236 0004 9BB2     		uxth	r3, r3
 1237 0006 43F01003 		orr	r3, r3, #16
 1238 000a 0380     		strh	r3, [r0]	@ movhi
 1239 000c 7047     		bx	lr
 1240              	.L79:
 849:./Libraries/STM32F10x_StdPeriph_Driver/src/stm32f10x_i2c.c ****   }
 850:./Libraries/STM32F10x_StdPeriph_Driver/src/stm32f10x_i2c.c ****   else
 851:./Libraries/STM32F10x_StdPeriph_Driver/src/stm32f10x_i2c.c ****   {
 852:./Libraries/STM32F10x_StdPeriph_Driver/src/stm32f10x_i2c.c ****     /* Disable the selected I2C ARP */
 853:./Libraries/STM32F10x_StdPeriph_Driver/src/stm32f10x_i2c.c ****     I2Cx->CR1 &= CR1_ENARP_Reset;
 1241              		.loc 1 853 5 is_stmt 1 view .LVU338
 1242              		.loc 1 853 15 is_stmt 0 view .LVU339
 1243 000e 0388     		ldrh	r3, [r0]
 1244 0010 9BB2     		uxth	r3, r3
 1245 0012 23F01003 		bic	r3, r3, #16
 1246 0016 9BB2     		uxth	r3, r3
 1247 0018 0380     		strh	r3, [r0]	@ movhi
 854:./Libraries/STM32F10x_StdPeriph_Driver/src/stm32f10x_i2c.c ****   }
 855:./Libraries/STM32F10x_StdPeriph_Driver/src/stm32f10x_i2c.c **** }
 1248              		.loc 1 855 1 view .LVU340
 1249 001a 7047     		bx	lr
 1250              		.cfi_endproc
 1251              	.LFE53:
 1253              		.section	.text.I2C_StretchClockCmd,"ax",%progbits
 1254              		.align	1
 1255              		.global	I2C_StretchClockCmd
 1256              		.syntax unified
 1257              		.thumb
 1258              		.thumb_func
 1259              		.fpu softvfp
 1261              	I2C_StretchClockCmd:
 1262              	.LVL76:
 1263              	.LFB54:
 856:./Libraries/STM32F10x_StdPeriph_Driver/src/stm32f10x_i2c.c **** 
 857:./Libraries/STM32F10x_StdPeriph_Driver/src/stm32f10x_i2c.c **** /**
 858:./Libraries/STM32F10x_StdPeriph_Driver/src/stm32f10x_i2c.c ****   * @brief  Enables or disables the specified I2C Clock stretching.
 859:./Libraries/STM32F10x_StdPeriph_Driver/src/stm32f10x_i2c.c ****   * @param  I2Cx: where x can be 1 or 2 to select the I2C peripheral.
ARM GAS  /tmp/cctrGC4Q.s 			page 38


 860:./Libraries/STM32F10x_StdPeriph_Driver/src/stm32f10x_i2c.c ****   * @param  NewState: new state of the I2Cx Clock stretching.
 861:./Libraries/STM32F10x_StdPeriph_Driver/src/stm32f10x_i2c.c ****   *   This parameter can be: ENABLE or DISABLE.
 862:./Libraries/STM32F10x_StdPeriph_Driver/src/stm32f10x_i2c.c ****   * @retval None
 863:./Libraries/STM32F10x_StdPeriph_Driver/src/stm32f10x_i2c.c ****   */
 864:./Libraries/STM32F10x_StdPeriph_Driver/src/stm32f10x_i2c.c **** void I2C_StretchClockCmd(I2C_TypeDef* I2Cx, FunctionalState NewState)
 865:./Libraries/STM32F10x_StdPeriph_Driver/src/stm32f10x_i2c.c **** {
 1264              		.loc 1 865 1 is_stmt 1 view -0
 1265              		.cfi_startproc
 1266              		@ args = 0, pretend = 0, frame = 0
 1267              		@ frame_needed = 0, uses_anonymous_args = 0
 1268              		@ link register save eliminated.
 866:./Libraries/STM32F10x_StdPeriph_Driver/src/stm32f10x_i2c.c ****   /* Check the parameters */
 867:./Libraries/STM32F10x_StdPeriph_Driver/src/stm32f10x_i2c.c ****   assert_param(IS_I2C_ALL_PERIPH(I2Cx));
 1269              		.loc 1 867 3 view .LVU342
 868:./Libraries/STM32F10x_StdPeriph_Driver/src/stm32f10x_i2c.c ****   assert_param(IS_FUNCTIONAL_STATE(NewState));
 1270              		.loc 1 868 3 view .LVU343
 869:./Libraries/STM32F10x_StdPeriph_Driver/src/stm32f10x_i2c.c ****   if (NewState == DISABLE)
 1271              		.loc 1 869 3 view .LVU344
 1272              		.loc 1 869 6 is_stmt 0 view .LVU345
 1273 0000 29B9     		cbnz	r1, .L82
 870:./Libraries/STM32F10x_StdPeriph_Driver/src/stm32f10x_i2c.c ****   {
 871:./Libraries/STM32F10x_StdPeriph_Driver/src/stm32f10x_i2c.c ****     /* Enable the selected I2C Clock stretching */
 872:./Libraries/STM32F10x_StdPeriph_Driver/src/stm32f10x_i2c.c ****     I2Cx->CR1 |= CR1_NOSTRETCH_Set;
 1274              		.loc 1 872 5 is_stmt 1 view .LVU346
 1275              		.loc 1 872 15 is_stmt 0 view .LVU347
 1276 0002 0388     		ldrh	r3, [r0]
 1277 0004 9BB2     		uxth	r3, r3
 1278 0006 43F08003 		orr	r3, r3, #128
 1279 000a 0380     		strh	r3, [r0]	@ movhi
 1280 000c 7047     		bx	lr
 1281              	.L82:
 873:./Libraries/STM32F10x_StdPeriph_Driver/src/stm32f10x_i2c.c ****   }
 874:./Libraries/STM32F10x_StdPeriph_Driver/src/stm32f10x_i2c.c ****   else
 875:./Libraries/STM32F10x_StdPeriph_Driver/src/stm32f10x_i2c.c ****   {
 876:./Libraries/STM32F10x_StdPeriph_Driver/src/stm32f10x_i2c.c ****     /* Disable the selected I2C Clock stretching */
 877:./Libraries/STM32F10x_StdPeriph_Driver/src/stm32f10x_i2c.c ****     I2Cx->CR1 &= CR1_NOSTRETCH_Reset;
 1282              		.loc 1 877 5 is_stmt 1 view .LVU348
 1283              		.loc 1 877 15 is_stmt 0 view .LVU349
 1284 000e 0388     		ldrh	r3, [r0]
 1285 0010 9BB2     		uxth	r3, r3
 1286 0012 23F08003 		bic	r3, r3, #128
 1287 0016 9BB2     		uxth	r3, r3
 1288 0018 0380     		strh	r3, [r0]	@ movhi
 878:./Libraries/STM32F10x_StdPeriph_Driver/src/stm32f10x_i2c.c ****   }
 879:./Libraries/STM32F10x_StdPeriph_Driver/src/stm32f10x_i2c.c **** }
 1289              		.loc 1 879 1 view .LVU350
 1290 001a 7047     		bx	lr
 1291              		.cfi_endproc
 1292              	.LFE54:
 1294              		.section	.text.I2C_FastModeDutyCycleConfig,"ax",%progbits
 1295              		.align	1
 1296              		.global	I2C_FastModeDutyCycleConfig
 1297              		.syntax unified
 1298              		.thumb
 1299              		.thumb_func
 1300              		.fpu softvfp
 1302              	I2C_FastModeDutyCycleConfig:
ARM GAS  /tmp/cctrGC4Q.s 			page 39


 1303              	.LVL77:
 1304              	.LFB55:
 880:./Libraries/STM32F10x_StdPeriph_Driver/src/stm32f10x_i2c.c **** 
 881:./Libraries/STM32F10x_StdPeriph_Driver/src/stm32f10x_i2c.c **** /**
 882:./Libraries/STM32F10x_StdPeriph_Driver/src/stm32f10x_i2c.c ****   * @brief  Selects the specified I2C fast mode duty cycle.
 883:./Libraries/STM32F10x_StdPeriph_Driver/src/stm32f10x_i2c.c ****   * @param  I2Cx: where x can be 1 or 2 to select the I2C peripheral.
 884:./Libraries/STM32F10x_StdPeriph_Driver/src/stm32f10x_i2c.c ****   * @param  I2C_DutyCycle: specifies the fast mode duty cycle.
 885:./Libraries/STM32F10x_StdPeriph_Driver/src/stm32f10x_i2c.c ****   *   This parameter can be one of the following values:
 886:./Libraries/STM32F10x_StdPeriph_Driver/src/stm32f10x_i2c.c ****   *     @arg I2C_DutyCycle_2: I2C fast mode Tlow/Thigh = 2
 887:./Libraries/STM32F10x_StdPeriph_Driver/src/stm32f10x_i2c.c ****   *     @arg I2C_DutyCycle_16_9: I2C fast mode Tlow/Thigh = 16/9
 888:./Libraries/STM32F10x_StdPeriph_Driver/src/stm32f10x_i2c.c ****   * @retval None
 889:./Libraries/STM32F10x_StdPeriph_Driver/src/stm32f10x_i2c.c ****   */
 890:./Libraries/STM32F10x_StdPeriph_Driver/src/stm32f10x_i2c.c **** void I2C_FastModeDutyCycleConfig(I2C_TypeDef* I2Cx, uint16_t I2C_DutyCycle)
 891:./Libraries/STM32F10x_StdPeriph_Driver/src/stm32f10x_i2c.c **** {
 1305              		.loc 1 891 1 is_stmt 1 view -0
 1306              		.cfi_startproc
 1307              		@ args = 0, pretend = 0, frame = 0
 1308              		@ frame_needed = 0, uses_anonymous_args = 0
 1309              		@ link register save eliminated.
 892:./Libraries/STM32F10x_StdPeriph_Driver/src/stm32f10x_i2c.c ****   /* Check the parameters */
 893:./Libraries/STM32F10x_StdPeriph_Driver/src/stm32f10x_i2c.c ****   assert_param(IS_I2C_ALL_PERIPH(I2Cx));
 1310              		.loc 1 893 3 view .LVU352
 894:./Libraries/STM32F10x_StdPeriph_Driver/src/stm32f10x_i2c.c ****   assert_param(IS_I2C_DUTY_CYCLE(I2C_DutyCycle));
 1311              		.loc 1 894 3 view .LVU353
 895:./Libraries/STM32F10x_StdPeriph_Driver/src/stm32f10x_i2c.c ****   if (I2C_DutyCycle != I2C_DutyCycle_16_9)
 1312              		.loc 1 895 3 view .LVU354
 1313              		.loc 1 895 6 is_stmt 0 view .LVU355
 1314 0000 B1F5804F 		cmp	r1, #16384
 1315 0004 06D0     		beq	.L85
 896:./Libraries/STM32F10x_StdPeriph_Driver/src/stm32f10x_i2c.c ****   {
 897:./Libraries/STM32F10x_StdPeriph_Driver/src/stm32f10x_i2c.c ****     /* I2C fast mode Tlow/Thigh=2 */
 898:./Libraries/STM32F10x_StdPeriph_Driver/src/stm32f10x_i2c.c ****     I2Cx->CCR &= I2C_DutyCycle_2;
 1316              		.loc 1 898 5 is_stmt 1 view .LVU356
 1317              		.loc 1 898 15 is_stmt 0 view .LVU357
 1318 0006 838B     		ldrh	r3, [r0, #28]
 1319 0008 9BB2     		uxth	r3, r3
 1320 000a 23F48043 		bic	r3, r3, #16384
 1321 000e 9BB2     		uxth	r3, r3
 1322 0010 8383     		strh	r3, [r0, #28]	@ movhi
 1323 0012 7047     		bx	lr
 1324              	.L85:
 899:./Libraries/STM32F10x_StdPeriph_Driver/src/stm32f10x_i2c.c ****   }
 900:./Libraries/STM32F10x_StdPeriph_Driver/src/stm32f10x_i2c.c ****   else
 901:./Libraries/STM32F10x_StdPeriph_Driver/src/stm32f10x_i2c.c ****   {
 902:./Libraries/STM32F10x_StdPeriph_Driver/src/stm32f10x_i2c.c ****     /* I2C fast mode Tlow/Thigh=16/9 */
 903:./Libraries/STM32F10x_StdPeriph_Driver/src/stm32f10x_i2c.c ****     I2Cx->CCR |= I2C_DutyCycle_16_9;
 1325              		.loc 1 903 5 is_stmt 1 view .LVU358
 1326              		.loc 1 903 15 is_stmt 0 view .LVU359
 1327 0014 838B     		ldrh	r3, [r0, #28]
 1328 0016 9BB2     		uxth	r3, r3
 1329 0018 43F48043 		orr	r3, r3, #16384
 1330 001c 8383     		strh	r3, [r0, #28]	@ movhi
 904:./Libraries/STM32F10x_StdPeriph_Driver/src/stm32f10x_i2c.c ****   }
 905:./Libraries/STM32F10x_StdPeriph_Driver/src/stm32f10x_i2c.c **** }
 1331              		.loc 1 905 1 view .LVU360
 1332 001e 7047     		bx	lr
 1333              		.cfi_endproc
ARM GAS  /tmp/cctrGC4Q.s 			page 40


 1334              	.LFE55:
 1336              		.section	.text.I2C_CheckEvent,"ax",%progbits
 1337              		.align	1
 1338              		.global	I2C_CheckEvent
 1339              		.syntax unified
 1340              		.thumb
 1341              		.thumb_func
 1342              		.fpu softvfp
 1344              	I2C_CheckEvent:
 1345              	.LVL78:
 1346              	.LFB56:
 906:./Libraries/STM32F10x_StdPeriph_Driver/src/stm32f10x_i2c.c **** 
 907:./Libraries/STM32F10x_StdPeriph_Driver/src/stm32f10x_i2c.c **** 
 908:./Libraries/STM32F10x_StdPeriph_Driver/src/stm32f10x_i2c.c **** 
 909:./Libraries/STM32F10x_StdPeriph_Driver/src/stm32f10x_i2c.c **** /**
 910:./Libraries/STM32F10x_StdPeriph_Driver/src/stm32f10x_i2c.c ****  * @brief
 911:./Libraries/STM32F10x_StdPeriph_Driver/src/stm32f10x_i2c.c ****  ****************************************************************************************
 912:./Libraries/STM32F10x_StdPeriph_Driver/src/stm32f10x_i2c.c ****  *
 913:./Libraries/STM32F10x_StdPeriph_Driver/src/stm32f10x_i2c.c ****  *                         I2C State Monitoring Functions
 914:./Libraries/STM32F10x_StdPeriph_Driver/src/stm32f10x_i2c.c ****  *                       
 915:./Libraries/STM32F10x_StdPeriph_Driver/src/stm32f10x_i2c.c ****  ****************************************************************************************   
 916:./Libraries/STM32F10x_StdPeriph_Driver/src/stm32f10x_i2c.c ****  * This I2C driver provides three different ways for I2C state monitoring
 917:./Libraries/STM32F10x_StdPeriph_Driver/src/stm32f10x_i2c.c ****  *  depending on the application requirements and constraints:
 918:./Libraries/STM32F10x_StdPeriph_Driver/src/stm32f10x_i2c.c ****  *        
 919:./Libraries/STM32F10x_StdPeriph_Driver/src/stm32f10x_i2c.c ****  *  
 920:./Libraries/STM32F10x_StdPeriph_Driver/src/stm32f10x_i2c.c ****  * 1) Basic state monitoring:
 921:./Libraries/STM32F10x_StdPeriph_Driver/src/stm32f10x_i2c.c ****  *    Using I2C_CheckEvent() function:
 922:./Libraries/STM32F10x_StdPeriph_Driver/src/stm32f10x_i2c.c ****  *    It compares the status registers (SR1 and SR2) content to a given event
 923:./Libraries/STM32F10x_StdPeriph_Driver/src/stm32f10x_i2c.c ****  *    (can be the combination of one or more flags).
 924:./Libraries/STM32F10x_StdPeriph_Driver/src/stm32f10x_i2c.c ****  *    It returns SUCCESS if the current status includes the given flags 
 925:./Libraries/STM32F10x_StdPeriph_Driver/src/stm32f10x_i2c.c ****  *    and returns ERROR if one or more flags are missing in the current status.
 926:./Libraries/STM32F10x_StdPeriph_Driver/src/stm32f10x_i2c.c ****  *    - When to use:
 927:./Libraries/STM32F10x_StdPeriph_Driver/src/stm32f10x_i2c.c ****  *      - This function is suitable for most applications as well as for startup 
 928:./Libraries/STM32F10x_StdPeriph_Driver/src/stm32f10x_i2c.c ****  *      activity since the events are fully described in the product reference manual 
 929:./Libraries/STM32F10x_StdPeriph_Driver/src/stm32f10x_i2c.c ****  *      (RM0008).
 930:./Libraries/STM32F10x_StdPeriph_Driver/src/stm32f10x_i2c.c ****  *      - It is also suitable for users who need to define their own events.
 931:./Libraries/STM32F10x_StdPeriph_Driver/src/stm32f10x_i2c.c ****  *    - Limitations:
 932:./Libraries/STM32F10x_StdPeriph_Driver/src/stm32f10x_i2c.c ****  *      - If an error occurs (ie. error flags are set besides to the monitored flags),
 933:./Libraries/STM32F10x_StdPeriph_Driver/src/stm32f10x_i2c.c ****  *        the I2C_CheckEvent() function may return SUCCESS despite the communication
 934:./Libraries/STM32F10x_StdPeriph_Driver/src/stm32f10x_i2c.c ****  *        hold or corrupted real state. 
 935:./Libraries/STM32F10x_StdPeriph_Driver/src/stm32f10x_i2c.c ****  *        In this case, it is advised to use error interrupts to monitor the error
 936:./Libraries/STM32F10x_StdPeriph_Driver/src/stm32f10x_i2c.c ****  *        events and handle them in the interrupt IRQ handler.
 937:./Libraries/STM32F10x_StdPeriph_Driver/src/stm32f10x_i2c.c ****  *        
 938:./Libraries/STM32F10x_StdPeriph_Driver/src/stm32f10x_i2c.c ****  *        @note 
 939:./Libraries/STM32F10x_StdPeriph_Driver/src/stm32f10x_i2c.c ****  *        For error management, it is advised to use the following functions:
 940:./Libraries/STM32F10x_StdPeriph_Driver/src/stm32f10x_i2c.c ****  *          - I2C_ITConfig() to configure and enable the error interrupts (I2C_IT_ERR).
 941:./Libraries/STM32F10x_StdPeriph_Driver/src/stm32f10x_i2c.c ****  *          - I2Cx_ER_IRQHandler() which is called when the error interrupt occurs.
 942:./Libraries/STM32F10x_StdPeriph_Driver/src/stm32f10x_i2c.c ****  *            Where x is the peripheral instance (I2C1, I2C2 ...)
 943:./Libraries/STM32F10x_StdPeriph_Driver/src/stm32f10x_i2c.c ****  *          - I2C_GetFlagStatus() or I2C_GetITStatus() to be called into I2Cx_ER_IRQHandler() 
 944:./Libraries/STM32F10x_StdPeriph_Driver/src/stm32f10x_i2c.c ****  *            in order to determine which error occured.
 945:./Libraries/STM32F10x_StdPeriph_Driver/src/stm32f10x_i2c.c ****  *          - I2C_ClearFlag() or I2C_ClearITPendingBit() and/or I2C_SoftwareResetCmd()
 946:./Libraries/STM32F10x_StdPeriph_Driver/src/stm32f10x_i2c.c ****  *            and/or I2C_GenerateStop() in order to clear the error flag and source,
 947:./Libraries/STM32F10x_StdPeriph_Driver/src/stm32f10x_i2c.c ****  *            and return to correct communication status.
 948:./Libraries/STM32F10x_StdPeriph_Driver/src/stm32f10x_i2c.c ****  *            
 949:./Libraries/STM32F10x_StdPeriph_Driver/src/stm32f10x_i2c.c ****  *
 950:./Libraries/STM32F10x_StdPeriph_Driver/src/stm32f10x_i2c.c ****  *  2) Advanced state monitoring:
 951:./Libraries/STM32F10x_StdPeriph_Driver/src/stm32f10x_i2c.c ****  *     Using the function I2C_GetLastEvent() which returns the image of both status 
ARM GAS  /tmp/cctrGC4Q.s 			page 41


 952:./Libraries/STM32F10x_StdPeriph_Driver/src/stm32f10x_i2c.c ****  *     registers in a single word (uint32_t) (Status Register 2 value is shifted left 
 953:./Libraries/STM32F10x_StdPeriph_Driver/src/stm32f10x_i2c.c ****  *     by 16 bits and concatenated to Status Register 1).
 954:./Libraries/STM32F10x_StdPeriph_Driver/src/stm32f10x_i2c.c ****  *     - When to use:
 955:./Libraries/STM32F10x_StdPeriph_Driver/src/stm32f10x_i2c.c ****  *       - This function is suitable for the same applications above but it allows to
 956:./Libraries/STM32F10x_StdPeriph_Driver/src/stm32f10x_i2c.c ****  *         overcome the mentioned limitation of I2C_GetFlagStatus() function.
 957:./Libraries/STM32F10x_StdPeriph_Driver/src/stm32f10x_i2c.c ****  *         The returned value could be compared to events already defined in the 
 958:./Libraries/STM32F10x_StdPeriph_Driver/src/stm32f10x_i2c.c ****  *         library (stm32f10x_i2c.h) or to custom values defined by user.
 959:./Libraries/STM32F10x_StdPeriph_Driver/src/stm32f10x_i2c.c ****  *       - This function is suitable when multiple flags are monitored at the same time.
 960:./Libraries/STM32F10x_StdPeriph_Driver/src/stm32f10x_i2c.c ****  *       - At the opposite of I2C_CheckEvent() function, this function allows user to
 961:./Libraries/STM32F10x_StdPeriph_Driver/src/stm32f10x_i2c.c ****  *         choose when an event is accepted (when all events flags are set and no 
 962:./Libraries/STM32F10x_StdPeriph_Driver/src/stm32f10x_i2c.c ****  *         other flags are set or just when the needed flags are set like 
 963:./Libraries/STM32F10x_StdPeriph_Driver/src/stm32f10x_i2c.c ****  *         I2C_CheckEvent() function).
 964:./Libraries/STM32F10x_StdPeriph_Driver/src/stm32f10x_i2c.c ****  *     - Limitations:
 965:./Libraries/STM32F10x_StdPeriph_Driver/src/stm32f10x_i2c.c ****  *       - User may need to define his own events.
 966:./Libraries/STM32F10x_StdPeriph_Driver/src/stm32f10x_i2c.c ****  *       - Same remark concerning the error management is applicable for this 
 967:./Libraries/STM32F10x_StdPeriph_Driver/src/stm32f10x_i2c.c ****  *         function if user decides to check only regular communication flags (and 
 968:./Libraries/STM32F10x_StdPeriph_Driver/src/stm32f10x_i2c.c ****  *         ignores error flags).
 969:./Libraries/STM32F10x_StdPeriph_Driver/src/stm32f10x_i2c.c ****  *     
 970:./Libraries/STM32F10x_StdPeriph_Driver/src/stm32f10x_i2c.c ****  *
 971:./Libraries/STM32F10x_StdPeriph_Driver/src/stm32f10x_i2c.c ****  *  3) Flag-based state monitoring:
 972:./Libraries/STM32F10x_StdPeriph_Driver/src/stm32f10x_i2c.c ****  *     Using the function I2C_GetFlagStatus() which simply returns the status of 
 973:./Libraries/STM32F10x_StdPeriph_Driver/src/stm32f10x_i2c.c ****  *     one single flag (ie. I2C_FLAG_RXNE ...). 
 974:./Libraries/STM32F10x_StdPeriph_Driver/src/stm32f10x_i2c.c ****  *     - When to use:
 975:./Libraries/STM32F10x_StdPeriph_Driver/src/stm32f10x_i2c.c ****  *        - This function could be used for specific applications or in debug phase.
 976:./Libraries/STM32F10x_StdPeriph_Driver/src/stm32f10x_i2c.c ****  *        - It is suitable when only one flag checking is needed (most I2C events 
 977:./Libraries/STM32F10x_StdPeriph_Driver/src/stm32f10x_i2c.c ****  *          are monitored through multiple flags).
 978:./Libraries/STM32F10x_StdPeriph_Driver/src/stm32f10x_i2c.c ****  *     - Limitations: 
 979:./Libraries/STM32F10x_StdPeriph_Driver/src/stm32f10x_i2c.c ****  *        - When calling this function, the Status register is accessed. Some flags are
 980:./Libraries/STM32F10x_StdPeriph_Driver/src/stm32f10x_i2c.c ****  *          cleared when the status register is accessed. So checking the status
 981:./Libraries/STM32F10x_StdPeriph_Driver/src/stm32f10x_i2c.c ****  *          of one Flag, may clear other ones.
 982:./Libraries/STM32F10x_StdPeriph_Driver/src/stm32f10x_i2c.c ****  *        - Function may need to be called twice or more in order to monitor one 
 983:./Libraries/STM32F10x_StdPeriph_Driver/src/stm32f10x_i2c.c ****  *          single event.
 984:./Libraries/STM32F10x_StdPeriph_Driver/src/stm32f10x_i2c.c ****  *
 985:./Libraries/STM32F10x_StdPeriph_Driver/src/stm32f10x_i2c.c ****  *  For detailed description of Events, please refer to section I2C_Events in 
 986:./Libraries/STM32F10x_StdPeriph_Driver/src/stm32f10x_i2c.c ****  *  stm32f10x_i2c.h file.
 987:./Libraries/STM32F10x_StdPeriph_Driver/src/stm32f10x_i2c.c ****  *  
 988:./Libraries/STM32F10x_StdPeriph_Driver/src/stm32f10x_i2c.c ****  */
 989:./Libraries/STM32F10x_StdPeriph_Driver/src/stm32f10x_i2c.c **** 
 990:./Libraries/STM32F10x_StdPeriph_Driver/src/stm32f10x_i2c.c **** /**
 991:./Libraries/STM32F10x_StdPeriph_Driver/src/stm32f10x_i2c.c ****  * 
 992:./Libraries/STM32F10x_StdPeriph_Driver/src/stm32f10x_i2c.c ****  *  1) Basic state monitoring
 993:./Libraries/STM32F10x_StdPeriph_Driver/src/stm32f10x_i2c.c ****  *******************************************************************************
 994:./Libraries/STM32F10x_StdPeriph_Driver/src/stm32f10x_i2c.c ****  */
 995:./Libraries/STM32F10x_StdPeriph_Driver/src/stm32f10x_i2c.c **** 
 996:./Libraries/STM32F10x_StdPeriph_Driver/src/stm32f10x_i2c.c **** /**
 997:./Libraries/STM32F10x_StdPeriph_Driver/src/stm32f10x_i2c.c ****   * @brief  Checks whether the last I2Cx Event is equal to the one passed
 998:./Libraries/STM32F10x_StdPeriph_Driver/src/stm32f10x_i2c.c ****   *   as parameter.
 999:./Libraries/STM32F10x_StdPeriph_Driver/src/stm32f10x_i2c.c ****   * @param  I2Cx: where x can be 1 or 2 to select the I2C peripheral.
1000:./Libraries/STM32F10x_StdPeriph_Driver/src/stm32f10x_i2c.c ****   * @param  I2C_EVENT: specifies the event to be checked. 
1001:./Libraries/STM32F10x_StdPeriph_Driver/src/stm32f10x_i2c.c ****   *   This parameter can be one of the following values:
1002:./Libraries/STM32F10x_StdPeriph_Driver/src/stm32f10x_i2c.c ****   *     @arg I2C_EVENT_SLAVE_TRANSMITTER_ADDRESS_MATCHED           : EV1
1003:./Libraries/STM32F10x_StdPeriph_Driver/src/stm32f10x_i2c.c ****   *     @arg I2C_EVENT_SLAVE_RECEIVER_ADDRESS_MATCHED              : EV1
1004:./Libraries/STM32F10x_StdPeriph_Driver/src/stm32f10x_i2c.c ****   *     @arg I2C_EVENT_SLAVE_TRANSMITTER_SECONDADDRESS_MATCHED     : EV1
1005:./Libraries/STM32F10x_StdPeriph_Driver/src/stm32f10x_i2c.c ****   *     @arg I2C_EVENT_SLAVE_RECEIVER_SECONDADDRESS_MATCHED        : EV1
1006:./Libraries/STM32F10x_StdPeriph_Driver/src/stm32f10x_i2c.c ****   *     @arg I2C_EVENT_SLAVE_GENERALCALLADDRESS_MATCHED            : EV1
1007:./Libraries/STM32F10x_StdPeriph_Driver/src/stm32f10x_i2c.c ****   *     @arg I2C_EVENT_SLAVE_BYTE_RECEIVED                         : EV2
1008:./Libraries/STM32F10x_StdPeriph_Driver/src/stm32f10x_i2c.c ****   *     @arg (I2C_EVENT_SLAVE_BYTE_RECEIVED | I2C_FLAG_DUALF)      : EV2
ARM GAS  /tmp/cctrGC4Q.s 			page 42


1009:./Libraries/STM32F10x_StdPeriph_Driver/src/stm32f10x_i2c.c ****   *     @arg (I2C_EVENT_SLAVE_BYTE_RECEIVED | I2C_FLAG_GENCALL)    : EV2
1010:./Libraries/STM32F10x_StdPeriph_Driver/src/stm32f10x_i2c.c ****   *     @arg I2C_EVENT_SLAVE_BYTE_TRANSMITTED                      : EV3
1011:./Libraries/STM32F10x_StdPeriph_Driver/src/stm32f10x_i2c.c ****   *     @arg (I2C_EVENT_SLAVE_BYTE_TRANSMITTED | I2C_FLAG_DUALF)   : EV3
1012:./Libraries/STM32F10x_StdPeriph_Driver/src/stm32f10x_i2c.c ****   *     @arg (I2C_EVENT_SLAVE_BYTE_TRANSMITTED | I2C_FLAG_GENCALL) : EV3
1013:./Libraries/STM32F10x_StdPeriph_Driver/src/stm32f10x_i2c.c ****   *     @arg I2C_EVENT_SLAVE_ACK_FAILURE                           : EV3_2
1014:./Libraries/STM32F10x_StdPeriph_Driver/src/stm32f10x_i2c.c ****   *     @arg I2C_EVENT_SLAVE_STOP_DETECTED                         : EV4
1015:./Libraries/STM32F10x_StdPeriph_Driver/src/stm32f10x_i2c.c ****   *     @arg I2C_EVENT_MASTER_MODE_SELECT                          : EV5
1016:./Libraries/STM32F10x_StdPeriph_Driver/src/stm32f10x_i2c.c ****   *     @arg I2C_EVENT_MASTER_TRANSMITTER_MODE_SELECTED            : EV6     
1017:./Libraries/STM32F10x_StdPeriph_Driver/src/stm32f10x_i2c.c ****   *     @arg I2C_EVENT_MASTER_RECEIVER_MODE_SELECTED               : EV6
1018:./Libraries/STM32F10x_StdPeriph_Driver/src/stm32f10x_i2c.c ****   *     @arg I2C_EVENT_MASTER_BYTE_RECEIVED                        : EV7
1019:./Libraries/STM32F10x_StdPeriph_Driver/src/stm32f10x_i2c.c ****   *     @arg I2C_EVENT_MASTER_BYTE_TRANSMITTING                    : EV8
1020:./Libraries/STM32F10x_StdPeriph_Driver/src/stm32f10x_i2c.c ****   *     @arg I2C_EVENT_MASTER_BYTE_TRANSMITTED                     : EV8_2
1021:./Libraries/STM32F10x_StdPeriph_Driver/src/stm32f10x_i2c.c ****   *     @arg I2C_EVENT_MASTER_MODE_ADDRESS10                       : EV9
1022:./Libraries/STM32F10x_StdPeriph_Driver/src/stm32f10x_i2c.c ****   *     
1023:./Libraries/STM32F10x_StdPeriph_Driver/src/stm32f10x_i2c.c ****   * @note: For detailed description of Events, please refer to section 
1024:./Libraries/STM32F10x_StdPeriph_Driver/src/stm32f10x_i2c.c ****   *    I2C_Events in stm32f10x_i2c.h file.
1025:./Libraries/STM32F10x_StdPeriph_Driver/src/stm32f10x_i2c.c ****   *    
1026:./Libraries/STM32F10x_StdPeriph_Driver/src/stm32f10x_i2c.c ****   * @retval An ErrorStatus enumeration value:
1027:./Libraries/STM32F10x_StdPeriph_Driver/src/stm32f10x_i2c.c ****   * - SUCCESS: Last event is equal to the I2C_EVENT
1028:./Libraries/STM32F10x_StdPeriph_Driver/src/stm32f10x_i2c.c ****   * - ERROR: Last event is different from the I2C_EVENT
1029:./Libraries/STM32F10x_StdPeriph_Driver/src/stm32f10x_i2c.c ****   */
1030:./Libraries/STM32F10x_StdPeriph_Driver/src/stm32f10x_i2c.c **** ErrorStatus I2C_CheckEvent(I2C_TypeDef* I2Cx, uint32_t I2C_EVENT)
1031:./Libraries/STM32F10x_StdPeriph_Driver/src/stm32f10x_i2c.c **** {
 1347              		.loc 1 1031 1 is_stmt 1 view -0
 1348              		.cfi_startproc
 1349              		@ args = 0, pretend = 0, frame = 0
 1350              		@ frame_needed = 0, uses_anonymous_args = 0
 1351              		@ link register save eliminated.
1032:./Libraries/STM32F10x_StdPeriph_Driver/src/stm32f10x_i2c.c ****   uint32_t lastevent = 0;
 1352              		.loc 1 1032 3 view .LVU362
1033:./Libraries/STM32F10x_StdPeriph_Driver/src/stm32f10x_i2c.c ****   uint32_t flag1 = 0, flag2 = 0;
 1353              		.loc 1 1033 3 view .LVU363
1034:./Libraries/STM32F10x_StdPeriph_Driver/src/stm32f10x_i2c.c ****   ErrorStatus status = ERROR;
 1354              		.loc 1 1034 3 view .LVU364
1035:./Libraries/STM32F10x_StdPeriph_Driver/src/stm32f10x_i2c.c **** 
1036:./Libraries/STM32F10x_StdPeriph_Driver/src/stm32f10x_i2c.c ****   /* Check the parameters */
1037:./Libraries/STM32F10x_StdPeriph_Driver/src/stm32f10x_i2c.c ****   assert_param(IS_I2C_ALL_PERIPH(I2Cx));
 1355              		.loc 1 1037 3 view .LVU365
1038:./Libraries/STM32F10x_StdPeriph_Driver/src/stm32f10x_i2c.c ****   assert_param(IS_I2C_EVENT(I2C_EVENT));
 1356              		.loc 1 1038 3 view .LVU366
1039:./Libraries/STM32F10x_StdPeriph_Driver/src/stm32f10x_i2c.c **** 
1040:./Libraries/STM32F10x_StdPeriph_Driver/src/stm32f10x_i2c.c ****   /* Read the I2Cx status register */
1041:./Libraries/STM32F10x_StdPeriph_Driver/src/stm32f10x_i2c.c ****   flag1 = I2Cx->SR1;
 1357              		.loc 1 1041 3 view .LVU367
 1358              		.loc 1 1041 15 is_stmt 0 view .LVU368
 1359 0000 838A     		ldrh	r3, [r0, #20]
 1360 0002 9BB2     		uxth	r3, r3
 1361              	.LVL79:
1042:./Libraries/STM32F10x_StdPeriph_Driver/src/stm32f10x_i2c.c ****   flag2 = I2Cx->SR2;
 1362              		.loc 1 1042 3 is_stmt 1 view .LVU369
 1363              		.loc 1 1042 15 is_stmt 0 view .LVU370
 1364 0004 028B     		ldrh	r2, [r0, #24]
 1365              	.LVL80:
1043:./Libraries/STM32F10x_StdPeriph_Driver/src/stm32f10x_i2c.c ****   flag2 = flag2 << 16;
 1366              		.loc 1 1043 3 is_stmt 1 view .LVU371
1044:./Libraries/STM32F10x_StdPeriph_Driver/src/stm32f10x_i2c.c **** 
1045:./Libraries/STM32F10x_StdPeriph_Driver/src/stm32f10x_i2c.c ****   /* Get the last event value from I2C status register */
ARM GAS  /tmp/cctrGC4Q.s 			page 43


1046:./Libraries/STM32F10x_StdPeriph_Driver/src/stm32f10x_i2c.c ****   lastevent = (flag1 | flag2) & FLAG_Mask;
 1367              		.loc 1 1046 3 view .LVU372
 1368              		.loc 1 1046 22 is_stmt 0 view .LVU373
 1369 0006 43EA0243 		orr	r3, r3, r2, lsl #16
 1370              	.LVL81:
 1371              		.loc 1 1046 13 view .LVU374
 1372 000a 23F07F43 		bic	r3, r3, #-16777216
 1373              	.LVL82:
1047:./Libraries/STM32F10x_StdPeriph_Driver/src/stm32f10x_i2c.c **** 
1048:./Libraries/STM32F10x_StdPeriph_Driver/src/stm32f10x_i2c.c ****   /* Check whether the last event contains the I2C_EVENT */
1049:./Libraries/STM32F10x_StdPeriph_Driver/src/stm32f10x_i2c.c ****   if ((lastevent & I2C_EVENT) == I2C_EVENT)
 1374              		.loc 1 1049 3 is_stmt 1 view .LVU375
 1375              		.loc 1 1049 6 is_stmt 0 view .LVU376
 1376 000e 31EA0303 		bics	r3, r1, r3
 1377              	.LVL83:
 1378              		.loc 1 1049 6 view .LVU377
 1379 0012 01D0     		beq	.L90
1050:./Libraries/STM32F10x_StdPeriph_Driver/src/stm32f10x_i2c.c ****   {
1051:./Libraries/STM32F10x_StdPeriph_Driver/src/stm32f10x_i2c.c ****     /* SUCCESS: last event is equal to I2C_EVENT */
1052:./Libraries/STM32F10x_StdPeriph_Driver/src/stm32f10x_i2c.c ****     status = SUCCESS;
1053:./Libraries/STM32F10x_StdPeriph_Driver/src/stm32f10x_i2c.c ****   }
1054:./Libraries/STM32F10x_StdPeriph_Driver/src/stm32f10x_i2c.c ****   else
1055:./Libraries/STM32F10x_StdPeriph_Driver/src/stm32f10x_i2c.c ****   {
1056:./Libraries/STM32F10x_StdPeriph_Driver/src/stm32f10x_i2c.c ****     /* ERROR: last event is different from I2C_EVENT */
1057:./Libraries/STM32F10x_StdPeriph_Driver/src/stm32f10x_i2c.c ****     status = ERROR;
 1380              		.loc 1 1057 12 view .LVU378
 1381 0014 0020     		movs	r0, #0
 1382              	.LVL84:
1058:./Libraries/STM32F10x_StdPeriph_Driver/src/stm32f10x_i2c.c ****   }
1059:./Libraries/STM32F10x_StdPeriph_Driver/src/stm32f10x_i2c.c ****   /* Return status */
1060:./Libraries/STM32F10x_StdPeriph_Driver/src/stm32f10x_i2c.c ****   return status;
 1383              		.loc 1 1060 3 is_stmt 1 view .LVU379
1061:./Libraries/STM32F10x_StdPeriph_Driver/src/stm32f10x_i2c.c **** }
 1384              		.loc 1 1061 1 is_stmt 0 view .LVU380
 1385 0016 7047     		bx	lr
 1386              	.LVL85:
 1387              	.L90:
1052:./Libraries/STM32F10x_StdPeriph_Driver/src/stm32f10x_i2c.c ****   }
 1388              		.loc 1 1052 12 view .LVU381
 1389 0018 0120     		movs	r0, #1
 1390              	.LVL86:
1052:./Libraries/STM32F10x_StdPeriph_Driver/src/stm32f10x_i2c.c ****   }
 1391              		.loc 1 1052 12 view .LVU382
 1392 001a 7047     		bx	lr
 1393              		.cfi_endproc
 1394              	.LFE56:
 1396              		.section	.text.I2C_GetLastEvent,"ax",%progbits
 1397              		.align	1
 1398              		.global	I2C_GetLastEvent
 1399              		.syntax unified
 1400              		.thumb
 1401              		.thumb_func
 1402              		.fpu softvfp
 1404              	I2C_GetLastEvent:
 1405              	.LVL87:
 1406              	.LFB57:
1062:./Libraries/STM32F10x_StdPeriph_Driver/src/stm32f10x_i2c.c **** 
ARM GAS  /tmp/cctrGC4Q.s 			page 44


1063:./Libraries/STM32F10x_StdPeriph_Driver/src/stm32f10x_i2c.c **** /**
1064:./Libraries/STM32F10x_StdPeriph_Driver/src/stm32f10x_i2c.c ****  * 
1065:./Libraries/STM32F10x_StdPeriph_Driver/src/stm32f10x_i2c.c ****  *  2) Advanced state monitoring
1066:./Libraries/STM32F10x_StdPeriph_Driver/src/stm32f10x_i2c.c ****  *******************************************************************************
1067:./Libraries/STM32F10x_StdPeriph_Driver/src/stm32f10x_i2c.c ****  */
1068:./Libraries/STM32F10x_StdPeriph_Driver/src/stm32f10x_i2c.c **** 
1069:./Libraries/STM32F10x_StdPeriph_Driver/src/stm32f10x_i2c.c **** /**
1070:./Libraries/STM32F10x_StdPeriph_Driver/src/stm32f10x_i2c.c ****   * @brief  Returns the last I2Cx Event.
1071:./Libraries/STM32F10x_StdPeriph_Driver/src/stm32f10x_i2c.c ****   * @param  I2Cx: where x can be 1 or 2 to select the I2C peripheral.
1072:./Libraries/STM32F10x_StdPeriph_Driver/src/stm32f10x_i2c.c ****   *     
1073:./Libraries/STM32F10x_StdPeriph_Driver/src/stm32f10x_i2c.c ****   * @note: For detailed description of Events, please refer to section 
1074:./Libraries/STM32F10x_StdPeriph_Driver/src/stm32f10x_i2c.c ****   *    I2C_Events in stm32f10x_i2c.h file.
1075:./Libraries/STM32F10x_StdPeriph_Driver/src/stm32f10x_i2c.c ****   *    
1076:./Libraries/STM32F10x_StdPeriph_Driver/src/stm32f10x_i2c.c ****   * @retval The last event
1077:./Libraries/STM32F10x_StdPeriph_Driver/src/stm32f10x_i2c.c ****   */
1078:./Libraries/STM32F10x_StdPeriph_Driver/src/stm32f10x_i2c.c **** uint32_t I2C_GetLastEvent(I2C_TypeDef* I2Cx)
1079:./Libraries/STM32F10x_StdPeriph_Driver/src/stm32f10x_i2c.c **** {
 1407              		.loc 1 1079 1 is_stmt 1 view -0
 1408              		.cfi_startproc
 1409              		@ args = 0, pretend = 0, frame = 0
 1410              		@ frame_needed = 0, uses_anonymous_args = 0
 1411              		@ link register save eliminated.
1080:./Libraries/STM32F10x_StdPeriph_Driver/src/stm32f10x_i2c.c ****   uint32_t lastevent = 0;
 1412              		.loc 1 1080 3 view .LVU384
1081:./Libraries/STM32F10x_StdPeriph_Driver/src/stm32f10x_i2c.c ****   uint32_t flag1 = 0, flag2 = 0;
 1413              		.loc 1 1081 3 view .LVU385
1082:./Libraries/STM32F10x_StdPeriph_Driver/src/stm32f10x_i2c.c **** 
1083:./Libraries/STM32F10x_StdPeriph_Driver/src/stm32f10x_i2c.c ****   /* Check the parameters */
1084:./Libraries/STM32F10x_StdPeriph_Driver/src/stm32f10x_i2c.c ****   assert_param(IS_I2C_ALL_PERIPH(I2Cx));
 1414              		.loc 1 1084 3 view .LVU386
1085:./Libraries/STM32F10x_StdPeriph_Driver/src/stm32f10x_i2c.c **** 
1086:./Libraries/STM32F10x_StdPeriph_Driver/src/stm32f10x_i2c.c ****   /* Read the I2Cx status register */
1087:./Libraries/STM32F10x_StdPeriph_Driver/src/stm32f10x_i2c.c ****   flag1 = I2Cx->SR1;
 1415              		.loc 1 1087 3 view .LVU387
 1416              		.loc 1 1087 15 is_stmt 0 view .LVU388
 1417 0000 838A     		ldrh	r3, [r0, #20]
 1418 0002 9BB2     		uxth	r3, r3
 1419              	.LVL88:
1088:./Libraries/STM32F10x_StdPeriph_Driver/src/stm32f10x_i2c.c ****   flag2 = I2Cx->SR2;
 1420              		.loc 1 1088 3 is_stmt 1 view .LVU389
 1421              		.loc 1 1088 15 is_stmt 0 view .LVU390
 1422 0004 008B     		ldrh	r0, [r0, #24]
 1423              	.LVL89:
1089:./Libraries/STM32F10x_StdPeriph_Driver/src/stm32f10x_i2c.c ****   flag2 = flag2 << 16;
 1424              		.loc 1 1089 3 is_stmt 1 view .LVU391
1090:./Libraries/STM32F10x_StdPeriph_Driver/src/stm32f10x_i2c.c **** 
1091:./Libraries/STM32F10x_StdPeriph_Driver/src/stm32f10x_i2c.c ****   /* Get the last event value from I2C status register */
1092:./Libraries/STM32F10x_StdPeriph_Driver/src/stm32f10x_i2c.c ****   lastevent = (flag1 | flag2) & FLAG_Mask;
 1425              		.loc 1 1092 3 view .LVU392
 1426              		.loc 1 1092 22 is_stmt 0 view .LVU393
 1427 0006 43EA0040 		orr	r0, r3, r0, lsl #16
 1428              	.LVL90:
1093:./Libraries/STM32F10x_StdPeriph_Driver/src/stm32f10x_i2c.c **** 
1094:./Libraries/STM32F10x_StdPeriph_Driver/src/stm32f10x_i2c.c ****   /* Return status */
1095:./Libraries/STM32F10x_StdPeriph_Driver/src/stm32f10x_i2c.c ****   return lastevent;
 1429              		.loc 1 1095 3 is_stmt 1 view .LVU394
1096:./Libraries/STM32F10x_StdPeriph_Driver/src/stm32f10x_i2c.c **** }
ARM GAS  /tmp/cctrGC4Q.s 			page 45


 1430              		.loc 1 1096 1 is_stmt 0 view .LVU395
 1431 000a 20F07F40 		bic	r0, r0, #-16777216
 1432              	.LVL91:
 1433              		.loc 1 1096 1 view .LVU396
 1434 000e 7047     		bx	lr
 1435              		.cfi_endproc
 1436              	.LFE57:
 1438              		.section	.text.I2C_GetFlagStatus,"ax",%progbits
 1439              		.align	1
 1440              		.global	I2C_GetFlagStatus
 1441              		.syntax unified
 1442              		.thumb
 1443              		.thumb_func
 1444              		.fpu softvfp
 1446              	I2C_GetFlagStatus:
 1447              	.LVL92:
 1448              	.LFB58:
1097:./Libraries/STM32F10x_StdPeriph_Driver/src/stm32f10x_i2c.c **** 
1098:./Libraries/STM32F10x_StdPeriph_Driver/src/stm32f10x_i2c.c **** /**
1099:./Libraries/STM32F10x_StdPeriph_Driver/src/stm32f10x_i2c.c ****  * 
1100:./Libraries/STM32F10x_StdPeriph_Driver/src/stm32f10x_i2c.c ****  *  3) Flag-based state monitoring
1101:./Libraries/STM32F10x_StdPeriph_Driver/src/stm32f10x_i2c.c ****  *******************************************************************************
1102:./Libraries/STM32F10x_StdPeriph_Driver/src/stm32f10x_i2c.c ****  */
1103:./Libraries/STM32F10x_StdPeriph_Driver/src/stm32f10x_i2c.c **** 
1104:./Libraries/STM32F10x_StdPeriph_Driver/src/stm32f10x_i2c.c **** /**
1105:./Libraries/STM32F10x_StdPeriph_Driver/src/stm32f10x_i2c.c ****   * @brief  Checks whether the specified I2C flag is set or not.
1106:./Libraries/STM32F10x_StdPeriph_Driver/src/stm32f10x_i2c.c ****   * @param  I2Cx: where x can be 1 or 2 to select the I2C peripheral.
1107:./Libraries/STM32F10x_StdPeriph_Driver/src/stm32f10x_i2c.c ****   * @param  I2C_FLAG: specifies the flag to check. 
1108:./Libraries/STM32F10x_StdPeriph_Driver/src/stm32f10x_i2c.c ****   *   This parameter can be one of the following values:
1109:./Libraries/STM32F10x_StdPeriph_Driver/src/stm32f10x_i2c.c ****   *     @arg I2C_FLAG_DUALF: Dual flag (Slave mode)
1110:./Libraries/STM32F10x_StdPeriph_Driver/src/stm32f10x_i2c.c ****   *     @arg I2C_FLAG_SMBHOST: SMBus host header (Slave mode)
1111:./Libraries/STM32F10x_StdPeriph_Driver/src/stm32f10x_i2c.c ****   *     @arg I2C_FLAG_SMBDEFAULT: SMBus default header (Slave mode)
1112:./Libraries/STM32F10x_StdPeriph_Driver/src/stm32f10x_i2c.c ****   *     @arg I2C_FLAG_GENCALL: General call header flag (Slave mode)
1113:./Libraries/STM32F10x_StdPeriph_Driver/src/stm32f10x_i2c.c ****   *     @arg I2C_FLAG_TRA: Transmitter/Receiver flag
1114:./Libraries/STM32F10x_StdPeriph_Driver/src/stm32f10x_i2c.c ****   *     @arg I2C_FLAG_BUSY: Bus busy flag
1115:./Libraries/STM32F10x_StdPeriph_Driver/src/stm32f10x_i2c.c ****   *     @arg I2C_FLAG_MSL: Master/Slave flag
1116:./Libraries/STM32F10x_StdPeriph_Driver/src/stm32f10x_i2c.c ****   *     @arg I2C_FLAG_SMBALERT: SMBus Alert flag
1117:./Libraries/STM32F10x_StdPeriph_Driver/src/stm32f10x_i2c.c ****   *     @arg I2C_FLAG_TIMEOUT: Timeout or Tlow error flag
1118:./Libraries/STM32F10x_StdPeriph_Driver/src/stm32f10x_i2c.c ****   *     @arg I2C_FLAG_PECERR: PEC error in reception flag
1119:./Libraries/STM32F10x_StdPeriph_Driver/src/stm32f10x_i2c.c ****   *     @arg I2C_FLAG_OVR: Overrun/Underrun flag (Slave mode)
1120:./Libraries/STM32F10x_StdPeriph_Driver/src/stm32f10x_i2c.c ****   *     @arg I2C_FLAG_AF: Acknowledge failure flag
1121:./Libraries/STM32F10x_StdPeriph_Driver/src/stm32f10x_i2c.c ****   *     @arg I2C_FLAG_ARLO: Arbitration lost flag (Master mode)
1122:./Libraries/STM32F10x_StdPeriph_Driver/src/stm32f10x_i2c.c ****   *     @arg I2C_FLAG_BERR: Bus error flag
1123:./Libraries/STM32F10x_StdPeriph_Driver/src/stm32f10x_i2c.c ****   *     @arg I2C_FLAG_TXE: Data register empty flag (Transmitter)
1124:./Libraries/STM32F10x_StdPeriph_Driver/src/stm32f10x_i2c.c ****   *     @arg I2C_FLAG_RXNE: Data register not empty (Receiver) flag
1125:./Libraries/STM32F10x_StdPeriph_Driver/src/stm32f10x_i2c.c ****   *     @arg I2C_FLAG_STOPF: Stop detection flag (Slave mode)
1126:./Libraries/STM32F10x_StdPeriph_Driver/src/stm32f10x_i2c.c ****   *     @arg I2C_FLAG_ADD10: 10-bit header sent flag (Master mode)
1127:./Libraries/STM32F10x_StdPeriph_Driver/src/stm32f10x_i2c.c ****   *     @arg I2C_FLAG_BTF: Byte transfer finished flag
1128:./Libraries/STM32F10x_StdPeriph_Driver/src/stm32f10x_i2c.c ****   *     @arg I2C_FLAG_ADDR: Address sent flag (Master mode) "ADSL"
1129:./Libraries/STM32F10x_StdPeriph_Driver/src/stm32f10x_i2c.c ****   *   Address matched flag (Slave mode)"ENDA"
1130:./Libraries/STM32F10x_StdPeriph_Driver/src/stm32f10x_i2c.c ****   *     @arg I2C_FLAG_SB: Start bit flag (Master mode)
1131:./Libraries/STM32F10x_StdPeriph_Driver/src/stm32f10x_i2c.c ****   * @retval The new state of I2C_FLAG (SET or RESET).
1132:./Libraries/STM32F10x_StdPeriph_Driver/src/stm32f10x_i2c.c ****   */
1133:./Libraries/STM32F10x_StdPeriph_Driver/src/stm32f10x_i2c.c **** FlagStatus I2C_GetFlagStatus(I2C_TypeDef* I2Cx, uint32_t I2C_FLAG)
1134:./Libraries/STM32F10x_StdPeriph_Driver/src/stm32f10x_i2c.c **** {
 1449              		.loc 1 1134 1 is_stmt 1 view -0
 1450              		.cfi_startproc
ARM GAS  /tmp/cctrGC4Q.s 			page 46


 1451              		@ args = 0, pretend = 0, frame = 8
 1452              		@ frame_needed = 0, uses_anonymous_args = 0
 1453              		@ link register save eliminated.
 1454              		.loc 1 1134 1 is_stmt 0 view .LVU398
 1455 0000 82B0     		sub	sp, sp, #8
 1456              	.LCFI7:
 1457              		.cfi_def_cfa_offset 8
1135:./Libraries/STM32F10x_StdPeriph_Driver/src/stm32f10x_i2c.c ****   FlagStatus bitstatus = RESET;
 1458              		.loc 1 1135 3 is_stmt 1 view .LVU399
 1459              	.LVL93:
1136:./Libraries/STM32F10x_StdPeriph_Driver/src/stm32f10x_i2c.c ****   __IO uint32_t i2creg = 0, i2cxbase = 0;
 1460              		.loc 1 1136 3 view .LVU400
 1461              		.loc 1 1136 17 is_stmt 0 view .LVU401
 1462 0002 0023     		movs	r3, #0
 1463 0004 0193     		str	r3, [sp, #4]
 1464              		.loc 1 1136 29 view .LVU402
 1465 0006 0093     		str	r3, [sp]
1137:./Libraries/STM32F10x_StdPeriph_Driver/src/stm32f10x_i2c.c **** 
1138:./Libraries/STM32F10x_StdPeriph_Driver/src/stm32f10x_i2c.c ****   /* Check the parameters */
1139:./Libraries/STM32F10x_StdPeriph_Driver/src/stm32f10x_i2c.c ****   assert_param(IS_I2C_ALL_PERIPH(I2Cx));
 1466              		.loc 1 1139 3 is_stmt 1 view .LVU403
1140:./Libraries/STM32F10x_StdPeriph_Driver/src/stm32f10x_i2c.c ****   assert_param(IS_I2C_GET_FLAG(I2C_FLAG));
 1467              		.loc 1 1140 3 view .LVU404
1141:./Libraries/STM32F10x_StdPeriph_Driver/src/stm32f10x_i2c.c **** 
1142:./Libraries/STM32F10x_StdPeriph_Driver/src/stm32f10x_i2c.c ****   /* Get the I2Cx peripheral base address */
1143:./Libraries/STM32F10x_StdPeriph_Driver/src/stm32f10x_i2c.c ****   i2cxbase = (uint32_t)I2Cx;
 1468              		.loc 1 1143 3 view .LVU405
 1469              		.loc 1 1143 12 is_stmt 0 view .LVU406
 1470 0008 0090     		str	r0, [sp]
1144:./Libraries/STM32F10x_StdPeriph_Driver/src/stm32f10x_i2c.c ****   
1145:./Libraries/STM32F10x_StdPeriph_Driver/src/stm32f10x_i2c.c ****   /* Read flag register index */
1146:./Libraries/STM32F10x_StdPeriph_Driver/src/stm32f10x_i2c.c ****   i2creg = I2C_FLAG >> 28;
 1471              		.loc 1 1146 3 is_stmt 1 view .LVU407
 1472              		.loc 1 1146 21 is_stmt 0 view .LVU408
 1473 000a 0B0F     		lsrs	r3, r1, #28
 1474              		.loc 1 1146 10 view .LVU409
 1475 000c 0193     		str	r3, [sp, #4]
1147:./Libraries/STM32F10x_StdPeriph_Driver/src/stm32f10x_i2c.c ****   
1148:./Libraries/STM32F10x_StdPeriph_Driver/src/stm32f10x_i2c.c ****   /* Get bit[23:0] of the flag */
1149:./Libraries/STM32F10x_StdPeriph_Driver/src/stm32f10x_i2c.c ****   I2C_FLAG &= FLAG_Mask;
 1476              		.loc 1 1149 3 is_stmt 1 view .LVU410
 1477              		.loc 1 1149 12 is_stmt 0 view .LVU411
 1478 000e 21F07F41 		bic	r1, r1, #-16777216
 1479              	.LVL94:
1150:./Libraries/STM32F10x_StdPeriph_Driver/src/stm32f10x_i2c.c ****   
1151:./Libraries/STM32F10x_StdPeriph_Driver/src/stm32f10x_i2c.c ****   if(i2creg != 0)
 1480              		.loc 1 1151 3 is_stmt 1 view .LVU412
 1481              		.loc 1 1151 13 is_stmt 0 view .LVU413
 1482 0012 019B     		ldr	r3, [sp, #4]
 1483              		.loc 1 1151 5 view .LVU414
 1484 0014 4BB1     		cbz	r3, .L93
1152:./Libraries/STM32F10x_StdPeriph_Driver/src/stm32f10x_i2c.c ****   {
1153:./Libraries/STM32F10x_StdPeriph_Driver/src/stm32f10x_i2c.c ****     /* Get the I2Cx SR1 register address */
1154:./Libraries/STM32F10x_StdPeriph_Driver/src/stm32f10x_i2c.c ****     i2cxbase += 0x14;
 1485              		.loc 1 1154 5 is_stmt 1 view .LVU415
 1486              		.loc 1 1154 14 is_stmt 0 view .LVU416
 1487 0016 009B     		ldr	r3, [sp]
ARM GAS  /tmp/cctrGC4Q.s 			page 47


 1488 0018 1433     		adds	r3, r3, #20
 1489 001a 0093     		str	r3, [sp]
 1490              	.L94:
1155:./Libraries/STM32F10x_StdPeriph_Driver/src/stm32f10x_i2c.c ****   }
1156:./Libraries/STM32F10x_StdPeriph_Driver/src/stm32f10x_i2c.c ****   else
1157:./Libraries/STM32F10x_StdPeriph_Driver/src/stm32f10x_i2c.c ****   {
1158:./Libraries/STM32F10x_StdPeriph_Driver/src/stm32f10x_i2c.c ****     /* Flag in I2Cx SR2 Register */
1159:./Libraries/STM32F10x_StdPeriph_Driver/src/stm32f10x_i2c.c ****     I2C_FLAG = (uint32_t)(I2C_FLAG >> 16);
1160:./Libraries/STM32F10x_StdPeriph_Driver/src/stm32f10x_i2c.c ****     /* Get the I2Cx SR2 register address */
1161:./Libraries/STM32F10x_StdPeriph_Driver/src/stm32f10x_i2c.c ****     i2cxbase += 0x18;
1162:./Libraries/STM32F10x_StdPeriph_Driver/src/stm32f10x_i2c.c ****   }
1163:./Libraries/STM32F10x_StdPeriph_Driver/src/stm32f10x_i2c.c ****   
1164:./Libraries/STM32F10x_StdPeriph_Driver/src/stm32f10x_i2c.c ****   if(((*(__IO uint32_t *)i2cxbase) & I2C_FLAG) != (uint32_t)RESET)
 1491              		.loc 1 1164 3 is_stmt 1 view .LVU417
 1492              		.loc 1 1164 9 is_stmt 0 view .LVU418
 1493 001c 009B     		ldr	r3, [sp]
 1494              		.loc 1 1164 8 view .LVU419
 1495 001e 1B68     		ldr	r3, [r3]
 1496              		.loc 1 1164 5 view .LVU420
 1497 0020 0B42     		tst	r3, r1
 1498 0022 07D0     		beq	.L96
1165:./Libraries/STM32F10x_StdPeriph_Driver/src/stm32f10x_i2c.c ****   {
1166:./Libraries/STM32F10x_StdPeriph_Driver/src/stm32f10x_i2c.c ****     /* I2C_FLAG is set */
1167:./Libraries/STM32F10x_StdPeriph_Driver/src/stm32f10x_i2c.c ****     bitstatus = SET;
 1499              		.loc 1 1167 15 view .LVU421
 1500 0024 0120     		movs	r0, #1
 1501              	.LVL95:
 1502              	.L95:
1168:./Libraries/STM32F10x_StdPeriph_Driver/src/stm32f10x_i2c.c ****   }
1169:./Libraries/STM32F10x_StdPeriph_Driver/src/stm32f10x_i2c.c ****   else
1170:./Libraries/STM32F10x_StdPeriph_Driver/src/stm32f10x_i2c.c ****   {
1171:./Libraries/STM32F10x_StdPeriph_Driver/src/stm32f10x_i2c.c ****     /* I2C_FLAG is reset */
1172:./Libraries/STM32F10x_StdPeriph_Driver/src/stm32f10x_i2c.c ****     bitstatus = RESET;
1173:./Libraries/STM32F10x_StdPeriph_Driver/src/stm32f10x_i2c.c ****   }
1174:./Libraries/STM32F10x_StdPeriph_Driver/src/stm32f10x_i2c.c ****   
1175:./Libraries/STM32F10x_StdPeriph_Driver/src/stm32f10x_i2c.c ****   /* Return the I2C_FLAG status */
1176:./Libraries/STM32F10x_StdPeriph_Driver/src/stm32f10x_i2c.c ****   return  bitstatus;
 1503              		.loc 1 1176 3 is_stmt 1 view .LVU422
1177:./Libraries/STM32F10x_StdPeriph_Driver/src/stm32f10x_i2c.c **** }
 1504              		.loc 1 1177 1 is_stmt 0 view .LVU423
 1505 0026 02B0     		add	sp, sp, #8
 1506              	.LCFI8:
 1507              		.cfi_remember_state
 1508              		.cfi_def_cfa_offset 0
 1509              		@ sp needed
 1510 0028 7047     		bx	lr
 1511              	.LVL96:
 1512              	.L93:
 1513              	.LCFI9:
 1514              		.cfi_restore_state
1159:./Libraries/STM32F10x_StdPeriph_Driver/src/stm32f10x_i2c.c ****     /* Get the I2Cx SR2 register address */
 1515              		.loc 1 1159 5 is_stmt 1 view .LVU424
1159:./Libraries/STM32F10x_StdPeriph_Driver/src/stm32f10x_i2c.c ****     /* Get the I2Cx SR2 register address */
 1516              		.loc 1 1159 14 is_stmt 0 view .LVU425
 1517 002a 090C     		lsrs	r1, r1, #16
 1518              	.LVL97:
1161:./Libraries/STM32F10x_StdPeriph_Driver/src/stm32f10x_i2c.c ****   }
ARM GAS  /tmp/cctrGC4Q.s 			page 48


 1519              		.loc 1 1161 5 is_stmt 1 view .LVU426
1161:./Libraries/STM32F10x_StdPeriph_Driver/src/stm32f10x_i2c.c ****   }
 1520              		.loc 1 1161 14 is_stmt 0 view .LVU427
 1521 002c 009B     		ldr	r3, [sp]
 1522 002e 1833     		adds	r3, r3, #24
 1523 0030 0093     		str	r3, [sp]
 1524 0032 F3E7     		b	.L94
 1525              	.L96:
1172:./Libraries/STM32F10x_StdPeriph_Driver/src/stm32f10x_i2c.c ****   }
 1526              		.loc 1 1172 15 view .LVU428
 1527 0034 0020     		movs	r0, #0
 1528              	.LVL98:
1172:./Libraries/STM32F10x_StdPeriph_Driver/src/stm32f10x_i2c.c ****   }
 1529              		.loc 1 1172 15 view .LVU429
 1530 0036 F6E7     		b	.L95
 1531              		.cfi_endproc
 1532              	.LFE58:
 1534              		.section	.text.I2C_ClearFlag,"ax",%progbits
 1535              		.align	1
 1536              		.global	I2C_ClearFlag
 1537              		.syntax unified
 1538              		.thumb
 1539              		.thumb_func
 1540              		.fpu softvfp
 1542              	I2C_ClearFlag:
 1543              	.LVL99:
 1544              	.LFB59:
1178:./Libraries/STM32F10x_StdPeriph_Driver/src/stm32f10x_i2c.c **** 
1179:./Libraries/STM32F10x_StdPeriph_Driver/src/stm32f10x_i2c.c **** 
1180:./Libraries/STM32F10x_StdPeriph_Driver/src/stm32f10x_i2c.c **** 
1181:./Libraries/STM32F10x_StdPeriph_Driver/src/stm32f10x_i2c.c **** /**
1182:./Libraries/STM32F10x_StdPeriph_Driver/src/stm32f10x_i2c.c ****   * @brief  Clears the I2Cx's pending flags.
1183:./Libraries/STM32F10x_StdPeriph_Driver/src/stm32f10x_i2c.c ****   * @param  I2Cx: where x can be 1 or 2 to select the I2C peripheral.
1184:./Libraries/STM32F10x_StdPeriph_Driver/src/stm32f10x_i2c.c ****   * @param  I2C_FLAG: specifies the flag to clear. 
1185:./Libraries/STM32F10x_StdPeriph_Driver/src/stm32f10x_i2c.c ****   *   This parameter can be any combination of the following values:
1186:./Libraries/STM32F10x_StdPeriph_Driver/src/stm32f10x_i2c.c ****   *     @arg I2C_FLAG_SMBALERT: SMBus Alert flag
1187:./Libraries/STM32F10x_StdPeriph_Driver/src/stm32f10x_i2c.c ****   *     @arg I2C_FLAG_TIMEOUT: Timeout or Tlow error flag
1188:./Libraries/STM32F10x_StdPeriph_Driver/src/stm32f10x_i2c.c ****   *     @arg I2C_FLAG_PECERR: PEC error in reception flag
1189:./Libraries/STM32F10x_StdPeriph_Driver/src/stm32f10x_i2c.c ****   *     @arg I2C_FLAG_OVR: Overrun/Underrun flag (Slave mode)
1190:./Libraries/STM32F10x_StdPeriph_Driver/src/stm32f10x_i2c.c ****   *     @arg I2C_FLAG_AF: Acknowledge failure flag
1191:./Libraries/STM32F10x_StdPeriph_Driver/src/stm32f10x_i2c.c ****   *     @arg I2C_FLAG_ARLO: Arbitration lost flag (Master mode)
1192:./Libraries/STM32F10x_StdPeriph_Driver/src/stm32f10x_i2c.c ****   *     @arg I2C_FLAG_BERR: Bus error flag
1193:./Libraries/STM32F10x_StdPeriph_Driver/src/stm32f10x_i2c.c ****   *   
1194:./Libraries/STM32F10x_StdPeriph_Driver/src/stm32f10x_i2c.c ****   * @note
1195:./Libraries/STM32F10x_StdPeriph_Driver/src/stm32f10x_i2c.c ****   *   - STOPF (STOP detection) is cleared by software sequence: a read operation 
1196:./Libraries/STM32F10x_StdPeriph_Driver/src/stm32f10x_i2c.c ****   *     to I2C_SR1 register (I2C_GetFlagStatus()) followed by a write operation 
1197:./Libraries/STM32F10x_StdPeriph_Driver/src/stm32f10x_i2c.c ****   *     to I2C_CR1 register (I2C_Cmd() to re-enable the I2C peripheral).
1198:./Libraries/STM32F10x_StdPeriph_Driver/src/stm32f10x_i2c.c ****   *   - ADD10 (10-bit header sent) is cleared by software sequence: a read 
1199:./Libraries/STM32F10x_StdPeriph_Driver/src/stm32f10x_i2c.c ****   *     operation to I2C_SR1 (I2C_GetFlagStatus()) followed by writing the 
1200:./Libraries/STM32F10x_StdPeriph_Driver/src/stm32f10x_i2c.c ****   *     second byte of the address in DR register.
1201:./Libraries/STM32F10x_StdPeriph_Driver/src/stm32f10x_i2c.c ****   *   - BTF (Byte Transfer Finished) is cleared by software sequence: a read 
1202:./Libraries/STM32F10x_StdPeriph_Driver/src/stm32f10x_i2c.c ****   *     operation to I2C_SR1 register (I2C_GetFlagStatus()) followed by a 
1203:./Libraries/STM32F10x_StdPeriph_Driver/src/stm32f10x_i2c.c ****   *     read/write to I2C_DR register (I2C_SendData()).
1204:./Libraries/STM32F10x_StdPeriph_Driver/src/stm32f10x_i2c.c ****   *   - ADDR (Address sent) is cleared by software sequence: a read operation to 
1205:./Libraries/STM32F10x_StdPeriph_Driver/src/stm32f10x_i2c.c ****   *     I2C_SR1 register (I2C_GetFlagStatus()) followed by a read operation to 
1206:./Libraries/STM32F10x_StdPeriph_Driver/src/stm32f10x_i2c.c ****   *     I2C_SR2 register ((void)(I2Cx->SR2)).
1207:./Libraries/STM32F10x_StdPeriph_Driver/src/stm32f10x_i2c.c ****   *   - SB (Start Bit) is cleared software sequence: a read operation to I2C_SR1
ARM GAS  /tmp/cctrGC4Q.s 			page 49


1208:./Libraries/STM32F10x_StdPeriph_Driver/src/stm32f10x_i2c.c ****   *     register (I2C_GetFlagStatus()) followed by a write operation to I2C_DR
1209:./Libraries/STM32F10x_StdPeriph_Driver/src/stm32f10x_i2c.c ****   *     register  (I2C_SendData()).
1210:./Libraries/STM32F10x_StdPeriph_Driver/src/stm32f10x_i2c.c ****   * @retval None
1211:./Libraries/STM32F10x_StdPeriph_Driver/src/stm32f10x_i2c.c ****   */
1212:./Libraries/STM32F10x_StdPeriph_Driver/src/stm32f10x_i2c.c **** void I2C_ClearFlag(I2C_TypeDef* I2Cx, uint32_t I2C_FLAG)
1213:./Libraries/STM32F10x_StdPeriph_Driver/src/stm32f10x_i2c.c **** {
 1545              		.loc 1 1213 1 is_stmt 1 view -0
 1546              		.cfi_startproc
 1547              		@ args = 0, pretend = 0, frame = 0
 1548              		@ frame_needed = 0, uses_anonymous_args = 0
 1549              		@ link register save eliminated.
1214:./Libraries/STM32F10x_StdPeriph_Driver/src/stm32f10x_i2c.c ****   uint32_t flagpos = 0;
 1550              		.loc 1 1214 3 view .LVU431
1215:./Libraries/STM32F10x_StdPeriph_Driver/src/stm32f10x_i2c.c ****   /* Check the parameters */
1216:./Libraries/STM32F10x_StdPeriph_Driver/src/stm32f10x_i2c.c ****   assert_param(IS_I2C_ALL_PERIPH(I2Cx));
 1551              		.loc 1 1216 3 view .LVU432
1217:./Libraries/STM32F10x_StdPeriph_Driver/src/stm32f10x_i2c.c ****   assert_param(IS_I2C_CLEAR_FLAG(I2C_FLAG));
 1552              		.loc 1 1217 3 view .LVU433
1218:./Libraries/STM32F10x_StdPeriph_Driver/src/stm32f10x_i2c.c ****   /* Get the I2C flag position */
1219:./Libraries/STM32F10x_StdPeriph_Driver/src/stm32f10x_i2c.c ****   flagpos = I2C_FLAG & FLAG_Mask;
 1553              		.loc 1 1219 3 view .LVU434
 1554              		.loc 1 1219 11 is_stmt 0 view .LVU435
 1555 0000 21F07F41 		bic	r1, r1, #-16777216
 1556              	.LVL100:
1220:./Libraries/STM32F10x_StdPeriph_Driver/src/stm32f10x_i2c.c ****   /* Clear the selected I2C flag */
1221:./Libraries/STM32F10x_StdPeriph_Driver/src/stm32f10x_i2c.c ****   I2Cx->SR1 = (uint16_t)~flagpos;
 1557              		.loc 1 1221 3 is_stmt 1 view .LVU436
 1558              		.loc 1 1221 15 is_stmt 0 view .LVU437
 1559 0004 C943     		mvns	r1, r1
 1560              	.LVL101:
 1561              		.loc 1 1221 15 view .LVU438
 1562 0006 89B2     		uxth	r1, r1
 1563              	.LVL102:
 1564              		.loc 1 1221 13 view .LVU439
 1565 0008 8182     		strh	r1, [r0, #20]	@ movhi
1222:./Libraries/STM32F10x_StdPeriph_Driver/src/stm32f10x_i2c.c **** }
 1566              		.loc 1 1222 1 view .LVU440
 1567 000a 7047     		bx	lr
 1568              		.cfi_endproc
 1569              	.LFE59:
 1571              		.section	.text.I2C_GetITStatus,"ax",%progbits
 1572              		.align	1
 1573              		.global	I2C_GetITStatus
 1574              		.syntax unified
 1575              		.thumb
 1576              		.thumb_func
 1577              		.fpu softvfp
 1579              	I2C_GetITStatus:
 1580              	.LVL103:
 1581              	.LFB60:
1223:./Libraries/STM32F10x_StdPeriph_Driver/src/stm32f10x_i2c.c **** 
1224:./Libraries/STM32F10x_StdPeriph_Driver/src/stm32f10x_i2c.c **** /**
1225:./Libraries/STM32F10x_StdPeriph_Driver/src/stm32f10x_i2c.c ****   * @brief  Checks whether the specified I2C interrupt has occurred or not.
1226:./Libraries/STM32F10x_StdPeriph_Driver/src/stm32f10x_i2c.c ****   * @param  I2Cx: where x can be 1 or 2 to select the I2C peripheral.
1227:./Libraries/STM32F10x_StdPeriph_Driver/src/stm32f10x_i2c.c ****   * @param  I2C_IT: specifies the interrupt source to check. 
1228:./Libraries/STM32F10x_StdPeriph_Driver/src/stm32f10x_i2c.c ****   *   This parameter can be one of the following values:
1229:./Libraries/STM32F10x_StdPeriph_Driver/src/stm32f10x_i2c.c ****   *     @arg I2C_IT_SMBALERT: SMBus Alert flag
ARM GAS  /tmp/cctrGC4Q.s 			page 50


1230:./Libraries/STM32F10x_StdPeriph_Driver/src/stm32f10x_i2c.c ****   *     @arg I2C_IT_TIMEOUT: Timeout or Tlow error flag
1231:./Libraries/STM32F10x_StdPeriph_Driver/src/stm32f10x_i2c.c ****   *     @arg I2C_IT_PECERR: PEC error in reception flag
1232:./Libraries/STM32F10x_StdPeriph_Driver/src/stm32f10x_i2c.c ****   *     @arg I2C_IT_OVR: Overrun/Underrun flag (Slave mode)
1233:./Libraries/STM32F10x_StdPeriph_Driver/src/stm32f10x_i2c.c ****   *     @arg I2C_IT_AF: Acknowledge failure flag
1234:./Libraries/STM32F10x_StdPeriph_Driver/src/stm32f10x_i2c.c ****   *     @arg I2C_IT_ARLO: Arbitration lost flag (Master mode)
1235:./Libraries/STM32F10x_StdPeriph_Driver/src/stm32f10x_i2c.c ****   *     @arg I2C_IT_BERR: Bus error flag
1236:./Libraries/STM32F10x_StdPeriph_Driver/src/stm32f10x_i2c.c ****   *     @arg I2C_IT_TXE: Data register empty flag (Transmitter)
1237:./Libraries/STM32F10x_StdPeriph_Driver/src/stm32f10x_i2c.c ****   *     @arg I2C_IT_RXNE: Data register not empty (Receiver) flag
1238:./Libraries/STM32F10x_StdPeriph_Driver/src/stm32f10x_i2c.c ****   *     @arg I2C_IT_STOPF: Stop detection flag (Slave mode)
1239:./Libraries/STM32F10x_StdPeriph_Driver/src/stm32f10x_i2c.c ****   *     @arg I2C_IT_ADD10: 10-bit header sent flag (Master mode)
1240:./Libraries/STM32F10x_StdPeriph_Driver/src/stm32f10x_i2c.c ****   *     @arg I2C_IT_BTF: Byte transfer finished flag
1241:./Libraries/STM32F10x_StdPeriph_Driver/src/stm32f10x_i2c.c ****   *     @arg I2C_IT_ADDR: Address sent flag (Master mode) "ADSL"
1242:./Libraries/STM32F10x_StdPeriph_Driver/src/stm32f10x_i2c.c ****   *                       Address matched flag (Slave mode)"ENDAD"
1243:./Libraries/STM32F10x_StdPeriph_Driver/src/stm32f10x_i2c.c ****   *     @arg I2C_IT_SB: Start bit flag (Master mode)
1244:./Libraries/STM32F10x_StdPeriph_Driver/src/stm32f10x_i2c.c ****   * @retval The new state of I2C_IT (SET or RESET).
1245:./Libraries/STM32F10x_StdPeriph_Driver/src/stm32f10x_i2c.c ****   */
1246:./Libraries/STM32F10x_StdPeriph_Driver/src/stm32f10x_i2c.c **** ITStatus I2C_GetITStatus(I2C_TypeDef* I2Cx, uint32_t I2C_IT)
1247:./Libraries/STM32F10x_StdPeriph_Driver/src/stm32f10x_i2c.c **** {
 1582              		.loc 1 1247 1 is_stmt 1 view -0
 1583              		.cfi_startproc
 1584              		@ args = 0, pretend = 0, frame = 0
 1585              		@ frame_needed = 0, uses_anonymous_args = 0
 1586              		@ link register save eliminated.
1248:./Libraries/STM32F10x_StdPeriph_Driver/src/stm32f10x_i2c.c ****   ITStatus bitstatus = RESET;
 1587              		.loc 1 1248 3 view .LVU442
1249:./Libraries/STM32F10x_StdPeriph_Driver/src/stm32f10x_i2c.c ****   uint32_t enablestatus = 0;
 1588              		.loc 1 1249 3 view .LVU443
1250:./Libraries/STM32F10x_StdPeriph_Driver/src/stm32f10x_i2c.c **** 
1251:./Libraries/STM32F10x_StdPeriph_Driver/src/stm32f10x_i2c.c ****   /* Check the parameters */
1252:./Libraries/STM32F10x_StdPeriph_Driver/src/stm32f10x_i2c.c ****   assert_param(IS_I2C_ALL_PERIPH(I2Cx));
 1589              		.loc 1 1252 3 view .LVU444
1253:./Libraries/STM32F10x_StdPeriph_Driver/src/stm32f10x_i2c.c ****   assert_param(IS_I2C_GET_IT(I2C_IT));
 1590              		.loc 1 1253 3 view .LVU445
1254:./Libraries/STM32F10x_StdPeriph_Driver/src/stm32f10x_i2c.c **** 
1255:./Libraries/STM32F10x_StdPeriph_Driver/src/stm32f10x_i2c.c ****   /* Check if the interrupt source is enabled or not */
1256:./Libraries/STM32F10x_StdPeriph_Driver/src/stm32f10x_i2c.c ****   enablestatus = (uint32_t)(((I2C_IT & ITEN_Mask) >> 16) & (I2Cx->CR2)) ;
 1591              		.loc 1 1256 3 view .LVU446
 1592              		.loc 1 1256 65 is_stmt 0 view .LVU447
 1593 0000 8388     		ldrh	r3, [r0, #4]
 1594              		.loc 1 1256 18 view .LVU448
 1595 0002 03EA1143 		and	r3, r3, r1, lsr #16
 1596              		.loc 1 1256 16 view .LVU449
 1597 0006 03F4E063 		and	r3, r3, #1792
 1598              	.LVL104:
1257:./Libraries/STM32F10x_StdPeriph_Driver/src/stm32f10x_i2c.c ****   
1258:./Libraries/STM32F10x_StdPeriph_Driver/src/stm32f10x_i2c.c ****   /* Get bit[23:0] of the flag */
1259:./Libraries/STM32F10x_StdPeriph_Driver/src/stm32f10x_i2c.c ****   I2C_IT &= FLAG_Mask;
 1599              		.loc 1 1259 3 is_stmt 1 view .LVU450
1260:./Libraries/STM32F10x_StdPeriph_Driver/src/stm32f10x_i2c.c **** 
1261:./Libraries/STM32F10x_StdPeriph_Driver/src/stm32f10x_i2c.c ****   /* Check the status of the specified I2C flag */
1262:./Libraries/STM32F10x_StdPeriph_Driver/src/stm32f10x_i2c.c ****   if (((I2Cx->SR1 & I2C_IT) != (uint32_t)RESET) && enablestatus)
 1600              		.loc 1 1262 3 view .LVU451
 1601              		.loc 1 1262 13 is_stmt 0 view .LVU452
 1602 000a 828A     		ldrh	r2, [r0, #20]
 1603 000c 92B2     		uxth	r2, r2
 1604              		.loc 1 1262 6 view .LVU453
 1605 000e 1142     		tst	r1, r2
ARM GAS  /tmp/cctrGC4Q.s 			page 51


 1606 0010 02D0     		beq	.L101
 1607              		.loc 1 1262 49 discriminator 1 view .LVU454
 1608 0012 1BB9     		cbnz	r3, .L102
1263:./Libraries/STM32F10x_StdPeriph_Driver/src/stm32f10x_i2c.c ****   {
1264:./Libraries/STM32F10x_StdPeriph_Driver/src/stm32f10x_i2c.c ****     /* I2C_IT is set */
1265:./Libraries/STM32F10x_StdPeriph_Driver/src/stm32f10x_i2c.c ****     bitstatus = SET;
1266:./Libraries/STM32F10x_StdPeriph_Driver/src/stm32f10x_i2c.c ****   }
1267:./Libraries/STM32F10x_StdPeriph_Driver/src/stm32f10x_i2c.c ****   else
1268:./Libraries/STM32F10x_StdPeriph_Driver/src/stm32f10x_i2c.c ****   {
1269:./Libraries/STM32F10x_StdPeriph_Driver/src/stm32f10x_i2c.c ****     /* I2C_IT is reset */
1270:./Libraries/STM32F10x_StdPeriph_Driver/src/stm32f10x_i2c.c ****     bitstatus = RESET;
 1609              		.loc 1 1270 15 view .LVU455
 1610 0014 0020     		movs	r0, #0
 1611              	.LVL105:
 1612              		.loc 1 1270 15 view .LVU456
 1613 0016 7047     		bx	lr
 1614              	.LVL106:
 1615              	.L101:
 1616              		.loc 1 1270 15 view .LVU457
 1617 0018 0020     		movs	r0, #0
 1618              	.LVL107:
 1619              		.loc 1 1270 15 view .LVU458
 1620 001a 7047     		bx	lr
 1621              	.LVL108:
 1622              	.L102:
1265:./Libraries/STM32F10x_StdPeriph_Driver/src/stm32f10x_i2c.c ****   }
 1623              		.loc 1 1265 15 view .LVU459
 1624 001c 0120     		movs	r0, #1
 1625              	.LVL109:
1271:./Libraries/STM32F10x_StdPeriph_Driver/src/stm32f10x_i2c.c ****   }
1272:./Libraries/STM32F10x_StdPeriph_Driver/src/stm32f10x_i2c.c ****   /* Return the I2C_IT status */
1273:./Libraries/STM32F10x_StdPeriph_Driver/src/stm32f10x_i2c.c ****   return  bitstatus;
 1626              		.loc 1 1273 3 is_stmt 1 view .LVU460
1274:./Libraries/STM32F10x_StdPeriph_Driver/src/stm32f10x_i2c.c **** }
 1627              		.loc 1 1274 1 is_stmt 0 view .LVU461
 1628 001e 7047     		bx	lr
 1629              		.cfi_endproc
 1630              	.LFE60:
 1632              		.section	.text.I2C_ClearITPendingBit,"ax",%progbits
 1633              		.align	1
 1634              		.global	I2C_ClearITPendingBit
 1635              		.syntax unified
 1636              		.thumb
 1637              		.thumb_func
 1638              		.fpu softvfp
 1640              	I2C_ClearITPendingBit:
 1641              	.LVL110:
 1642              	.LFB61:
1275:./Libraries/STM32F10x_StdPeriph_Driver/src/stm32f10x_i2c.c **** 
1276:./Libraries/STM32F10x_StdPeriph_Driver/src/stm32f10x_i2c.c **** /**
1277:./Libraries/STM32F10x_StdPeriph_Driver/src/stm32f10x_i2c.c ****   * @brief  Clears the I2Cxs interrupt pending bits.
1278:./Libraries/STM32F10x_StdPeriph_Driver/src/stm32f10x_i2c.c ****   * @param  I2Cx: where x can be 1 or 2 to select the I2C peripheral.
1279:./Libraries/STM32F10x_StdPeriph_Driver/src/stm32f10x_i2c.c ****   * @param  I2C_IT: specifies the interrupt pending bit to clear. 
1280:./Libraries/STM32F10x_StdPeriph_Driver/src/stm32f10x_i2c.c ****   *   This parameter can be any combination of the following values:
1281:./Libraries/STM32F10x_StdPeriph_Driver/src/stm32f10x_i2c.c ****   *     @arg I2C_IT_SMBALERT: SMBus Alert interrupt
1282:./Libraries/STM32F10x_StdPeriph_Driver/src/stm32f10x_i2c.c ****   *     @arg I2C_IT_TIMEOUT: Timeout or Tlow error interrupt
1283:./Libraries/STM32F10x_StdPeriph_Driver/src/stm32f10x_i2c.c ****   *     @arg I2C_IT_PECERR: PEC error in reception  interrupt
ARM GAS  /tmp/cctrGC4Q.s 			page 52


1284:./Libraries/STM32F10x_StdPeriph_Driver/src/stm32f10x_i2c.c ****   *     @arg I2C_IT_OVR: Overrun/Underrun interrupt (Slave mode)
1285:./Libraries/STM32F10x_StdPeriph_Driver/src/stm32f10x_i2c.c ****   *     @arg I2C_IT_AF: Acknowledge failure interrupt
1286:./Libraries/STM32F10x_StdPeriph_Driver/src/stm32f10x_i2c.c ****   *     @arg I2C_IT_ARLO: Arbitration lost interrupt (Master mode)
1287:./Libraries/STM32F10x_StdPeriph_Driver/src/stm32f10x_i2c.c ****   *     @arg I2C_IT_BERR: Bus error interrupt
1288:./Libraries/STM32F10x_StdPeriph_Driver/src/stm32f10x_i2c.c ****   *   
1289:./Libraries/STM32F10x_StdPeriph_Driver/src/stm32f10x_i2c.c ****   * @note
1290:./Libraries/STM32F10x_StdPeriph_Driver/src/stm32f10x_i2c.c ****   *   - STOPF (STOP detection) is cleared by software sequence: a read operation 
1291:./Libraries/STM32F10x_StdPeriph_Driver/src/stm32f10x_i2c.c ****   *     to I2C_SR1 register (I2C_GetITStatus()) followed by a write operation to 
1292:./Libraries/STM32F10x_StdPeriph_Driver/src/stm32f10x_i2c.c ****   *     I2C_CR1 register (I2C_Cmd() to re-enable the I2C peripheral).
1293:./Libraries/STM32F10x_StdPeriph_Driver/src/stm32f10x_i2c.c ****   *   - ADD10 (10-bit header sent) is cleared by software sequence: a read 
1294:./Libraries/STM32F10x_StdPeriph_Driver/src/stm32f10x_i2c.c ****   *     operation to I2C_SR1 (I2C_GetITStatus()) followed by writing the second 
1295:./Libraries/STM32F10x_StdPeriph_Driver/src/stm32f10x_i2c.c ****   *     byte of the address in I2C_DR register.
1296:./Libraries/STM32F10x_StdPeriph_Driver/src/stm32f10x_i2c.c ****   *   - BTF (Byte Transfer Finished) is cleared by software sequence: a read 
1297:./Libraries/STM32F10x_StdPeriph_Driver/src/stm32f10x_i2c.c ****   *     operation to I2C_SR1 register (I2C_GetITStatus()) followed by a 
1298:./Libraries/STM32F10x_StdPeriph_Driver/src/stm32f10x_i2c.c ****   *     read/write to I2C_DR register (I2C_SendData()).
1299:./Libraries/STM32F10x_StdPeriph_Driver/src/stm32f10x_i2c.c ****   *   - ADDR (Address sent) is cleared by software sequence: a read operation to 
1300:./Libraries/STM32F10x_StdPeriph_Driver/src/stm32f10x_i2c.c ****   *     I2C_SR1 register (I2C_GetITStatus()) followed by a read operation to 
1301:./Libraries/STM32F10x_StdPeriph_Driver/src/stm32f10x_i2c.c ****   *     I2C_SR2 register ((void)(I2Cx->SR2)).
1302:./Libraries/STM32F10x_StdPeriph_Driver/src/stm32f10x_i2c.c ****   *   - SB (Start Bit) is cleared by software sequence: a read operation to 
1303:./Libraries/STM32F10x_StdPeriph_Driver/src/stm32f10x_i2c.c ****   *     I2C_SR1 register (I2C_GetITStatus()) followed by a write operation to 
1304:./Libraries/STM32F10x_StdPeriph_Driver/src/stm32f10x_i2c.c ****   *     I2C_DR register (I2C_SendData()).
1305:./Libraries/STM32F10x_StdPeriph_Driver/src/stm32f10x_i2c.c ****   * @retval None
1306:./Libraries/STM32F10x_StdPeriph_Driver/src/stm32f10x_i2c.c ****   */
1307:./Libraries/STM32F10x_StdPeriph_Driver/src/stm32f10x_i2c.c **** void I2C_ClearITPendingBit(I2C_TypeDef* I2Cx, uint32_t I2C_IT)
1308:./Libraries/STM32F10x_StdPeriph_Driver/src/stm32f10x_i2c.c **** {
 1643              		.loc 1 1308 1 is_stmt 1 view -0
 1644              		.cfi_startproc
 1645              		@ args = 0, pretend = 0, frame = 0
 1646              		@ frame_needed = 0, uses_anonymous_args = 0
 1647              		@ link register save eliminated.
1309:./Libraries/STM32F10x_StdPeriph_Driver/src/stm32f10x_i2c.c ****   uint32_t flagpos = 0;
 1648              		.loc 1 1309 3 view .LVU463
1310:./Libraries/STM32F10x_StdPeriph_Driver/src/stm32f10x_i2c.c ****   /* Check the parameters */
1311:./Libraries/STM32F10x_StdPeriph_Driver/src/stm32f10x_i2c.c ****   assert_param(IS_I2C_ALL_PERIPH(I2Cx));
 1649              		.loc 1 1311 3 view .LVU464
1312:./Libraries/STM32F10x_StdPeriph_Driver/src/stm32f10x_i2c.c ****   assert_param(IS_I2C_CLEAR_IT(I2C_IT));
 1650              		.loc 1 1312 3 view .LVU465
1313:./Libraries/STM32F10x_StdPeriph_Driver/src/stm32f10x_i2c.c ****   /* Get the I2C flag position */
1314:./Libraries/STM32F10x_StdPeriph_Driver/src/stm32f10x_i2c.c ****   flagpos = I2C_IT & FLAG_Mask;
 1651              		.loc 1 1314 3 view .LVU466
 1652              		.loc 1 1314 11 is_stmt 0 view .LVU467
 1653 0000 21F07F41 		bic	r1, r1, #-16777216
 1654              	.LVL111:
1315:./Libraries/STM32F10x_StdPeriph_Driver/src/stm32f10x_i2c.c ****   /* Clear the selected I2C flag */
1316:./Libraries/STM32F10x_StdPeriph_Driver/src/stm32f10x_i2c.c ****   I2Cx->SR1 = (uint16_t)~flagpos;
 1655              		.loc 1 1316 3 is_stmt 1 view .LVU468
 1656              		.loc 1 1316 15 is_stmt 0 view .LVU469
 1657 0004 C943     		mvns	r1, r1
 1658              	.LVL112:
 1659              		.loc 1 1316 15 view .LVU470
 1660 0006 89B2     		uxth	r1, r1
 1661              	.LVL113:
 1662              		.loc 1 1316 13 view .LVU471
 1663 0008 8182     		strh	r1, [r0, #20]	@ movhi
1317:./Libraries/STM32F10x_StdPeriph_Driver/src/stm32f10x_i2c.c **** }
 1664              		.loc 1 1317 1 view .LVU472
 1665 000a 7047     		bx	lr
ARM GAS  /tmp/cctrGC4Q.s 			page 53


 1666              		.cfi_endproc
 1667              	.LFE61:
 1669              		.text
 1670              	.Letext0:
 1671              		.file 2 "/home/hao/Documents/gcc-arm-none-eabi/arm-none-eabi/include/machine/_default_types.h"
 1672              		.file 3 "/home/hao/Documents/gcc-arm-none-eabi/arm-none-eabi/include/sys/_stdint.h"
 1673              		.file 4 "./Libraries/CMSIS/stm32f10x.h"
 1674              		.file 5 "./Libraries/STM32F10x_StdPeriph_Driver/inc/stm32f10x_rcc.h"
 1675              		.file 6 "./Libraries/STM32F10x_StdPeriph_Driver/inc/stm32f10x_i2c.h"
ARM GAS  /tmp/cctrGC4Q.s 			page 54

