ARM GAS  /tmp/cci4pFLa.s 			page 1


   1              		.cpu cortex-m3
   2              		.eabi_attribute 20, 1
   3              		.eabi_attribute 21, 1
   4              		.eabi_attribute 23, 3
   5              		.eabi_attribute 24, 1
   6              		.eabi_attribute 25, 1
   7              		.eabi_attribute 26, 1
   8              		.eabi_attribute 30, 1
   9              		.eabi_attribute 34, 1
  10              		.eabi_attribute 18, 4
  11              		.file	"stm32f10x_adc.c"
  12              		.text
  13              	.Ltext0:
  14              		.cfi_sections	.debug_frame
  15              		.section	.text.ADC_DeInit,"ax",%progbits
  16              		.align	1
  17              		.global	ADC_DeInit
  18              		.arch armv7-m
  19              		.syntax unified
  20              		.thumb
  21              		.thumb_func
  22              		.fpu softvfp
  24              	ADC_DeInit:
  25              	.LVL0:
  26              	.LFB29:
  27              		.file 1 "./Libraries/STM32F10x_StdPeriph_Driver/src/stm32f10x_adc.c"
   1:./Libraries/STM32F10x_StdPeriph_Driver/src/stm32f10x_adc.c **** /**
   2:./Libraries/STM32F10x_StdPeriph_Driver/src/stm32f10x_adc.c ****   ******************************************************************************
   3:./Libraries/STM32F10x_StdPeriph_Driver/src/stm32f10x_adc.c ****   * @file    stm32f10x_adc.c
   4:./Libraries/STM32F10x_StdPeriph_Driver/src/stm32f10x_adc.c ****   * @author  MCD Application Team
   5:./Libraries/STM32F10x_StdPeriph_Driver/src/stm32f10x_adc.c ****   * @version V3.5.0
   6:./Libraries/STM32F10x_StdPeriph_Driver/src/stm32f10x_adc.c ****   * @date    11-March-2011
   7:./Libraries/STM32F10x_StdPeriph_Driver/src/stm32f10x_adc.c ****   * @brief   This file provides all the ADC firmware functions.
   8:./Libraries/STM32F10x_StdPeriph_Driver/src/stm32f10x_adc.c ****   ******************************************************************************
   9:./Libraries/STM32F10x_StdPeriph_Driver/src/stm32f10x_adc.c ****   * @attention
  10:./Libraries/STM32F10x_StdPeriph_Driver/src/stm32f10x_adc.c ****   *
  11:./Libraries/STM32F10x_StdPeriph_Driver/src/stm32f10x_adc.c ****   * THE PRESENT FIRMWARE WHICH IS FOR GUIDANCE ONLY AIMS AT PROVIDING CUSTOMERS
  12:./Libraries/STM32F10x_StdPeriph_Driver/src/stm32f10x_adc.c ****   * WITH CODING INFORMATION REGARDING THEIR PRODUCTS IN ORDER FOR THEM TO SAVE
  13:./Libraries/STM32F10x_StdPeriph_Driver/src/stm32f10x_adc.c ****   * TIME. AS A RESULT, STMICROELECTRONICS SHALL NOT BE HELD LIABLE FOR ANY
  14:./Libraries/STM32F10x_StdPeriph_Driver/src/stm32f10x_adc.c ****   * DIRECT, INDIRECT OR CONSEQUENTIAL DAMAGES WITH RESPECT TO ANY CLAIMS ARISING
  15:./Libraries/STM32F10x_StdPeriph_Driver/src/stm32f10x_adc.c ****   * FROM THE CONTENT OF SUCH FIRMWARE AND/OR THE USE MADE BY CUSTOMERS OF THE
  16:./Libraries/STM32F10x_StdPeriph_Driver/src/stm32f10x_adc.c ****   * CODING INFORMATION CONTAINED HEREIN IN CONNECTION WITH THEIR PRODUCTS.
  17:./Libraries/STM32F10x_StdPeriph_Driver/src/stm32f10x_adc.c ****   *
  18:./Libraries/STM32F10x_StdPeriph_Driver/src/stm32f10x_adc.c ****   * <h2><center>&copy; COPYRIGHT 2011 STMicroelectronics</center></h2>
  19:./Libraries/STM32F10x_StdPeriph_Driver/src/stm32f10x_adc.c ****   ******************************************************************************
  20:./Libraries/STM32F10x_StdPeriph_Driver/src/stm32f10x_adc.c ****   */
  21:./Libraries/STM32F10x_StdPeriph_Driver/src/stm32f10x_adc.c **** 
  22:./Libraries/STM32F10x_StdPeriph_Driver/src/stm32f10x_adc.c **** /* Includes ------------------------------------------------------------------*/
  23:./Libraries/STM32F10x_StdPeriph_Driver/src/stm32f10x_adc.c **** #include "stm32f10x_adc.h"
  24:./Libraries/STM32F10x_StdPeriph_Driver/src/stm32f10x_adc.c **** #include "stm32f10x_rcc.h"
  25:./Libraries/STM32F10x_StdPeriph_Driver/src/stm32f10x_adc.c **** 
  26:./Libraries/STM32F10x_StdPeriph_Driver/src/stm32f10x_adc.c **** /** @addtogroup STM32F10x_StdPeriph_Driver
  27:./Libraries/STM32F10x_StdPeriph_Driver/src/stm32f10x_adc.c ****   * @{
  28:./Libraries/STM32F10x_StdPeriph_Driver/src/stm32f10x_adc.c ****   */
  29:./Libraries/STM32F10x_StdPeriph_Driver/src/stm32f10x_adc.c **** 
  30:./Libraries/STM32F10x_StdPeriph_Driver/src/stm32f10x_adc.c **** /** @defgroup ADC 
  31:./Libraries/STM32F10x_StdPeriph_Driver/src/stm32f10x_adc.c ****   * @brief ADC driver modules
ARM GAS  /tmp/cci4pFLa.s 			page 2


  32:./Libraries/STM32F10x_StdPeriph_Driver/src/stm32f10x_adc.c ****   * @{
  33:./Libraries/STM32F10x_StdPeriph_Driver/src/stm32f10x_adc.c ****   */
  34:./Libraries/STM32F10x_StdPeriph_Driver/src/stm32f10x_adc.c **** 
  35:./Libraries/STM32F10x_StdPeriph_Driver/src/stm32f10x_adc.c **** /** @defgroup ADC_Private_TypesDefinitions
  36:./Libraries/STM32F10x_StdPeriph_Driver/src/stm32f10x_adc.c ****   * @{
  37:./Libraries/STM32F10x_StdPeriph_Driver/src/stm32f10x_adc.c ****   */
  38:./Libraries/STM32F10x_StdPeriph_Driver/src/stm32f10x_adc.c **** 
  39:./Libraries/STM32F10x_StdPeriph_Driver/src/stm32f10x_adc.c **** /**
  40:./Libraries/STM32F10x_StdPeriph_Driver/src/stm32f10x_adc.c ****   * @}
  41:./Libraries/STM32F10x_StdPeriph_Driver/src/stm32f10x_adc.c ****   */
  42:./Libraries/STM32F10x_StdPeriph_Driver/src/stm32f10x_adc.c **** 
  43:./Libraries/STM32F10x_StdPeriph_Driver/src/stm32f10x_adc.c **** /** @defgroup ADC_Private_Defines
  44:./Libraries/STM32F10x_StdPeriph_Driver/src/stm32f10x_adc.c ****   * @{
  45:./Libraries/STM32F10x_StdPeriph_Driver/src/stm32f10x_adc.c ****   */
  46:./Libraries/STM32F10x_StdPeriph_Driver/src/stm32f10x_adc.c **** 
  47:./Libraries/STM32F10x_StdPeriph_Driver/src/stm32f10x_adc.c **** /* ADC DISCNUM mask */
  48:./Libraries/STM32F10x_StdPeriph_Driver/src/stm32f10x_adc.c **** #define CR1_DISCNUM_Reset           ((uint32_t)0xFFFF1FFF)
  49:./Libraries/STM32F10x_StdPeriph_Driver/src/stm32f10x_adc.c **** 
  50:./Libraries/STM32F10x_StdPeriph_Driver/src/stm32f10x_adc.c **** /* ADC DISCEN mask */
  51:./Libraries/STM32F10x_StdPeriph_Driver/src/stm32f10x_adc.c **** #define CR1_DISCEN_Set              ((uint32_t)0x00000800)
  52:./Libraries/STM32F10x_StdPeriph_Driver/src/stm32f10x_adc.c **** #define CR1_DISCEN_Reset            ((uint32_t)0xFFFFF7FF)
  53:./Libraries/STM32F10x_StdPeriph_Driver/src/stm32f10x_adc.c **** 
  54:./Libraries/STM32F10x_StdPeriph_Driver/src/stm32f10x_adc.c **** /* ADC JAUTO mask */
  55:./Libraries/STM32F10x_StdPeriph_Driver/src/stm32f10x_adc.c **** #define CR1_JAUTO_Set               ((uint32_t)0x00000400)
  56:./Libraries/STM32F10x_StdPeriph_Driver/src/stm32f10x_adc.c **** #define CR1_JAUTO_Reset             ((uint32_t)0xFFFFFBFF)
  57:./Libraries/STM32F10x_StdPeriph_Driver/src/stm32f10x_adc.c **** 
  58:./Libraries/STM32F10x_StdPeriph_Driver/src/stm32f10x_adc.c **** /* ADC JDISCEN mask */
  59:./Libraries/STM32F10x_StdPeriph_Driver/src/stm32f10x_adc.c **** #define CR1_JDISCEN_Set             ((uint32_t)0x00001000)
  60:./Libraries/STM32F10x_StdPeriph_Driver/src/stm32f10x_adc.c **** #define CR1_JDISCEN_Reset           ((uint32_t)0xFFFFEFFF)
  61:./Libraries/STM32F10x_StdPeriph_Driver/src/stm32f10x_adc.c **** 
  62:./Libraries/STM32F10x_StdPeriph_Driver/src/stm32f10x_adc.c **** /* ADC AWDCH mask */
  63:./Libraries/STM32F10x_StdPeriph_Driver/src/stm32f10x_adc.c **** #define CR1_AWDCH_Reset             ((uint32_t)0xFFFFFFE0)
  64:./Libraries/STM32F10x_StdPeriph_Driver/src/stm32f10x_adc.c **** 
  65:./Libraries/STM32F10x_StdPeriph_Driver/src/stm32f10x_adc.c **** /* ADC Analog watchdog enable mode mask */
  66:./Libraries/STM32F10x_StdPeriph_Driver/src/stm32f10x_adc.c **** #define CR1_AWDMode_Reset           ((uint32_t)0xFF3FFDFF)
  67:./Libraries/STM32F10x_StdPeriph_Driver/src/stm32f10x_adc.c **** 
  68:./Libraries/STM32F10x_StdPeriph_Driver/src/stm32f10x_adc.c **** /* CR1 register Mask */
  69:./Libraries/STM32F10x_StdPeriph_Driver/src/stm32f10x_adc.c **** #define CR1_CLEAR_Mask              ((uint32_t)0xFFF0FEFF)
  70:./Libraries/STM32F10x_StdPeriph_Driver/src/stm32f10x_adc.c **** 
  71:./Libraries/STM32F10x_StdPeriph_Driver/src/stm32f10x_adc.c **** /* ADC ADON mask */
  72:./Libraries/STM32F10x_StdPeriph_Driver/src/stm32f10x_adc.c **** #define CR2_ADON_Set                ((uint32_t)0x00000001)
  73:./Libraries/STM32F10x_StdPeriph_Driver/src/stm32f10x_adc.c **** #define CR2_ADON_Reset              ((uint32_t)0xFFFFFFFE)
  74:./Libraries/STM32F10x_StdPeriph_Driver/src/stm32f10x_adc.c **** 
  75:./Libraries/STM32F10x_StdPeriph_Driver/src/stm32f10x_adc.c **** /* ADC DMA mask */
  76:./Libraries/STM32F10x_StdPeriph_Driver/src/stm32f10x_adc.c **** #define CR2_DMA_Set                 ((uint32_t)0x00000100)
  77:./Libraries/STM32F10x_StdPeriph_Driver/src/stm32f10x_adc.c **** #define CR2_DMA_Reset               ((uint32_t)0xFFFFFEFF)
  78:./Libraries/STM32F10x_StdPeriph_Driver/src/stm32f10x_adc.c **** 
  79:./Libraries/STM32F10x_StdPeriph_Driver/src/stm32f10x_adc.c **** /* ADC RSTCAL mask */
  80:./Libraries/STM32F10x_StdPeriph_Driver/src/stm32f10x_adc.c **** #define CR2_RSTCAL_Set              ((uint32_t)0x00000008)
  81:./Libraries/STM32F10x_StdPeriph_Driver/src/stm32f10x_adc.c **** 
  82:./Libraries/STM32F10x_StdPeriph_Driver/src/stm32f10x_adc.c **** /* ADC CAL mask */
  83:./Libraries/STM32F10x_StdPeriph_Driver/src/stm32f10x_adc.c **** #define CR2_CAL_Set                 ((uint32_t)0x00000004)
  84:./Libraries/STM32F10x_StdPeriph_Driver/src/stm32f10x_adc.c **** 
  85:./Libraries/STM32F10x_StdPeriph_Driver/src/stm32f10x_adc.c **** /* ADC SWSTART mask */
  86:./Libraries/STM32F10x_StdPeriph_Driver/src/stm32f10x_adc.c **** #define CR2_SWSTART_Set             ((uint32_t)0x00400000)
  87:./Libraries/STM32F10x_StdPeriph_Driver/src/stm32f10x_adc.c **** 
  88:./Libraries/STM32F10x_StdPeriph_Driver/src/stm32f10x_adc.c **** /* ADC EXTTRIG mask */
ARM GAS  /tmp/cci4pFLa.s 			page 3


  89:./Libraries/STM32F10x_StdPeriph_Driver/src/stm32f10x_adc.c **** #define CR2_EXTTRIG_Set             ((uint32_t)0x00100000)
  90:./Libraries/STM32F10x_StdPeriph_Driver/src/stm32f10x_adc.c **** #define CR2_EXTTRIG_Reset           ((uint32_t)0xFFEFFFFF)
  91:./Libraries/STM32F10x_StdPeriph_Driver/src/stm32f10x_adc.c **** 
  92:./Libraries/STM32F10x_StdPeriph_Driver/src/stm32f10x_adc.c **** /* ADC Software start mask */
  93:./Libraries/STM32F10x_StdPeriph_Driver/src/stm32f10x_adc.c **** #define CR2_EXTTRIG_SWSTART_Set     ((uint32_t)0x00500000)
  94:./Libraries/STM32F10x_StdPeriph_Driver/src/stm32f10x_adc.c **** #define CR2_EXTTRIG_SWSTART_Reset   ((uint32_t)0xFFAFFFFF)
  95:./Libraries/STM32F10x_StdPeriph_Driver/src/stm32f10x_adc.c **** 
  96:./Libraries/STM32F10x_StdPeriph_Driver/src/stm32f10x_adc.c **** /* ADC JEXTSEL mask */
  97:./Libraries/STM32F10x_StdPeriph_Driver/src/stm32f10x_adc.c **** #define CR2_JEXTSEL_Reset           ((uint32_t)0xFFFF8FFF)
  98:./Libraries/STM32F10x_StdPeriph_Driver/src/stm32f10x_adc.c **** 
  99:./Libraries/STM32F10x_StdPeriph_Driver/src/stm32f10x_adc.c **** /* ADC JEXTTRIG mask */
 100:./Libraries/STM32F10x_StdPeriph_Driver/src/stm32f10x_adc.c **** #define CR2_JEXTTRIG_Set            ((uint32_t)0x00008000)
 101:./Libraries/STM32F10x_StdPeriph_Driver/src/stm32f10x_adc.c **** #define CR2_JEXTTRIG_Reset          ((uint32_t)0xFFFF7FFF)
 102:./Libraries/STM32F10x_StdPeriph_Driver/src/stm32f10x_adc.c **** 
 103:./Libraries/STM32F10x_StdPeriph_Driver/src/stm32f10x_adc.c **** /* ADC JSWSTART mask */
 104:./Libraries/STM32F10x_StdPeriph_Driver/src/stm32f10x_adc.c **** #define CR2_JSWSTART_Set            ((uint32_t)0x00200000)
 105:./Libraries/STM32F10x_StdPeriph_Driver/src/stm32f10x_adc.c **** 
 106:./Libraries/STM32F10x_StdPeriph_Driver/src/stm32f10x_adc.c **** /* ADC injected software start mask */
 107:./Libraries/STM32F10x_StdPeriph_Driver/src/stm32f10x_adc.c **** #define CR2_JEXTTRIG_JSWSTART_Set   ((uint32_t)0x00208000)
 108:./Libraries/STM32F10x_StdPeriph_Driver/src/stm32f10x_adc.c **** #define CR2_JEXTTRIG_JSWSTART_Reset ((uint32_t)0xFFDF7FFF)
 109:./Libraries/STM32F10x_StdPeriph_Driver/src/stm32f10x_adc.c **** 
 110:./Libraries/STM32F10x_StdPeriph_Driver/src/stm32f10x_adc.c **** /* ADC TSPD mask */
 111:./Libraries/STM32F10x_StdPeriph_Driver/src/stm32f10x_adc.c **** #define CR2_TSVREFE_Set             ((uint32_t)0x00800000)
 112:./Libraries/STM32F10x_StdPeriph_Driver/src/stm32f10x_adc.c **** #define CR2_TSVREFE_Reset           ((uint32_t)0xFF7FFFFF)
 113:./Libraries/STM32F10x_StdPeriph_Driver/src/stm32f10x_adc.c **** 
 114:./Libraries/STM32F10x_StdPeriph_Driver/src/stm32f10x_adc.c **** /* CR2 register Mask */
 115:./Libraries/STM32F10x_StdPeriph_Driver/src/stm32f10x_adc.c **** #define CR2_CLEAR_Mask              ((uint32_t)0xFFF1F7FD)
 116:./Libraries/STM32F10x_StdPeriph_Driver/src/stm32f10x_adc.c **** 
 117:./Libraries/STM32F10x_StdPeriph_Driver/src/stm32f10x_adc.c **** /* ADC SQx mask */
 118:./Libraries/STM32F10x_StdPeriph_Driver/src/stm32f10x_adc.c **** #define SQR3_SQ_Set                 ((uint32_t)0x0000001F)
 119:./Libraries/STM32F10x_StdPeriph_Driver/src/stm32f10x_adc.c **** #define SQR2_SQ_Set                 ((uint32_t)0x0000001F)
 120:./Libraries/STM32F10x_StdPeriph_Driver/src/stm32f10x_adc.c **** #define SQR1_SQ_Set                 ((uint32_t)0x0000001F)
 121:./Libraries/STM32F10x_StdPeriph_Driver/src/stm32f10x_adc.c **** 
 122:./Libraries/STM32F10x_StdPeriph_Driver/src/stm32f10x_adc.c **** /* SQR1 register Mask */
 123:./Libraries/STM32F10x_StdPeriph_Driver/src/stm32f10x_adc.c **** #define SQR1_CLEAR_Mask             ((uint32_t)0xFF0FFFFF)
 124:./Libraries/STM32F10x_StdPeriph_Driver/src/stm32f10x_adc.c **** 
 125:./Libraries/STM32F10x_StdPeriph_Driver/src/stm32f10x_adc.c **** /* ADC JSQx mask */
 126:./Libraries/STM32F10x_StdPeriph_Driver/src/stm32f10x_adc.c **** #define JSQR_JSQ_Set                ((uint32_t)0x0000001F)
 127:./Libraries/STM32F10x_StdPeriph_Driver/src/stm32f10x_adc.c **** 
 128:./Libraries/STM32F10x_StdPeriph_Driver/src/stm32f10x_adc.c **** /* ADC JL mask */
 129:./Libraries/STM32F10x_StdPeriph_Driver/src/stm32f10x_adc.c **** #define JSQR_JL_Set                 ((uint32_t)0x00300000)
 130:./Libraries/STM32F10x_StdPeriph_Driver/src/stm32f10x_adc.c **** #define JSQR_JL_Reset               ((uint32_t)0xFFCFFFFF)
 131:./Libraries/STM32F10x_StdPeriph_Driver/src/stm32f10x_adc.c **** 
 132:./Libraries/STM32F10x_StdPeriph_Driver/src/stm32f10x_adc.c **** /* ADC SMPx mask */
 133:./Libraries/STM32F10x_StdPeriph_Driver/src/stm32f10x_adc.c **** #define SMPR1_SMP_Set               ((uint32_t)0x00000007)
 134:./Libraries/STM32F10x_StdPeriph_Driver/src/stm32f10x_adc.c **** #define SMPR2_SMP_Set               ((uint32_t)0x00000007)
 135:./Libraries/STM32F10x_StdPeriph_Driver/src/stm32f10x_adc.c **** 
 136:./Libraries/STM32F10x_StdPeriph_Driver/src/stm32f10x_adc.c **** /* ADC JDRx registers offset */
 137:./Libraries/STM32F10x_StdPeriph_Driver/src/stm32f10x_adc.c **** #define JDR_Offset                  ((uint8_t)0x28)
 138:./Libraries/STM32F10x_StdPeriph_Driver/src/stm32f10x_adc.c **** 
 139:./Libraries/STM32F10x_StdPeriph_Driver/src/stm32f10x_adc.c **** /* ADC1 DR register base address */
 140:./Libraries/STM32F10x_StdPeriph_Driver/src/stm32f10x_adc.c **** #define DR_ADDRESS                  ((uint32_t)0x4001244C)
 141:./Libraries/STM32F10x_StdPeriph_Driver/src/stm32f10x_adc.c **** 
 142:./Libraries/STM32F10x_StdPeriph_Driver/src/stm32f10x_adc.c **** /**
 143:./Libraries/STM32F10x_StdPeriph_Driver/src/stm32f10x_adc.c ****   * @}
 144:./Libraries/STM32F10x_StdPeriph_Driver/src/stm32f10x_adc.c ****   */
 145:./Libraries/STM32F10x_StdPeriph_Driver/src/stm32f10x_adc.c **** 
ARM GAS  /tmp/cci4pFLa.s 			page 4


 146:./Libraries/STM32F10x_StdPeriph_Driver/src/stm32f10x_adc.c **** /** @defgroup ADC_Private_Macros
 147:./Libraries/STM32F10x_StdPeriph_Driver/src/stm32f10x_adc.c ****   * @{
 148:./Libraries/STM32F10x_StdPeriph_Driver/src/stm32f10x_adc.c ****   */
 149:./Libraries/STM32F10x_StdPeriph_Driver/src/stm32f10x_adc.c **** 
 150:./Libraries/STM32F10x_StdPeriph_Driver/src/stm32f10x_adc.c **** /**
 151:./Libraries/STM32F10x_StdPeriph_Driver/src/stm32f10x_adc.c ****   * @}
 152:./Libraries/STM32F10x_StdPeriph_Driver/src/stm32f10x_adc.c ****   */
 153:./Libraries/STM32F10x_StdPeriph_Driver/src/stm32f10x_adc.c **** 
 154:./Libraries/STM32F10x_StdPeriph_Driver/src/stm32f10x_adc.c **** /** @defgroup ADC_Private_Variables
 155:./Libraries/STM32F10x_StdPeriph_Driver/src/stm32f10x_adc.c ****   * @{
 156:./Libraries/STM32F10x_StdPeriph_Driver/src/stm32f10x_adc.c ****   */
 157:./Libraries/STM32F10x_StdPeriph_Driver/src/stm32f10x_adc.c **** 
 158:./Libraries/STM32F10x_StdPeriph_Driver/src/stm32f10x_adc.c **** /**
 159:./Libraries/STM32F10x_StdPeriph_Driver/src/stm32f10x_adc.c ****   * @}
 160:./Libraries/STM32F10x_StdPeriph_Driver/src/stm32f10x_adc.c ****   */
 161:./Libraries/STM32F10x_StdPeriph_Driver/src/stm32f10x_adc.c **** 
 162:./Libraries/STM32F10x_StdPeriph_Driver/src/stm32f10x_adc.c **** /** @defgroup ADC_Private_FunctionPrototypes
 163:./Libraries/STM32F10x_StdPeriph_Driver/src/stm32f10x_adc.c ****   * @{
 164:./Libraries/STM32F10x_StdPeriph_Driver/src/stm32f10x_adc.c ****   */
 165:./Libraries/STM32F10x_StdPeriph_Driver/src/stm32f10x_adc.c **** 
 166:./Libraries/STM32F10x_StdPeriph_Driver/src/stm32f10x_adc.c **** /**
 167:./Libraries/STM32F10x_StdPeriph_Driver/src/stm32f10x_adc.c ****   * @}
 168:./Libraries/STM32F10x_StdPeriph_Driver/src/stm32f10x_adc.c ****   */
 169:./Libraries/STM32F10x_StdPeriph_Driver/src/stm32f10x_adc.c **** 
 170:./Libraries/STM32F10x_StdPeriph_Driver/src/stm32f10x_adc.c **** /** @defgroup ADC_Private_Functions
 171:./Libraries/STM32F10x_StdPeriph_Driver/src/stm32f10x_adc.c ****   * @{
 172:./Libraries/STM32F10x_StdPeriph_Driver/src/stm32f10x_adc.c ****   */
 173:./Libraries/STM32F10x_StdPeriph_Driver/src/stm32f10x_adc.c **** 
 174:./Libraries/STM32F10x_StdPeriph_Driver/src/stm32f10x_adc.c **** /**
 175:./Libraries/STM32F10x_StdPeriph_Driver/src/stm32f10x_adc.c ****   * @brief  Deinitializes the ADCx peripheral registers to their default reset values.
 176:./Libraries/STM32F10x_StdPeriph_Driver/src/stm32f10x_adc.c ****   * @param  ADCx: where x can be 1, 2 or 3 to select the ADC peripheral.
 177:./Libraries/STM32F10x_StdPeriph_Driver/src/stm32f10x_adc.c ****   * @retval None
 178:./Libraries/STM32F10x_StdPeriph_Driver/src/stm32f10x_adc.c ****   */
 179:./Libraries/STM32F10x_StdPeriph_Driver/src/stm32f10x_adc.c **** void ADC_DeInit(ADC_TypeDef* ADCx)
 180:./Libraries/STM32F10x_StdPeriph_Driver/src/stm32f10x_adc.c **** {
  28              		.loc 1 180 1 view -0
  29              		.cfi_startproc
  30              		@ args = 0, pretend = 0, frame = 0
  31              		@ frame_needed = 0, uses_anonymous_args = 0
  32              		.loc 1 180 1 is_stmt 0 view .LVU1
  33 0000 08B5     		push	{r3, lr}
  34              	.LCFI0:
  35              		.cfi_def_cfa_offset 8
  36              		.cfi_offset 3, -8
  37              		.cfi_offset 14, -4
 181:./Libraries/STM32F10x_StdPeriph_Driver/src/stm32f10x_adc.c ****   /* Check the parameters */
 182:./Libraries/STM32F10x_StdPeriph_Driver/src/stm32f10x_adc.c ****   assert_param(IS_ADC_ALL_PERIPH(ADCx));
  38              		.loc 1 182 3 is_stmt 1 view .LVU2
 183:./Libraries/STM32F10x_StdPeriph_Driver/src/stm32f10x_adc.c ****   
 184:./Libraries/STM32F10x_StdPeriph_Driver/src/stm32f10x_adc.c ****   if (ADCx == ADC1)
  39              		.loc 1 184 3 view .LVU3
  40              		.loc 1 184 6 is_stmt 0 view .LVU4
  41 0002 154B     		ldr	r3, .L9
  42 0004 9842     		cmp	r0, r3
  43 0006 06D0     		beq	.L6
 185:./Libraries/STM32F10x_StdPeriph_Driver/src/stm32f10x_adc.c ****   {
 186:./Libraries/STM32F10x_StdPeriph_Driver/src/stm32f10x_adc.c ****     /* Enable ADC1 reset state */
ARM GAS  /tmp/cci4pFLa.s 			page 5


 187:./Libraries/STM32F10x_StdPeriph_Driver/src/stm32f10x_adc.c ****     RCC_APB2PeriphResetCmd(RCC_APB2Periph_ADC1, ENABLE);
 188:./Libraries/STM32F10x_StdPeriph_Driver/src/stm32f10x_adc.c ****     /* Release ADC1 from reset state */
 189:./Libraries/STM32F10x_StdPeriph_Driver/src/stm32f10x_adc.c ****     RCC_APB2PeriphResetCmd(RCC_APB2Periph_ADC1, DISABLE);
 190:./Libraries/STM32F10x_StdPeriph_Driver/src/stm32f10x_adc.c ****   }
 191:./Libraries/STM32F10x_StdPeriph_Driver/src/stm32f10x_adc.c ****   else if (ADCx == ADC2)
  44              		.loc 1 191 8 is_stmt 1 view .LVU5
  45              		.loc 1 191 11 is_stmt 0 view .LVU6
  46 0008 144B     		ldr	r3, .L9+4
  47 000a 9842     		cmp	r0, r3
  48 000c 0ED0     		beq	.L7
 192:./Libraries/STM32F10x_StdPeriph_Driver/src/stm32f10x_adc.c ****   {
 193:./Libraries/STM32F10x_StdPeriph_Driver/src/stm32f10x_adc.c ****     /* Enable ADC2 reset state */
 194:./Libraries/STM32F10x_StdPeriph_Driver/src/stm32f10x_adc.c ****     RCC_APB2PeriphResetCmd(RCC_APB2Periph_ADC2, ENABLE);
 195:./Libraries/STM32F10x_StdPeriph_Driver/src/stm32f10x_adc.c ****     /* Release ADC2 from reset state */
 196:./Libraries/STM32F10x_StdPeriph_Driver/src/stm32f10x_adc.c ****     RCC_APB2PeriphResetCmd(RCC_APB2Periph_ADC2, DISABLE);
 197:./Libraries/STM32F10x_StdPeriph_Driver/src/stm32f10x_adc.c ****   }
 198:./Libraries/STM32F10x_StdPeriph_Driver/src/stm32f10x_adc.c ****   else
 199:./Libraries/STM32F10x_StdPeriph_Driver/src/stm32f10x_adc.c ****   {
 200:./Libraries/STM32F10x_StdPeriph_Driver/src/stm32f10x_adc.c ****     if (ADCx == ADC3)
  49              		.loc 1 200 5 is_stmt 1 view .LVU7
  50              		.loc 1 200 8 is_stmt 0 view .LVU8
  51 000e 144B     		ldr	r3, .L9+8
  52 0010 9842     		cmp	r0, r3
  53 0012 16D0     		beq	.L8
  54              	.LVL1:
  55              	.L1:
 201:./Libraries/STM32F10x_StdPeriph_Driver/src/stm32f10x_adc.c ****     {
 202:./Libraries/STM32F10x_StdPeriph_Driver/src/stm32f10x_adc.c ****       /* Enable ADC3 reset state */
 203:./Libraries/STM32F10x_StdPeriph_Driver/src/stm32f10x_adc.c ****       RCC_APB2PeriphResetCmd(RCC_APB2Periph_ADC3, ENABLE);
 204:./Libraries/STM32F10x_StdPeriph_Driver/src/stm32f10x_adc.c ****       /* Release ADC3 from reset state */
 205:./Libraries/STM32F10x_StdPeriph_Driver/src/stm32f10x_adc.c ****       RCC_APB2PeriphResetCmd(RCC_APB2Periph_ADC3, DISABLE);
 206:./Libraries/STM32F10x_StdPeriph_Driver/src/stm32f10x_adc.c ****     }
 207:./Libraries/STM32F10x_StdPeriph_Driver/src/stm32f10x_adc.c ****   }
 208:./Libraries/STM32F10x_StdPeriph_Driver/src/stm32f10x_adc.c **** }
  56              		.loc 1 208 1 view .LVU9
  57 0014 08BD     		pop	{r3, pc}
  58              	.LVL2:
  59              	.L6:
 187:./Libraries/STM32F10x_StdPeriph_Driver/src/stm32f10x_adc.c ****     /* Release ADC1 from reset state */
  60              		.loc 1 187 5 is_stmt 1 view .LVU10
  61 0016 0121     		movs	r1, #1
  62 0018 4FF40070 		mov	r0, #512
  63              	.LVL3:
 187:./Libraries/STM32F10x_StdPeriph_Driver/src/stm32f10x_adc.c ****     /* Release ADC1 from reset state */
  64              		.loc 1 187 5 is_stmt 0 view .LVU11
  65 001c FFF7FEFF 		bl	RCC_APB2PeriphResetCmd
  66              	.LVL4:
 189:./Libraries/STM32F10x_StdPeriph_Driver/src/stm32f10x_adc.c ****   }
  67              		.loc 1 189 5 is_stmt 1 view .LVU12
  68 0020 0021     		movs	r1, #0
  69 0022 4FF40070 		mov	r0, #512
  70 0026 FFF7FEFF 		bl	RCC_APB2PeriphResetCmd
  71              	.LVL5:
  72 002a F3E7     		b	.L1
  73              	.LVL6:
  74              	.L7:
 194:./Libraries/STM32F10x_StdPeriph_Driver/src/stm32f10x_adc.c ****     /* Release ADC2 from reset state */
ARM GAS  /tmp/cci4pFLa.s 			page 6


  75              		.loc 1 194 5 view .LVU13
  76 002c 0121     		movs	r1, #1
  77 002e 4FF48060 		mov	r0, #1024
  78              	.LVL7:
 194:./Libraries/STM32F10x_StdPeriph_Driver/src/stm32f10x_adc.c ****     /* Release ADC2 from reset state */
  79              		.loc 1 194 5 is_stmt 0 view .LVU14
  80 0032 FFF7FEFF 		bl	RCC_APB2PeriphResetCmd
  81              	.LVL8:
 196:./Libraries/STM32F10x_StdPeriph_Driver/src/stm32f10x_adc.c ****   }
  82              		.loc 1 196 5 is_stmt 1 view .LVU15
  83 0036 0021     		movs	r1, #0
  84 0038 4FF48060 		mov	r0, #1024
  85 003c FFF7FEFF 		bl	RCC_APB2PeriphResetCmd
  86              	.LVL9:
  87 0040 E8E7     		b	.L1
  88              	.LVL10:
  89              	.L8:
 203:./Libraries/STM32F10x_StdPeriph_Driver/src/stm32f10x_adc.c ****       /* Release ADC3 from reset state */
  90              		.loc 1 203 7 view .LVU16
  91 0042 0121     		movs	r1, #1
  92 0044 4FF40040 		mov	r0, #32768
  93              	.LVL11:
 203:./Libraries/STM32F10x_StdPeriph_Driver/src/stm32f10x_adc.c ****       /* Release ADC3 from reset state */
  94              		.loc 1 203 7 is_stmt 0 view .LVU17
  95 0048 FFF7FEFF 		bl	RCC_APB2PeriphResetCmd
  96              	.LVL12:
 205:./Libraries/STM32F10x_StdPeriph_Driver/src/stm32f10x_adc.c ****     }
  97              		.loc 1 205 7 is_stmt 1 view .LVU18
  98 004c 0021     		movs	r1, #0
  99 004e 4FF40040 		mov	r0, #32768
 100 0052 FFF7FEFF 		bl	RCC_APB2PeriphResetCmd
 101              	.LVL13:
 102              		.loc 1 208 1 is_stmt 0 view .LVU19
 103 0056 DDE7     		b	.L1
 104              	.L10:
 105              		.align	2
 106              	.L9:
 107 0058 00240140 		.word	1073816576
 108 005c 00280140 		.word	1073817600
 109 0060 003C0140 		.word	1073822720
 110              		.cfi_endproc
 111              	.LFE29:
 113              		.section	.text.ADC_Init,"ax",%progbits
 114              		.align	1
 115              		.global	ADC_Init
 116              		.syntax unified
 117              		.thumb
 118              		.thumb_func
 119              		.fpu softvfp
 121              	ADC_Init:
 122              	.LVL14:
 123              	.LFB30:
 209:./Libraries/STM32F10x_StdPeriph_Driver/src/stm32f10x_adc.c **** 
 210:./Libraries/STM32F10x_StdPeriph_Driver/src/stm32f10x_adc.c **** /**
 211:./Libraries/STM32F10x_StdPeriph_Driver/src/stm32f10x_adc.c ****   * @brief  Initializes the ADCx peripheral according to the specified parameters
 212:./Libraries/STM32F10x_StdPeriph_Driver/src/stm32f10x_adc.c ****   *         in the ADC_InitStruct.
 213:./Libraries/STM32F10x_StdPeriph_Driver/src/stm32f10x_adc.c ****   * @param  ADCx: where x can be 1, 2 or 3 to select the ADC peripheral.
ARM GAS  /tmp/cci4pFLa.s 			page 7


 214:./Libraries/STM32F10x_StdPeriph_Driver/src/stm32f10x_adc.c ****   * @param  ADC_InitStruct: pointer to an ADC_InitTypeDef structure that contains
 215:./Libraries/STM32F10x_StdPeriph_Driver/src/stm32f10x_adc.c ****   *         the configuration information for the specified ADC peripheral.
 216:./Libraries/STM32F10x_StdPeriph_Driver/src/stm32f10x_adc.c ****   * @retval None
 217:./Libraries/STM32F10x_StdPeriph_Driver/src/stm32f10x_adc.c ****   */
 218:./Libraries/STM32F10x_StdPeriph_Driver/src/stm32f10x_adc.c **** void ADC_Init(ADC_TypeDef* ADCx, ADC_InitTypeDef* ADC_InitStruct)
 219:./Libraries/STM32F10x_StdPeriph_Driver/src/stm32f10x_adc.c **** {
 124              		.loc 1 219 1 is_stmt 1 view -0
 125              		.cfi_startproc
 126              		@ args = 0, pretend = 0, frame = 0
 127              		@ frame_needed = 0, uses_anonymous_args = 0
 128              		@ link register save eliminated.
 129              		.loc 1 219 1 is_stmt 0 view .LVU21
 130 0000 10B4     		push	{r4}
 131              	.LCFI1:
 132              		.cfi_def_cfa_offset 4
 133              		.cfi_offset 4, -4
 220:./Libraries/STM32F10x_StdPeriph_Driver/src/stm32f10x_adc.c ****   uint32_t tmpreg1 = 0;
 134              		.loc 1 220 3 is_stmt 1 view .LVU22
 135              	.LVL15:
 221:./Libraries/STM32F10x_StdPeriph_Driver/src/stm32f10x_adc.c ****   uint8_t tmpreg2 = 0;
 136              		.loc 1 221 3 view .LVU23
 222:./Libraries/STM32F10x_StdPeriph_Driver/src/stm32f10x_adc.c ****   /* Check the parameters */
 223:./Libraries/STM32F10x_StdPeriph_Driver/src/stm32f10x_adc.c ****   assert_param(IS_ADC_ALL_PERIPH(ADCx));
 137              		.loc 1 223 3 view .LVU24
 224:./Libraries/STM32F10x_StdPeriph_Driver/src/stm32f10x_adc.c ****   assert_param(IS_ADC_MODE(ADC_InitStruct->ADC_Mode));
 138              		.loc 1 224 3 view .LVU25
 225:./Libraries/STM32F10x_StdPeriph_Driver/src/stm32f10x_adc.c ****   assert_param(IS_FUNCTIONAL_STATE(ADC_InitStruct->ADC_ScanConvMode));
 139              		.loc 1 225 3 view .LVU26
 226:./Libraries/STM32F10x_StdPeriph_Driver/src/stm32f10x_adc.c ****   assert_param(IS_FUNCTIONAL_STATE(ADC_InitStruct->ADC_ContinuousConvMode));
 140              		.loc 1 226 3 view .LVU27
 227:./Libraries/STM32F10x_StdPeriph_Driver/src/stm32f10x_adc.c ****   assert_param(IS_ADC_EXT_TRIG(ADC_InitStruct->ADC_ExternalTrigConv));   
 141              		.loc 1 227 3 view .LVU28
 228:./Libraries/STM32F10x_StdPeriph_Driver/src/stm32f10x_adc.c ****   assert_param(IS_ADC_DATA_ALIGN(ADC_InitStruct->ADC_DataAlign)); 
 142              		.loc 1 228 3 view .LVU29
 229:./Libraries/STM32F10x_StdPeriph_Driver/src/stm32f10x_adc.c ****   assert_param(IS_ADC_REGULAR_LENGTH(ADC_InitStruct->ADC_NbrOfChannel));
 143              		.loc 1 229 3 view .LVU30
 230:./Libraries/STM32F10x_StdPeriph_Driver/src/stm32f10x_adc.c **** 
 231:./Libraries/STM32F10x_StdPeriph_Driver/src/stm32f10x_adc.c ****   /*---------------------------- ADCx CR1 Configuration -----------------*/
 232:./Libraries/STM32F10x_StdPeriph_Driver/src/stm32f10x_adc.c ****   /* Get the ADCx CR1 value */
 233:./Libraries/STM32F10x_StdPeriph_Driver/src/stm32f10x_adc.c ****   tmpreg1 = ADCx->CR1;
 144              		.loc 1 233 3 view .LVU31
 145              		.loc 1 233 11 is_stmt 0 view .LVU32
 146 0002 4268     		ldr	r2, [r0, #4]
 147              	.LVL16:
 234:./Libraries/STM32F10x_StdPeriph_Driver/src/stm32f10x_adc.c ****   /* Clear DUALMOD and SCAN bits */
 235:./Libraries/STM32F10x_StdPeriph_Driver/src/stm32f10x_adc.c ****   tmpreg1 &= CR1_CLEAR_Mask;
 148              		.loc 1 235 3 is_stmt 1 view .LVU33
 149              		.loc 1 235 11 is_stmt 0 view .LVU34
 150 0004 22F47022 		bic	r2, r2, #983040
 151              	.LVL17:
 152              		.loc 1 235 11 view .LVU35
 153 0008 22F48072 		bic	r2, r2, #256
 154              	.LVL18:
 236:./Libraries/STM32F10x_StdPeriph_Driver/src/stm32f10x_adc.c ****   /* Configure ADCx: Dual mode and scan conversion mode */
 237:./Libraries/STM32F10x_StdPeriph_Driver/src/stm32f10x_adc.c ****   /* Set DUALMOD bits according to ADC_Mode value */
 238:./Libraries/STM32F10x_StdPeriph_Driver/src/stm32f10x_adc.c ****   /* Set SCAN bit according to ADC_ScanConvMode value */
 239:./Libraries/STM32F10x_StdPeriph_Driver/src/stm32f10x_adc.c ****   tmpreg1 |= (uint32_t)(ADC_InitStruct->ADC_Mode | ((uint32_t)ADC_InitStruct->ADC_ScanConvMode << 8
ARM GAS  /tmp/cci4pFLa.s 			page 8


 155              		.loc 1 239 3 is_stmt 1 view .LVU36
 156              		.loc 1 239 39 is_stmt 0 view .LVU37
 157 000c 0B68     		ldr	r3, [r1]
 158              		.loc 1 239 77 view .LVU38
 159 000e 91F804C0 		ldrb	ip, [r1, #4]	@ zero_extendqisi2
 160              		.loc 1 239 14 view .LVU39
 161 0012 43EA0C23 		orr	r3, r3, ip, lsl #8
 162              		.loc 1 239 11 view .LVU40
 163 0016 1343     		orrs	r3, r3, r2
 164              	.LVL19:
 240:./Libraries/STM32F10x_StdPeriph_Driver/src/stm32f10x_adc.c ****   /* Write to ADCx CR1 */
 241:./Libraries/STM32F10x_StdPeriph_Driver/src/stm32f10x_adc.c ****   ADCx->CR1 = tmpreg1;
 165              		.loc 1 241 3 is_stmt 1 view .LVU41
 166              		.loc 1 241 13 is_stmt 0 view .LVU42
 167 0018 4360     		str	r3, [r0, #4]
 242:./Libraries/STM32F10x_StdPeriph_Driver/src/stm32f10x_adc.c **** 
 243:./Libraries/STM32F10x_StdPeriph_Driver/src/stm32f10x_adc.c ****   /*---------------------------- ADCx CR2 Configuration -----------------*/
 244:./Libraries/STM32F10x_StdPeriph_Driver/src/stm32f10x_adc.c ****   /* Get the ADCx CR2 value */
 245:./Libraries/STM32F10x_StdPeriph_Driver/src/stm32f10x_adc.c ****   tmpreg1 = ADCx->CR2;
 168              		.loc 1 245 3 is_stmt 1 view .LVU43
 169              		.loc 1 245 11 is_stmt 0 view .LVU44
 170 001a 8368     		ldr	r3, [r0, #8]
 171              	.LVL20:
 246:./Libraries/STM32F10x_StdPeriph_Driver/src/stm32f10x_adc.c ****   /* Clear CONT, ALIGN and EXTSEL bits */
 247:./Libraries/STM32F10x_StdPeriph_Driver/src/stm32f10x_adc.c ****   tmpreg1 &= CR2_CLEAR_Mask;
 172              		.loc 1 247 3 is_stmt 1 view .LVU45
 173              		.loc 1 247 11 is_stmt 0 view .LVU46
 174 001c 0A4A     		ldr	r2, .L13
 175 001e 1A40     		ands	r2, r2, r3
 176              	.LVL21:
 248:./Libraries/STM32F10x_StdPeriph_Driver/src/stm32f10x_adc.c ****   /* Configure ADCx: external trigger event and continuous conversion mode */
 249:./Libraries/STM32F10x_StdPeriph_Driver/src/stm32f10x_adc.c ****   /* Set ALIGN bit according to ADC_DataAlign value */
 250:./Libraries/STM32F10x_StdPeriph_Driver/src/stm32f10x_adc.c ****   /* Set EXTSEL bits according to ADC_ExternalTrigConv value */
 251:./Libraries/STM32F10x_StdPeriph_Driver/src/stm32f10x_adc.c ****   /* Set CONT bit according to ADC_ContinuousConvMode value */
 252:./Libraries/STM32F10x_StdPeriph_Driver/src/stm32f10x_adc.c ****   tmpreg1 |= (uint32_t)(ADC_InitStruct->ADC_DataAlign | ADC_InitStruct->ADC_ExternalTrigConv |
 177              		.loc 1 252 3 is_stmt 1 view .LVU47
 178              		.loc 1 252 39 is_stmt 0 view .LVU48
 179 0020 CB68     		ldr	r3, [r1, #12]
 180              		.loc 1 252 55 view .LVU49
 181 0022 8C68     		ldr	r4, [r1, #8]
 182 0024 2343     		orrs	r3, r3, r4
 253:./Libraries/STM32F10x_StdPeriph_Driver/src/stm32f10x_adc.c ****             ((uint32_t)ADC_InitStruct->ADC_ContinuousConvMode << 1));
 183              		.loc 1 253 38 view .LVU50
 184 0026 91F805C0 		ldrb	ip, [r1, #5]	@ zero_extendqisi2
 252:./Libraries/STM32F10x_StdPeriph_Driver/src/stm32f10x_adc.c ****             ((uint32_t)ADC_InitStruct->ADC_ContinuousConvMode << 1));
 185              		.loc 1 252 14 view .LVU51
 186 002a 43EA4C03 		orr	r3, r3, ip, lsl #1
 252:./Libraries/STM32F10x_StdPeriph_Driver/src/stm32f10x_adc.c ****             ((uint32_t)ADC_InitStruct->ADC_ContinuousConvMode << 1));
 187              		.loc 1 252 11 view .LVU52
 188 002e 1343     		orrs	r3, r3, r2
 189              	.LVL22:
 254:./Libraries/STM32F10x_StdPeriph_Driver/src/stm32f10x_adc.c ****   /* Write to ADCx CR2 */
 255:./Libraries/STM32F10x_StdPeriph_Driver/src/stm32f10x_adc.c ****   ADCx->CR2 = tmpreg1;
 190              		.loc 1 255 3 is_stmt 1 view .LVU53
 191              		.loc 1 255 13 is_stmt 0 view .LVU54
 192 0030 8360     		str	r3, [r0, #8]
 256:./Libraries/STM32F10x_StdPeriph_Driver/src/stm32f10x_adc.c **** 
ARM GAS  /tmp/cci4pFLa.s 			page 9


 257:./Libraries/STM32F10x_StdPeriph_Driver/src/stm32f10x_adc.c ****   /*---------------------------- ADCx SQR1 Configuration -----------------*/
 258:./Libraries/STM32F10x_StdPeriph_Driver/src/stm32f10x_adc.c ****   /* Get the ADCx SQR1 value */
 259:./Libraries/STM32F10x_StdPeriph_Driver/src/stm32f10x_adc.c ****   tmpreg1 = ADCx->SQR1;
 193              		.loc 1 259 3 is_stmt 1 view .LVU55
 194              		.loc 1 259 11 is_stmt 0 view .LVU56
 195 0032 C36A     		ldr	r3, [r0, #44]
 196              	.LVL23:
 260:./Libraries/STM32F10x_StdPeriph_Driver/src/stm32f10x_adc.c ****   /* Clear L bits */
 261:./Libraries/STM32F10x_StdPeriph_Driver/src/stm32f10x_adc.c ****   tmpreg1 &= SQR1_CLEAR_Mask;
 197              		.loc 1 261 3 is_stmt 1 view .LVU57
 198              		.loc 1 261 11 is_stmt 0 view .LVU58
 199 0034 23F47003 		bic	r3, r3, #15728640
 200              	.LVL24:
 262:./Libraries/STM32F10x_StdPeriph_Driver/src/stm32f10x_adc.c ****   /* Configure ADCx: regular channel sequence length */
 263:./Libraries/STM32F10x_StdPeriph_Driver/src/stm32f10x_adc.c ****   /* Set L bits according to ADC_NbrOfChannel value */
 264:./Libraries/STM32F10x_StdPeriph_Driver/src/stm32f10x_adc.c ****   tmpreg2 |= (uint8_t) (ADC_InitStruct->ADC_NbrOfChannel - (uint8_t)1);
 201              		.loc 1 264 3 is_stmt 1 view .LVU59
 202              		.loc 1 264 39 is_stmt 0 view .LVU60
 203 0038 0A7C     		ldrb	r2, [r1, #16]	@ zero_extendqisi2
 204              		.loc 1 264 14 view .LVU61
 205 003a 013A     		subs	r2, r2, #1
 206 003c D2B2     		uxtb	r2, r2
 207              	.LVL25:
 265:./Libraries/STM32F10x_StdPeriph_Driver/src/stm32f10x_adc.c ****   tmpreg1 |= (uint32_t)tmpreg2 << 20;
 208              		.loc 1 265 3 is_stmt 1 view .LVU62
 209              		.loc 1 265 11 is_stmt 0 view .LVU63
 210 003e 43EA0253 		orr	r3, r3, r2, lsl #20
 211              	.LVL26:
 266:./Libraries/STM32F10x_StdPeriph_Driver/src/stm32f10x_adc.c ****   /* Write to ADCx SQR1 */
 267:./Libraries/STM32F10x_StdPeriph_Driver/src/stm32f10x_adc.c ****   ADCx->SQR1 = tmpreg1;
 212              		.loc 1 267 3 is_stmt 1 view .LVU64
 213              		.loc 1 267 14 is_stmt 0 view .LVU65
 214 0042 C362     		str	r3, [r0, #44]
 268:./Libraries/STM32F10x_StdPeriph_Driver/src/stm32f10x_adc.c **** }
 215              		.loc 1 268 1 view .LVU66
 216 0044 10BC     		pop	{r4}
 217              	.LCFI2:
 218              		.cfi_restore 4
 219              		.cfi_def_cfa_offset 0
 220 0046 7047     		bx	lr
 221              	.L14:
 222              		.align	2
 223              	.L13:
 224 0048 FDF7F1FF 		.word	-919555
 225              		.cfi_endproc
 226              	.LFE30:
 228              		.section	.text.ADC_StructInit,"ax",%progbits
 229              		.align	1
 230              		.global	ADC_StructInit
 231              		.syntax unified
 232              		.thumb
 233              		.thumb_func
 234              		.fpu softvfp
 236              	ADC_StructInit:
 237              	.LVL27:
 238              	.LFB31:
 269:./Libraries/STM32F10x_StdPeriph_Driver/src/stm32f10x_adc.c **** 
ARM GAS  /tmp/cci4pFLa.s 			page 10


 270:./Libraries/STM32F10x_StdPeriph_Driver/src/stm32f10x_adc.c **** /**
 271:./Libraries/STM32F10x_StdPeriph_Driver/src/stm32f10x_adc.c ****   * @brief  Fills each ADC_InitStruct member with its default value.
 272:./Libraries/STM32F10x_StdPeriph_Driver/src/stm32f10x_adc.c ****   * @param  ADC_InitStruct : pointer to an ADC_InitTypeDef structure which will be initialized.
 273:./Libraries/STM32F10x_StdPeriph_Driver/src/stm32f10x_adc.c ****   * @retval None
 274:./Libraries/STM32F10x_StdPeriph_Driver/src/stm32f10x_adc.c ****   */
 275:./Libraries/STM32F10x_StdPeriph_Driver/src/stm32f10x_adc.c **** void ADC_StructInit(ADC_InitTypeDef* ADC_InitStruct)
 276:./Libraries/STM32F10x_StdPeriph_Driver/src/stm32f10x_adc.c **** {
 239              		.loc 1 276 1 is_stmt 1 view -0
 240              		.cfi_startproc
 241              		@ args = 0, pretend = 0, frame = 0
 242              		@ frame_needed = 0, uses_anonymous_args = 0
 243              		@ link register save eliminated.
 277:./Libraries/STM32F10x_StdPeriph_Driver/src/stm32f10x_adc.c ****   /* Reset ADC init structure parameters values */
 278:./Libraries/STM32F10x_StdPeriph_Driver/src/stm32f10x_adc.c ****   /* Initialize the ADC_Mode member */
 279:./Libraries/STM32F10x_StdPeriph_Driver/src/stm32f10x_adc.c ****   ADC_InitStruct->ADC_Mode = ADC_Mode_Independent;
 244              		.loc 1 279 3 view .LVU68
 245              		.loc 1 279 28 is_stmt 0 view .LVU69
 246 0000 0023     		movs	r3, #0
 247 0002 0360     		str	r3, [r0]
 280:./Libraries/STM32F10x_StdPeriph_Driver/src/stm32f10x_adc.c ****   /* initialize the ADC_ScanConvMode member */
 281:./Libraries/STM32F10x_StdPeriph_Driver/src/stm32f10x_adc.c ****   ADC_InitStruct->ADC_ScanConvMode = DISABLE;
 248              		.loc 1 281 3 is_stmt 1 view .LVU70
 249              		.loc 1 281 36 is_stmt 0 view .LVU71
 250 0004 0371     		strb	r3, [r0, #4]
 282:./Libraries/STM32F10x_StdPeriph_Driver/src/stm32f10x_adc.c ****   /* Initialize the ADC_ContinuousConvMode member */
 283:./Libraries/STM32F10x_StdPeriph_Driver/src/stm32f10x_adc.c ****   ADC_InitStruct->ADC_ContinuousConvMode = DISABLE;
 251              		.loc 1 283 3 is_stmt 1 view .LVU72
 252              		.loc 1 283 42 is_stmt 0 view .LVU73
 253 0006 4371     		strb	r3, [r0, #5]
 284:./Libraries/STM32F10x_StdPeriph_Driver/src/stm32f10x_adc.c ****   /* Initialize the ADC_ExternalTrigConv member */
 285:./Libraries/STM32F10x_StdPeriph_Driver/src/stm32f10x_adc.c ****   ADC_InitStruct->ADC_ExternalTrigConv = ADC_ExternalTrigConv_T1_CC1;
 254              		.loc 1 285 3 is_stmt 1 view .LVU74
 255              		.loc 1 285 40 is_stmt 0 view .LVU75
 256 0008 8360     		str	r3, [r0, #8]
 286:./Libraries/STM32F10x_StdPeriph_Driver/src/stm32f10x_adc.c ****   /* Initialize the ADC_DataAlign member */
 287:./Libraries/STM32F10x_StdPeriph_Driver/src/stm32f10x_adc.c ****   ADC_InitStruct->ADC_DataAlign = ADC_DataAlign_Right;
 257              		.loc 1 287 3 is_stmt 1 view .LVU76
 258              		.loc 1 287 33 is_stmt 0 view .LVU77
 259 000a C360     		str	r3, [r0, #12]
 288:./Libraries/STM32F10x_StdPeriph_Driver/src/stm32f10x_adc.c ****   /* Initialize the ADC_NbrOfChannel member */
 289:./Libraries/STM32F10x_StdPeriph_Driver/src/stm32f10x_adc.c ****   ADC_InitStruct->ADC_NbrOfChannel = 1;
 260              		.loc 1 289 3 is_stmt 1 view .LVU78
 261              		.loc 1 289 36 is_stmt 0 view .LVU79
 262 000c 0123     		movs	r3, #1
 263 000e 0374     		strb	r3, [r0, #16]
 290:./Libraries/STM32F10x_StdPeriph_Driver/src/stm32f10x_adc.c **** }
 264              		.loc 1 290 1 view .LVU80
 265 0010 7047     		bx	lr
 266              		.cfi_endproc
 267              	.LFE31:
 269              		.section	.text.ADC_Cmd,"ax",%progbits
 270              		.align	1
 271              		.global	ADC_Cmd
 272              		.syntax unified
 273              		.thumb
 274              		.thumb_func
 275              		.fpu softvfp
ARM GAS  /tmp/cci4pFLa.s 			page 11


 277              	ADC_Cmd:
 278              	.LVL28:
 279              	.LFB32:
 291:./Libraries/STM32F10x_StdPeriph_Driver/src/stm32f10x_adc.c **** 
 292:./Libraries/STM32F10x_StdPeriph_Driver/src/stm32f10x_adc.c **** /**
 293:./Libraries/STM32F10x_StdPeriph_Driver/src/stm32f10x_adc.c ****   * @brief  Enables or disables the specified ADC peripheral.
 294:./Libraries/STM32F10x_StdPeriph_Driver/src/stm32f10x_adc.c ****   * @param  ADCx: where x can be 1, 2 or 3 to select the ADC peripheral.
 295:./Libraries/STM32F10x_StdPeriph_Driver/src/stm32f10x_adc.c ****   * @param  NewState: new state of the ADCx peripheral.
 296:./Libraries/STM32F10x_StdPeriph_Driver/src/stm32f10x_adc.c ****   *   This parameter can be: ENABLE or DISABLE.
 297:./Libraries/STM32F10x_StdPeriph_Driver/src/stm32f10x_adc.c ****   * @retval None
 298:./Libraries/STM32F10x_StdPeriph_Driver/src/stm32f10x_adc.c ****   */
 299:./Libraries/STM32F10x_StdPeriph_Driver/src/stm32f10x_adc.c **** void ADC_Cmd(ADC_TypeDef* ADCx, FunctionalState NewState)
 300:./Libraries/STM32F10x_StdPeriph_Driver/src/stm32f10x_adc.c **** {
 280              		.loc 1 300 1 is_stmt 1 view -0
 281              		.cfi_startproc
 282              		@ args = 0, pretend = 0, frame = 0
 283              		@ frame_needed = 0, uses_anonymous_args = 0
 284              		@ link register save eliminated.
 301:./Libraries/STM32F10x_StdPeriph_Driver/src/stm32f10x_adc.c ****   /* Check the parameters */
 302:./Libraries/STM32F10x_StdPeriph_Driver/src/stm32f10x_adc.c ****   assert_param(IS_ADC_ALL_PERIPH(ADCx));
 285              		.loc 1 302 3 view .LVU82
 303:./Libraries/STM32F10x_StdPeriph_Driver/src/stm32f10x_adc.c ****   assert_param(IS_FUNCTIONAL_STATE(NewState));
 286              		.loc 1 303 3 view .LVU83
 304:./Libraries/STM32F10x_StdPeriph_Driver/src/stm32f10x_adc.c ****   if (NewState != DISABLE)
 287              		.loc 1 304 3 view .LVU84
 288              		.loc 1 304 6 is_stmt 0 view .LVU85
 289 0000 21B1     		cbz	r1, .L17
 305:./Libraries/STM32F10x_StdPeriph_Driver/src/stm32f10x_adc.c ****   {
 306:./Libraries/STM32F10x_StdPeriph_Driver/src/stm32f10x_adc.c ****     /* Set the ADON bit to wake up the ADC from power down mode */
 307:./Libraries/STM32F10x_StdPeriph_Driver/src/stm32f10x_adc.c ****     ADCx->CR2 |= CR2_ADON_Set;
 290              		.loc 1 307 5 is_stmt 1 view .LVU86
 291              		.loc 1 307 15 is_stmt 0 view .LVU87
 292 0002 8368     		ldr	r3, [r0, #8]
 293 0004 43F00103 		orr	r3, r3, #1
 294 0008 8360     		str	r3, [r0, #8]
 295 000a 7047     		bx	lr
 296              	.L17:
 308:./Libraries/STM32F10x_StdPeriph_Driver/src/stm32f10x_adc.c ****   }
 309:./Libraries/STM32F10x_StdPeriph_Driver/src/stm32f10x_adc.c ****   else
 310:./Libraries/STM32F10x_StdPeriph_Driver/src/stm32f10x_adc.c ****   {
 311:./Libraries/STM32F10x_StdPeriph_Driver/src/stm32f10x_adc.c ****     /* Disable the selected ADC peripheral */
 312:./Libraries/STM32F10x_StdPeriph_Driver/src/stm32f10x_adc.c ****     ADCx->CR2 &= CR2_ADON_Reset;
 297              		.loc 1 312 5 is_stmt 1 view .LVU88
 298              		.loc 1 312 15 is_stmt 0 view .LVU89
 299 000c 8368     		ldr	r3, [r0, #8]
 300 000e 23F00103 		bic	r3, r3, #1
 301 0012 8360     		str	r3, [r0, #8]
 313:./Libraries/STM32F10x_StdPeriph_Driver/src/stm32f10x_adc.c ****   }
 314:./Libraries/STM32F10x_StdPeriph_Driver/src/stm32f10x_adc.c **** }
 302              		.loc 1 314 1 view .LVU90
 303 0014 7047     		bx	lr
 304              		.cfi_endproc
 305              	.LFE32:
 307              		.section	.text.ADC_DMACmd,"ax",%progbits
 308              		.align	1
 309              		.global	ADC_DMACmd
 310              		.syntax unified
ARM GAS  /tmp/cci4pFLa.s 			page 12


 311              		.thumb
 312              		.thumb_func
 313              		.fpu softvfp
 315              	ADC_DMACmd:
 316              	.LVL29:
 317              	.LFB33:
 315:./Libraries/STM32F10x_StdPeriph_Driver/src/stm32f10x_adc.c **** 
 316:./Libraries/STM32F10x_StdPeriph_Driver/src/stm32f10x_adc.c **** /**
 317:./Libraries/STM32F10x_StdPeriph_Driver/src/stm32f10x_adc.c ****   * @brief  Enables or disables the specified ADC DMA request.
 318:./Libraries/STM32F10x_StdPeriph_Driver/src/stm32f10x_adc.c ****   * @param  ADCx: where x can be 1 or 3 to select the ADC peripheral.
 319:./Libraries/STM32F10x_StdPeriph_Driver/src/stm32f10x_adc.c ****   *   Note: ADC2 hasn't a DMA capability.
 320:./Libraries/STM32F10x_StdPeriph_Driver/src/stm32f10x_adc.c ****   * @param  NewState: new state of the selected ADC DMA transfer.
 321:./Libraries/STM32F10x_StdPeriph_Driver/src/stm32f10x_adc.c ****   *   This parameter can be: ENABLE or DISABLE.
 322:./Libraries/STM32F10x_StdPeriph_Driver/src/stm32f10x_adc.c ****   * @retval None
 323:./Libraries/STM32F10x_StdPeriph_Driver/src/stm32f10x_adc.c ****   */
 324:./Libraries/STM32F10x_StdPeriph_Driver/src/stm32f10x_adc.c **** void ADC_DMACmd(ADC_TypeDef* ADCx, FunctionalState NewState)
 325:./Libraries/STM32F10x_StdPeriph_Driver/src/stm32f10x_adc.c **** {
 318              		.loc 1 325 1 is_stmt 1 view -0
 319              		.cfi_startproc
 320              		@ args = 0, pretend = 0, frame = 0
 321              		@ frame_needed = 0, uses_anonymous_args = 0
 322              		@ link register save eliminated.
 326:./Libraries/STM32F10x_StdPeriph_Driver/src/stm32f10x_adc.c ****   /* Check the parameters */
 327:./Libraries/STM32F10x_StdPeriph_Driver/src/stm32f10x_adc.c ****   assert_param(IS_ADC_DMA_PERIPH(ADCx));
 323              		.loc 1 327 3 view .LVU92
 328:./Libraries/STM32F10x_StdPeriph_Driver/src/stm32f10x_adc.c ****   assert_param(IS_FUNCTIONAL_STATE(NewState));
 324              		.loc 1 328 3 view .LVU93
 329:./Libraries/STM32F10x_StdPeriph_Driver/src/stm32f10x_adc.c ****   if (NewState != DISABLE)
 325              		.loc 1 329 3 view .LVU94
 326              		.loc 1 329 6 is_stmt 0 view .LVU95
 327 0000 21B1     		cbz	r1, .L20
 330:./Libraries/STM32F10x_StdPeriph_Driver/src/stm32f10x_adc.c ****   {
 331:./Libraries/STM32F10x_StdPeriph_Driver/src/stm32f10x_adc.c ****     /* Enable the selected ADC DMA request */
 332:./Libraries/STM32F10x_StdPeriph_Driver/src/stm32f10x_adc.c ****     ADCx->CR2 |= CR2_DMA_Set;
 328              		.loc 1 332 5 is_stmt 1 view .LVU96
 329              		.loc 1 332 15 is_stmt 0 view .LVU97
 330 0002 8368     		ldr	r3, [r0, #8]
 331 0004 43F48073 		orr	r3, r3, #256
 332 0008 8360     		str	r3, [r0, #8]
 333 000a 7047     		bx	lr
 334              	.L20:
 333:./Libraries/STM32F10x_StdPeriph_Driver/src/stm32f10x_adc.c ****   }
 334:./Libraries/STM32F10x_StdPeriph_Driver/src/stm32f10x_adc.c ****   else
 335:./Libraries/STM32F10x_StdPeriph_Driver/src/stm32f10x_adc.c ****   {
 336:./Libraries/STM32F10x_StdPeriph_Driver/src/stm32f10x_adc.c ****     /* Disable the selected ADC DMA request */
 337:./Libraries/STM32F10x_StdPeriph_Driver/src/stm32f10x_adc.c ****     ADCx->CR2 &= CR2_DMA_Reset;
 335              		.loc 1 337 5 is_stmt 1 view .LVU98
 336              		.loc 1 337 15 is_stmt 0 view .LVU99
 337 000c 8368     		ldr	r3, [r0, #8]
 338 000e 23F48073 		bic	r3, r3, #256
 339 0012 8360     		str	r3, [r0, #8]
 338:./Libraries/STM32F10x_StdPeriph_Driver/src/stm32f10x_adc.c ****   }
 339:./Libraries/STM32F10x_StdPeriph_Driver/src/stm32f10x_adc.c **** }
 340              		.loc 1 339 1 view .LVU100
 341 0014 7047     		bx	lr
 342              		.cfi_endproc
 343              	.LFE33:
ARM GAS  /tmp/cci4pFLa.s 			page 13


 345              		.section	.text.ADC_ITConfig,"ax",%progbits
 346              		.align	1
 347              		.global	ADC_ITConfig
 348              		.syntax unified
 349              		.thumb
 350              		.thumb_func
 351              		.fpu softvfp
 353              	ADC_ITConfig:
 354              	.LVL30:
 355              	.LFB34:
 340:./Libraries/STM32F10x_StdPeriph_Driver/src/stm32f10x_adc.c **** 
 341:./Libraries/STM32F10x_StdPeriph_Driver/src/stm32f10x_adc.c **** /**
 342:./Libraries/STM32F10x_StdPeriph_Driver/src/stm32f10x_adc.c ****   * @brief  Enables or disables the specified ADC interrupts.
 343:./Libraries/STM32F10x_StdPeriph_Driver/src/stm32f10x_adc.c ****   * @param  ADCx: where x can be 1, 2 or 3 to select the ADC peripheral.
 344:./Libraries/STM32F10x_StdPeriph_Driver/src/stm32f10x_adc.c ****   * @param  ADC_IT: specifies the ADC interrupt sources to be enabled or disabled. 
 345:./Libraries/STM32F10x_StdPeriph_Driver/src/stm32f10x_adc.c ****   *   This parameter can be any combination of the following values:
 346:./Libraries/STM32F10x_StdPeriph_Driver/src/stm32f10x_adc.c ****   *     @arg ADC_IT_EOC: End of conversion interrupt mask
 347:./Libraries/STM32F10x_StdPeriph_Driver/src/stm32f10x_adc.c ****   *     @arg ADC_IT_AWD: Analog watchdog interrupt mask
 348:./Libraries/STM32F10x_StdPeriph_Driver/src/stm32f10x_adc.c ****   *     @arg ADC_IT_JEOC: End of injected conversion interrupt mask
 349:./Libraries/STM32F10x_StdPeriph_Driver/src/stm32f10x_adc.c ****   * @param  NewState: new state of the specified ADC interrupts.
 350:./Libraries/STM32F10x_StdPeriph_Driver/src/stm32f10x_adc.c ****   *   This parameter can be: ENABLE or DISABLE.
 351:./Libraries/STM32F10x_StdPeriph_Driver/src/stm32f10x_adc.c ****   * @retval None
 352:./Libraries/STM32F10x_StdPeriph_Driver/src/stm32f10x_adc.c ****   */
 353:./Libraries/STM32F10x_StdPeriph_Driver/src/stm32f10x_adc.c **** void ADC_ITConfig(ADC_TypeDef* ADCx, uint16_t ADC_IT, FunctionalState NewState)
 354:./Libraries/STM32F10x_StdPeriph_Driver/src/stm32f10x_adc.c **** {
 356              		.loc 1 354 1 is_stmt 1 view -0
 357              		.cfi_startproc
 358              		@ args = 0, pretend = 0, frame = 0
 359              		@ frame_needed = 0, uses_anonymous_args = 0
 360              		@ link register save eliminated.
 355:./Libraries/STM32F10x_StdPeriph_Driver/src/stm32f10x_adc.c ****   uint8_t itmask = 0;
 361              		.loc 1 355 3 view .LVU102
 356:./Libraries/STM32F10x_StdPeriph_Driver/src/stm32f10x_adc.c ****   /* Check the parameters */
 357:./Libraries/STM32F10x_StdPeriph_Driver/src/stm32f10x_adc.c ****   assert_param(IS_ADC_ALL_PERIPH(ADCx));
 362              		.loc 1 357 3 view .LVU103
 358:./Libraries/STM32F10x_StdPeriph_Driver/src/stm32f10x_adc.c ****   assert_param(IS_FUNCTIONAL_STATE(NewState));
 363              		.loc 1 358 3 view .LVU104
 359:./Libraries/STM32F10x_StdPeriph_Driver/src/stm32f10x_adc.c ****   assert_param(IS_ADC_IT(ADC_IT));
 364              		.loc 1 359 3 view .LVU105
 360:./Libraries/STM32F10x_StdPeriph_Driver/src/stm32f10x_adc.c ****   /* Get the ADC IT index */
 361:./Libraries/STM32F10x_StdPeriph_Driver/src/stm32f10x_adc.c ****   itmask = (uint8_t)ADC_IT;
 365              		.loc 1 361 3 view .LVU106
 366              		.loc 1 361 10 is_stmt 0 view .LVU107
 367 0000 C9B2     		uxtb	r1, r1
 368              	.LVL31:
 362:./Libraries/STM32F10x_StdPeriph_Driver/src/stm32f10x_adc.c ****   if (NewState != DISABLE)
 369              		.loc 1 362 3 is_stmt 1 view .LVU108
 370              		.loc 1 362 6 is_stmt 0 view .LVU109
 371 0002 1AB1     		cbz	r2, .L23
 363:./Libraries/STM32F10x_StdPeriph_Driver/src/stm32f10x_adc.c ****   {
 364:./Libraries/STM32F10x_StdPeriph_Driver/src/stm32f10x_adc.c ****     /* Enable the selected ADC interrupts */
 365:./Libraries/STM32F10x_StdPeriph_Driver/src/stm32f10x_adc.c ****     ADCx->CR1 |= itmask;
 372              		.loc 1 365 5 is_stmt 1 view .LVU110
 373              		.loc 1 365 15 is_stmt 0 view .LVU111
 374 0004 4368     		ldr	r3, [r0, #4]
 375 0006 1943     		orrs	r1, r1, r3
 376              	.LVL32:
ARM GAS  /tmp/cci4pFLa.s 			page 14


 377              		.loc 1 365 15 view .LVU112
 378 0008 4160     		str	r1, [r0, #4]
 379 000a 7047     		bx	lr
 380              	.LVL33:
 381              	.L23:
 366:./Libraries/STM32F10x_StdPeriph_Driver/src/stm32f10x_adc.c ****   }
 367:./Libraries/STM32F10x_StdPeriph_Driver/src/stm32f10x_adc.c ****   else
 368:./Libraries/STM32F10x_StdPeriph_Driver/src/stm32f10x_adc.c ****   {
 369:./Libraries/STM32F10x_StdPeriph_Driver/src/stm32f10x_adc.c ****     /* Disable the selected ADC interrupts */
 370:./Libraries/STM32F10x_StdPeriph_Driver/src/stm32f10x_adc.c ****     ADCx->CR1 &= (~(uint32_t)itmask);
 382              		.loc 1 370 5 is_stmt 1 view .LVU113
 383              		.loc 1 370 15 is_stmt 0 view .LVU114
 384 000c 4368     		ldr	r3, [r0, #4]
 385 000e 23EA0101 		bic	r1, r3, r1
 386              	.LVL34:
 387              		.loc 1 370 15 view .LVU115
 388 0012 4160     		str	r1, [r0, #4]
 371:./Libraries/STM32F10x_StdPeriph_Driver/src/stm32f10x_adc.c ****   }
 372:./Libraries/STM32F10x_StdPeriph_Driver/src/stm32f10x_adc.c **** }
 389              		.loc 1 372 1 view .LVU116
 390 0014 7047     		bx	lr
 391              		.cfi_endproc
 392              	.LFE34:
 394              		.section	.text.ADC_ResetCalibration,"ax",%progbits
 395              		.align	1
 396              		.global	ADC_ResetCalibration
 397              		.syntax unified
 398              		.thumb
 399              		.thumb_func
 400              		.fpu softvfp
 402              	ADC_ResetCalibration:
 403              	.LVL35:
 404              	.LFB35:
 373:./Libraries/STM32F10x_StdPeriph_Driver/src/stm32f10x_adc.c **** 
 374:./Libraries/STM32F10x_StdPeriph_Driver/src/stm32f10x_adc.c **** /**
 375:./Libraries/STM32F10x_StdPeriph_Driver/src/stm32f10x_adc.c ****   * @brief  Resets the selected ADC calibration registers.
 376:./Libraries/STM32F10x_StdPeriph_Driver/src/stm32f10x_adc.c ****   * @param  ADCx: where x can be 1, 2 or 3 to select the ADC peripheral.
 377:./Libraries/STM32F10x_StdPeriph_Driver/src/stm32f10x_adc.c ****   * @retval None
 378:./Libraries/STM32F10x_StdPeriph_Driver/src/stm32f10x_adc.c ****   */
 379:./Libraries/STM32F10x_StdPeriph_Driver/src/stm32f10x_adc.c **** void ADC_ResetCalibration(ADC_TypeDef* ADCx)
 380:./Libraries/STM32F10x_StdPeriph_Driver/src/stm32f10x_adc.c **** {
 405              		.loc 1 380 1 is_stmt 1 view -0
 406              		.cfi_startproc
 407              		@ args = 0, pretend = 0, frame = 0
 408              		@ frame_needed = 0, uses_anonymous_args = 0
 409              		@ link register save eliminated.
 381:./Libraries/STM32F10x_StdPeriph_Driver/src/stm32f10x_adc.c ****   /* Check the parameters */
 382:./Libraries/STM32F10x_StdPeriph_Driver/src/stm32f10x_adc.c ****   assert_param(IS_ADC_ALL_PERIPH(ADCx));
 410              		.loc 1 382 3 view .LVU118
 383:./Libraries/STM32F10x_StdPeriph_Driver/src/stm32f10x_adc.c ****   /* Resets the selected ADC calibration registers */  
 384:./Libraries/STM32F10x_StdPeriph_Driver/src/stm32f10x_adc.c ****   ADCx->CR2 |= CR2_RSTCAL_Set;
 411              		.loc 1 384 3 view .LVU119
 412              		.loc 1 384 13 is_stmt 0 view .LVU120
 413 0000 8368     		ldr	r3, [r0, #8]
 414 0002 43F00803 		orr	r3, r3, #8
 415 0006 8360     		str	r3, [r0, #8]
 385:./Libraries/STM32F10x_StdPeriph_Driver/src/stm32f10x_adc.c **** }
ARM GAS  /tmp/cci4pFLa.s 			page 15


 416              		.loc 1 385 1 view .LVU121
 417 0008 7047     		bx	lr
 418              		.cfi_endproc
 419              	.LFE35:
 421              		.section	.text.ADC_GetResetCalibrationStatus,"ax",%progbits
 422              		.align	1
 423              		.global	ADC_GetResetCalibrationStatus
 424              		.syntax unified
 425              		.thumb
 426              		.thumb_func
 427              		.fpu softvfp
 429              	ADC_GetResetCalibrationStatus:
 430              	.LVL36:
 431              	.LFB36:
 386:./Libraries/STM32F10x_StdPeriph_Driver/src/stm32f10x_adc.c **** 
 387:./Libraries/STM32F10x_StdPeriph_Driver/src/stm32f10x_adc.c **** /**
 388:./Libraries/STM32F10x_StdPeriph_Driver/src/stm32f10x_adc.c ****   * @brief  Gets the selected ADC reset calibration registers status.
 389:./Libraries/STM32F10x_StdPeriph_Driver/src/stm32f10x_adc.c ****   * @param  ADCx: where x can be 1, 2 or 3 to select the ADC peripheral.
 390:./Libraries/STM32F10x_StdPeriph_Driver/src/stm32f10x_adc.c ****   * @retval The new state of ADC reset calibration registers (SET or RESET).
 391:./Libraries/STM32F10x_StdPeriph_Driver/src/stm32f10x_adc.c ****   */
 392:./Libraries/STM32F10x_StdPeriph_Driver/src/stm32f10x_adc.c **** FlagStatus ADC_GetResetCalibrationStatus(ADC_TypeDef* ADCx)
 393:./Libraries/STM32F10x_StdPeriph_Driver/src/stm32f10x_adc.c **** {
 432              		.loc 1 393 1 is_stmt 1 view -0
 433              		.cfi_startproc
 434              		@ args = 0, pretend = 0, frame = 0
 435              		@ frame_needed = 0, uses_anonymous_args = 0
 436              		@ link register save eliminated.
 394:./Libraries/STM32F10x_StdPeriph_Driver/src/stm32f10x_adc.c ****   FlagStatus bitstatus = RESET;
 437              		.loc 1 394 3 view .LVU123
 395:./Libraries/STM32F10x_StdPeriph_Driver/src/stm32f10x_adc.c ****   /* Check the parameters */
 396:./Libraries/STM32F10x_StdPeriph_Driver/src/stm32f10x_adc.c ****   assert_param(IS_ADC_ALL_PERIPH(ADCx));
 438              		.loc 1 396 3 view .LVU124
 397:./Libraries/STM32F10x_StdPeriph_Driver/src/stm32f10x_adc.c ****   /* Check the status of RSTCAL bit */
 398:./Libraries/STM32F10x_StdPeriph_Driver/src/stm32f10x_adc.c ****   if ((ADCx->CR2 & CR2_RSTCAL_Set) != (uint32_t)RESET)
 439              		.loc 1 398 3 view .LVU125
 440              		.loc 1 398 12 is_stmt 0 view .LVU126
 441 0000 8368     		ldr	r3, [r0, #8]
 442              		.loc 1 398 6 view .LVU127
 443 0002 13F0080F 		tst	r3, #8
 444 0006 01D0     		beq	.L28
 399:./Libraries/STM32F10x_StdPeriph_Driver/src/stm32f10x_adc.c ****   {
 400:./Libraries/STM32F10x_StdPeriph_Driver/src/stm32f10x_adc.c ****     /* RSTCAL bit is set */
 401:./Libraries/STM32F10x_StdPeriph_Driver/src/stm32f10x_adc.c ****     bitstatus = SET;
 445              		.loc 1 401 15 view .LVU128
 446 0008 0120     		movs	r0, #1
 447              	.LVL37:
 448              		.loc 1 401 15 view .LVU129
 449 000a 7047     		bx	lr
 450              	.LVL38:
 451              	.L28:
 402:./Libraries/STM32F10x_StdPeriph_Driver/src/stm32f10x_adc.c ****   }
 403:./Libraries/STM32F10x_StdPeriph_Driver/src/stm32f10x_adc.c ****   else
 404:./Libraries/STM32F10x_StdPeriph_Driver/src/stm32f10x_adc.c ****   {
 405:./Libraries/STM32F10x_StdPeriph_Driver/src/stm32f10x_adc.c ****     /* RSTCAL bit is reset */
 406:./Libraries/STM32F10x_StdPeriph_Driver/src/stm32f10x_adc.c ****     bitstatus = RESET;
 452              		.loc 1 406 15 view .LVU130
 453 000c 0020     		movs	r0, #0
ARM GAS  /tmp/cci4pFLa.s 			page 16


 454              	.LVL39:
 407:./Libraries/STM32F10x_StdPeriph_Driver/src/stm32f10x_adc.c ****   }
 408:./Libraries/STM32F10x_StdPeriph_Driver/src/stm32f10x_adc.c ****   /* Return the RSTCAL bit status */
 409:./Libraries/STM32F10x_StdPeriph_Driver/src/stm32f10x_adc.c ****   return  bitstatus;
 455              		.loc 1 409 3 is_stmt 1 view .LVU131
 410:./Libraries/STM32F10x_StdPeriph_Driver/src/stm32f10x_adc.c **** }
 456              		.loc 1 410 1 is_stmt 0 view .LVU132
 457 000e 7047     		bx	lr
 458              		.cfi_endproc
 459              	.LFE36:
 461              		.section	.text.ADC_StartCalibration,"ax",%progbits
 462              		.align	1
 463              		.global	ADC_StartCalibration
 464              		.syntax unified
 465              		.thumb
 466              		.thumb_func
 467              		.fpu softvfp
 469              	ADC_StartCalibration:
 470              	.LVL40:
 471              	.LFB37:
 411:./Libraries/STM32F10x_StdPeriph_Driver/src/stm32f10x_adc.c **** 
 412:./Libraries/STM32F10x_StdPeriph_Driver/src/stm32f10x_adc.c **** /**
 413:./Libraries/STM32F10x_StdPeriph_Driver/src/stm32f10x_adc.c ****   * @brief  Starts the selected ADC calibration process.
 414:./Libraries/STM32F10x_StdPeriph_Driver/src/stm32f10x_adc.c ****   * @param  ADCx: where x can be 1, 2 or 3 to select the ADC peripheral.
 415:./Libraries/STM32F10x_StdPeriph_Driver/src/stm32f10x_adc.c ****   * @retval None
 416:./Libraries/STM32F10x_StdPeriph_Driver/src/stm32f10x_adc.c ****   */
 417:./Libraries/STM32F10x_StdPeriph_Driver/src/stm32f10x_adc.c **** void ADC_StartCalibration(ADC_TypeDef* ADCx)
 418:./Libraries/STM32F10x_StdPeriph_Driver/src/stm32f10x_adc.c **** {
 472              		.loc 1 418 1 is_stmt 1 view -0
 473              		.cfi_startproc
 474              		@ args = 0, pretend = 0, frame = 0
 475              		@ frame_needed = 0, uses_anonymous_args = 0
 476              		@ link register save eliminated.
 419:./Libraries/STM32F10x_StdPeriph_Driver/src/stm32f10x_adc.c ****   /* Check the parameters */
 420:./Libraries/STM32F10x_StdPeriph_Driver/src/stm32f10x_adc.c ****   assert_param(IS_ADC_ALL_PERIPH(ADCx));
 477              		.loc 1 420 3 view .LVU134
 421:./Libraries/STM32F10x_StdPeriph_Driver/src/stm32f10x_adc.c ****   /* Enable the selected ADC calibration process */  
 422:./Libraries/STM32F10x_StdPeriph_Driver/src/stm32f10x_adc.c ****   ADCx->CR2 |= CR2_CAL_Set;
 478              		.loc 1 422 3 view .LVU135
 479              		.loc 1 422 13 is_stmt 0 view .LVU136
 480 0000 8368     		ldr	r3, [r0, #8]
 481 0002 43F00403 		orr	r3, r3, #4
 482 0006 8360     		str	r3, [r0, #8]
 423:./Libraries/STM32F10x_StdPeriph_Driver/src/stm32f10x_adc.c **** }
 483              		.loc 1 423 1 view .LVU137
 484 0008 7047     		bx	lr
 485              		.cfi_endproc
 486              	.LFE37:
 488              		.section	.text.ADC_GetCalibrationStatus,"ax",%progbits
 489              		.align	1
 490              		.global	ADC_GetCalibrationStatus
 491              		.syntax unified
 492              		.thumb
 493              		.thumb_func
 494              		.fpu softvfp
 496              	ADC_GetCalibrationStatus:
 497              	.LVL41:
ARM GAS  /tmp/cci4pFLa.s 			page 17


 498              	.LFB38:
 424:./Libraries/STM32F10x_StdPeriph_Driver/src/stm32f10x_adc.c **** 
 425:./Libraries/STM32F10x_StdPeriph_Driver/src/stm32f10x_adc.c **** /**
 426:./Libraries/STM32F10x_StdPeriph_Driver/src/stm32f10x_adc.c ****   * @brief  Gets the selected ADC calibration status.
 427:./Libraries/STM32F10x_StdPeriph_Driver/src/stm32f10x_adc.c ****   * @param  ADCx: where x can be 1, 2 or 3 to select the ADC peripheral.
 428:./Libraries/STM32F10x_StdPeriph_Driver/src/stm32f10x_adc.c ****   * @retval The new state of ADC calibration (SET or RESET).
 429:./Libraries/STM32F10x_StdPeriph_Driver/src/stm32f10x_adc.c ****   */
 430:./Libraries/STM32F10x_StdPeriph_Driver/src/stm32f10x_adc.c **** FlagStatus ADC_GetCalibrationStatus(ADC_TypeDef* ADCx)
 431:./Libraries/STM32F10x_StdPeriph_Driver/src/stm32f10x_adc.c **** {
 499              		.loc 1 431 1 is_stmt 1 view -0
 500              		.cfi_startproc
 501              		@ args = 0, pretend = 0, frame = 0
 502              		@ frame_needed = 0, uses_anonymous_args = 0
 503              		@ link register save eliminated.
 432:./Libraries/STM32F10x_StdPeriph_Driver/src/stm32f10x_adc.c ****   FlagStatus bitstatus = RESET;
 504              		.loc 1 432 3 view .LVU139
 433:./Libraries/STM32F10x_StdPeriph_Driver/src/stm32f10x_adc.c ****   /* Check the parameters */
 434:./Libraries/STM32F10x_StdPeriph_Driver/src/stm32f10x_adc.c ****   assert_param(IS_ADC_ALL_PERIPH(ADCx));
 505              		.loc 1 434 3 view .LVU140
 435:./Libraries/STM32F10x_StdPeriph_Driver/src/stm32f10x_adc.c ****   /* Check the status of CAL bit */
 436:./Libraries/STM32F10x_StdPeriph_Driver/src/stm32f10x_adc.c ****   if ((ADCx->CR2 & CR2_CAL_Set) != (uint32_t)RESET)
 506              		.loc 1 436 3 view .LVU141
 507              		.loc 1 436 12 is_stmt 0 view .LVU142
 508 0000 8368     		ldr	r3, [r0, #8]
 509              		.loc 1 436 6 view .LVU143
 510 0002 13F0040F 		tst	r3, #4
 511 0006 01D0     		beq	.L32
 437:./Libraries/STM32F10x_StdPeriph_Driver/src/stm32f10x_adc.c ****   {
 438:./Libraries/STM32F10x_StdPeriph_Driver/src/stm32f10x_adc.c ****     /* CAL bit is set: calibration on going */
 439:./Libraries/STM32F10x_StdPeriph_Driver/src/stm32f10x_adc.c ****     bitstatus = SET;
 512              		.loc 1 439 15 view .LVU144
 513 0008 0120     		movs	r0, #1
 514              	.LVL42:
 515              		.loc 1 439 15 view .LVU145
 516 000a 7047     		bx	lr
 517              	.LVL43:
 518              	.L32:
 440:./Libraries/STM32F10x_StdPeriph_Driver/src/stm32f10x_adc.c ****   }
 441:./Libraries/STM32F10x_StdPeriph_Driver/src/stm32f10x_adc.c ****   else
 442:./Libraries/STM32F10x_StdPeriph_Driver/src/stm32f10x_adc.c ****   {
 443:./Libraries/STM32F10x_StdPeriph_Driver/src/stm32f10x_adc.c ****     /* CAL bit is reset: end of calibration */
 444:./Libraries/STM32F10x_StdPeriph_Driver/src/stm32f10x_adc.c ****     bitstatus = RESET;
 519              		.loc 1 444 15 view .LVU146
 520 000c 0020     		movs	r0, #0
 521              	.LVL44:
 445:./Libraries/STM32F10x_StdPeriph_Driver/src/stm32f10x_adc.c ****   }
 446:./Libraries/STM32F10x_StdPeriph_Driver/src/stm32f10x_adc.c ****   /* Return the CAL bit status */
 447:./Libraries/STM32F10x_StdPeriph_Driver/src/stm32f10x_adc.c ****   return  bitstatus;
 522              		.loc 1 447 3 is_stmt 1 view .LVU147
 448:./Libraries/STM32F10x_StdPeriph_Driver/src/stm32f10x_adc.c **** }
 523              		.loc 1 448 1 is_stmt 0 view .LVU148
 524 000e 7047     		bx	lr
 525              		.cfi_endproc
 526              	.LFE38:
 528              		.section	.text.ADC_SoftwareStartConvCmd,"ax",%progbits
 529              		.align	1
 530              		.global	ADC_SoftwareStartConvCmd
ARM GAS  /tmp/cci4pFLa.s 			page 18


 531              		.syntax unified
 532              		.thumb
 533              		.thumb_func
 534              		.fpu softvfp
 536              	ADC_SoftwareStartConvCmd:
 537              	.LVL45:
 538              	.LFB39:
 449:./Libraries/STM32F10x_StdPeriph_Driver/src/stm32f10x_adc.c **** 
 450:./Libraries/STM32F10x_StdPeriph_Driver/src/stm32f10x_adc.c **** /**
 451:./Libraries/STM32F10x_StdPeriph_Driver/src/stm32f10x_adc.c ****   * @brief  Enables or disables the selected ADC software start conversion .
 452:./Libraries/STM32F10x_StdPeriph_Driver/src/stm32f10x_adc.c ****   * @param  ADCx: where x can be 1, 2 or 3 to select the ADC peripheral.
 453:./Libraries/STM32F10x_StdPeriph_Driver/src/stm32f10x_adc.c ****   * @param  NewState: new state of the selected ADC software start conversion.
 454:./Libraries/STM32F10x_StdPeriph_Driver/src/stm32f10x_adc.c ****   *   This parameter can be: ENABLE or DISABLE.
 455:./Libraries/STM32F10x_StdPeriph_Driver/src/stm32f10x_adc.c ****   * @retval None
 456:./Libraries/STM32F10x_StdPeriph_Driver/src/stm32f10x_adc.c ****   */
 457:./Libraries/STM32F10x_StdPeriph_Driver/src/stm32f10x_adc.c **** void ADC_SoftwareStartConvCmd(ADC_TypeDef* ADCx, FunctionalState NewState)
 458:./Libraries/STM32F10x_StdPeriph_Driver/src/stm32f10x_adc.c **** {
 539              		.loc 1 458 1 is_stmt 1 view -0
 540              		.cfi_startproc
 541              		@ args = 0, pretend = 0, frame = 0
 542              		@ frame_needed = 0, uses_anonymous_args = 0
 543              		@ link register save eliminated.
 459:./Libraries/STM32F10x_StdPeriph_Driver/src/stm32f10x_adc.c ****   /* Check the parameters */
 460:./Libraries/STM32F10x_StdPeriph_Driver/src/stm32f10x_adc.c ****   assert_param(IS_ADC_ALL_PERIPH(ADCx));
 544              		.loc 1 460 3 view .LVU150
 461:./Libraries/STM32F10x_StdPeriph_Driver/src/stm32f10x_adc.c ****   assert_param(IS_FUNCTIONAL_STATE(NewState));
 545              		.loc 1 461 3 view .LVU151
 462:./Libraries/STM32F10x_StdPeriph_Driver/src/stm32f10x_adc.c ****   if (NewState != DISABLE)
 546              		.loc 1 462 3 view .LVU152
 547              		.loc 1 462 6 is_stmt 0 view .LVU153
 548 0000 21B1     		cbz	r1, .L34
 463:./Libraries/STM32F10x_StdPeriph_Driver/src/stm32f10x_adc.c ****   {
 464:./Libraries/STM32F10x_StdPeriph_Driver/src/stm32f10x_adc.c ****     /* Enable the selected ADC conversion on external event and start the selected
 465:./Libraries/STM32F10x_StdPeriph_Driver/src/stm32f10x_adc.c ****        ADC conversion */
 466:./Libraries/STM32F10x_StdPeriph_Driver/src/stm32f10x_adc.c ****     ADCx->CR2 |= CR2_EXTTRIG_SWSTART_Set;
 549              		.loc 1 466 5 is_stmt 1 view .LVU154
 550              		.loc 1 466 15 is_stmt 0 view .LVU155
 551 0002 8368     		ldr	r3, [r0, #8]
 552 0004 43F4A003 		orr	r3, r3, #5242880
 553 0008 8360     		str	r3, [r0, #8]
 554 000a 7047     		bx	lr
 555              	.L34:
 467:./Libraries/STM32F10x_StdPeriph_Driver/src/stm32f10x_adc.c ****   }
 468:./Libraries/STM32F10x_StdPeriph_Driver/src/stm32f10x_adc.c ****   else
 469:./Libraries/STM32F10x_StdPeriph_Driver/src/stm32f10x_adc.c ****   {
 470:./Libraries/STM32F10x_StdPeriph_Driver/src/stm32f10x_adc.c ****     /* Disable the selected ADC conversion on external event and stop the selected
 471:./Libraries/STM32F10x_StdPeriph_Driver/src/stm32f10x_adc.c ****        ADC conversion */
 472:./Libraries/STM32F10x_StdPeriph_Driver/src/stm32f10x_adc.c ****     ADCx->CR2 &= CR2_EXTTRIG_SWSTART_Reset;
 556              		.loc 1 472 5 is_stmt 1 view .LVU156
 557              		.loc 1 472 15 is_stmt 0 view .LVU157
 558 000c 8368     		ldr	r3, [r0, #8]
 559 000e 23F4A003 		bic	r3, r3, #5242880
 560 0012 8360     		str	r3, [r0, #8]
 473:./Libraries/STM32F10x_StdPeriph_Driver/src/stm32f10x_adc.c ****   }
 474:./Libraries/STM32F10x_StdPeriph_Driver/src/stm32f10x_adc.c **** }
 561              		.loc 1 474 1 view .LVU158
 562 0014 7047     		bx	lr
ARM GAS  /tmp/cci4pFLa.s 			page 19


 563              		.cfi_endproc
 564              	.LFE39:
 566              		.section	.text.ADC_GetSoftwareStartConvStatus,"ax",%progbits
 567              		.align	1
 568              		.global	ADC_GetSoftwareStartConvStatus
 569              		.syntax unified
 570              		.thumb
 571              		.thumb_func
 572              		.fpu softvfp
 574              	ADC_GetSoftwareStartConvStatus:
 575              	.LVL46:
 576              	.LFB40:
 475:./Libraries/STM32F10x_StdPeriph_Driver/src/stm32f10x_adc.c **** 
 476:./Libraries/STM32F10x_StdPeriph_Driver/src/stm32f10x_adc.c **** /**
 477:./Libraries/STM32F10x_StdPeriph_Driver/src/stm32f10x_adc.c ****   * @brief  Gets the selected ADC Software start conversion Status.
 478:./Libraries/STM32F10x_StdPeriph_Driver/src/stm32f10x_adc.c ****   * @param  ADCx: where x can be 1, 2 or 3 to select the ADC peripheral.
 479:./Libraries/STM32F10x_StdPeriph_Driver/src/stm32f10x_adc.c ****   * @retval The new state of ADC software start conversion (SET or RESET).
 480:./Libraries/STM32F10x_StdPeriph_Driver/src/stm32f10x_adc.c ****   */
 481:./Libraries/STM32F10x_StdPeriph_Driver/src/stm32f10x_adc.c **** FlagStatus ADC_GetSoftwareStartConvStatus(ADC_TypeDef* ADCx)
 482:./Libraries/STM32F10x_StdPeriph_Driver/src/stm32f10x_adc.c **** {
 577              		.loc 1 482 1 is_stmt 1 view -0
 578              		.cfi_startproc
 579              		@ args = 0, pretend = 0, frame = 0
 580              		@ frame_needed = 0, uses_anonymous_args = 0
 581              		@ link register save eliminated.
 483:./Libraries/STM32F10x_StdPeriph_Driver/src/stm32f10x_adc.c ****   FlagStatus bitstatus = RESET;
 582              		.loc 1 483 3 view .LVU160
 484:./Libraries/STM32F10x_StdPeriph_Driver/src/stm32f10x_adc.c ****   /* Check the parameters */
 485:./Libraries/STM32F10x_StdPeriph_Driver/src/stm32f10x_adc.c ****   assert_param(IS_ADC_ALL_PERIPH(ADCx));
 583              		.loc 1 485 3 view .LVU161
 486:./Libraries/STM32F10x_StdPeriph_Driver/src/stm32f10x_adc.c ****   /* Check the status of SWSTART bit */
 487:./Libraries/STM32F10x_StdPeriph_Driver/src/stm32f10x_adc.c ****   if ((ADCx->CR2 & CR2_SWSTART_Set) != (uint32_t)RESET)
 584              		.loc 1 487 3 view .LVU162
 585              		.loc 1 487 12 is_stmt 0 view .LVU163
 586 0000 8368     		ldr	r3, [r0, #8]
 587              		.loc 1 487 6 view .LVU164
 588 0002 13F4800F 		tst	r3, #4194304
 589 0006 01D0     		beq	.L38
 488:./Libraries/STM32F10x_StdPeriph_Driver/src/stm32f10x_adc.c ****   {
 489:./Libraries/STM32F10x_StdPeriph_Driver/src/stm32f10x_adc.c ****     /* SWSTART bit is set */
 490:./Libraries/STM32F10x_StdPeriph_Driver/src/stm32f10x_adc.c ****     bitstatus = SET;
 590              		.loc 1 490 15 view .LVU165
 591 0008 0120     		movs	r0, #1
 592              	.LVL47:
 593              		.loc 1 490 15 view .LVU166
 594 000a 7047     		bx	lr
 595              	.LVL48:
 596              	.L38:
 491:./Libraries/STM32F10x_StdPeriph_Driver/src/stm32f10x_adc.c ****   }
 492:./Libraries/STM32F10x_StdPeriph_Driver/src/stm32f10x_adc.c ****   else
 493:./Libraries/STM32F10x_StdPeriph_Driver/src/stm32f10x_adc.c ****   {
 494:./Libraries/STM32F10x_StdPeriph_Driver/src/stm32f10x_adc.c ****     /* SWSTART bit is reset */
 495:./Libraries/STM32F10x_StdPeriph_Driver/src/stm32f10x_adc.c ****     bitstatus = RESET;
 597              		.loc 1 495 15 view .LVU167
 598 000c 0020     		movs	r0, #0
 599              	.LVL49:
 496:./Libraries/STM32F10x_StdPeriph_Driver/src/stm32f10x_adc.c ****   }
ARM GAS  /tmp/cci4pFLa.s 			page 20


 497:./Libraries/STM32F10x_StdPeriph_Driver/src/stm32f10x_adc.c ****   /* Return the SWSTART bit status */
 498:./Libraries/STM32F10x_StdPeriph_Driver/src/stm32f10x_adc.c ****   return  bitstatus;
 600              		.loc 1 498 3 is_stmt 1 view .LVU168
 499:./Libraries/STM32F10x_StdPeriph_Driver/src/stm32f10x_adc.c **** }
 601              		.loc 1 499 1 is_stmt 0 view .LVU169
 602 000e 7047     		bx	lr
 603              		.cfi_endproc
 604              	.LFE40:
 606              		.section	.text.ADC_DiscModeChannelCountConfig,"ax",%progbits
 607              		.align	1
 608              		.global	ADC_DiscModeChannelCountConfig
 609              		.syntax unified
 610              		.thumb
 611              		.thumb_func
 612              		.fpu softvfp
 614              	ADC_DiscModeChannelCountConfig:
 615              	.LVL50:
 616              	.LFB41:
 500:./Libraries/STM32F10x_StdPeriph_Driver/src/stm32f10x_adc.c **** 
 501:./Libraries/STM32F10x_StdPeriph_Driver/src/stm32f10x_adc.c **** /**
 502:./Libraries/STM32F10x_StdPeriph_Driver/src/stm32f10x_adc.c ****   * @brief  Configures the discontinuous mode for the selected ADC regular
 503:./Libraries/STM32F10x_StdPeriph_Driver/src/stm32f10x_adc.c ****   *         group channel.
 504:./Libraries/STM32F10x_StdPeriph_Driver/src/stm32f10x_adc.c ****   * @param  ADCx: where x can be 1, 2 or 3 to select the ADC peripheral.
 505:./Libraries/STM32F10x_StdPeriph_Driver/src/stm32f10x_adc.c ****   * @param  Number: specifies the discontinuous mode regular channel
 506:./Libraries/STM32F10x_StdPeriph_Driver/src/stm32f10x_adc.c ****   *         count value. This number must be between 1 and 8.
 507:./Libraries/STM32F10x_StdPeriph_Driver/src/stm32f10x_adc.c ****   * @retval None
 508:./Libraries/STM32F10x_StdPeriph_Driver/src/stm32f10x_adc.c ****   */
 509:./Libraries/STM32F10x_StdPeriph_Driver/src/stm32f10x_adc.c **** void ADC_DiscModeChannelCountConfig(ADC_TypeDef* ADCx, uint8_t Number)
 510:./Libraries/STM32F10x_StdPeriph_Driver/src/stm32f10x_adc.c **** {
 617              		.loc 1 510 1 is_stmt 1 view -0
 618              		.cfi_startproc
 619              		@ args = 0, pretend = 0, frame = 0
 620              		@ frame_needed = 0, uses_anonymous_args = 0
 621              		@ link register save eliminated.
 511:./Libraries/STM32F10x_StdPeriph_Driver/src/stm32f10x_adc.c ****   uint32_t tmpreg1 = 0;
 622              		.loc 1 511 3 view .LVU171
 512:./Libraries/STM32F10x_StdPeriph_Driver/src/stm32f10x_adc.c ****   uint32_t tmpreg2 = 0;
 623              		.loc 1 512 3 view .LVU172
 513:./Libraries/STM32F10x_StdPeriph_Driver/src/stm32f10x_adc.c ****   /* Check the parameters */
 514:./Libraries/STM32F10x_StdPeriph_Driver/src/stm32f10x_adc.c ****   assert_param(IS_ADC_ALL_PERIPH(ADCx));
 624              		.loc 1 514 3 view .LVU173
 515:./Libraries/STM32F10x_StdPeriph_Driver/src/stm32f10x_adc.c ****   assert_param(IS_ADC_REGULAR_DISC_NUMBER(Number));
 625              		.loc 1 515 3 view .LVU174
 516:./Libraries/STM32F10x_StdPeriph_Driver/src/stm32f10x_adc.c ****   /* Get the old register value */
 517:./Libraries/STM32F10x_StdPeriph_Driver/src/stm32f10x_adc.c ****   tmpreg1 = ADCx->CR1;
 626              		.loc 1 517 3 view .LVU175
 627              		.loc 1 517 11 is_stmt 0 view .LVU176
 628 0000 4368     		ldr	r3, [r0, #4]
 629              	.LVL51:
 518:./Libraries/STM32F10x_StdPeriph_Driver/src/stm32f10x_adc.c ****   /* Clear the old discontinuous mode channel count */
 519:./Libraries/STM32F10x_StdPeriph_Driver/src/stm32f10x_adc.c ****   tmpreg1 &= CR1_DISCNUM_Reset;
 630              		.loc 1 519 3 is_stmt 1 view .LVU177
 631              		.loc 1 519 11 is_stmt 0 view .LVU178
 632 0002 23F46043 		bic	r3, r3, #57344
 633              	.LVL52:
 520:./Libraries/STM32F10x_StdPeriph_Driver/src/stm32f10x_adc.c ****   /* Set the discontinuous mode channel count */
 521:./Libraries/STM32F10x_StdPeriph_Driver/src/stm32f10x_adc.c ****   tmpreg2 = Number - 1;
ARM GAS  /tmp/cci4pFLa.s 			page 21


 634              		.loc 1 521 3 is_stmt 1 view .LVU179
 635              		.loc 1 521 20 is_stmt 0 view .LVU180
 636 0006 0139     		subs	r1, r1, #1
 637              	.LVL53:
 522:./Libraries/STM32F10x_StdPeriph_Driver/src/stm32f10x_adc.c ****   tmpreg1 |= tmpreg2 << 13;
 638              		.loc 1 522 3 is_stmt 1 view .LVU181
 639              		.loc 1 522 11 is_stmt 0 view .LVU182
 640 0008 43EA4133 		orr	r3, r3, r1, lsl #13
 641              	.LVL54:
 523:./Libraries/STM32F10x_StdPeriph_Driver/src/stm32f10x_adc.c ****   /* Store the new register value */
 524:./Libraries/STM32F10x_StdPeriph_Driver/src/stm32f10x_adc.c ****   ADCx->CR1 = tmpreg1;
 642              		.loc 1 524 3 is_stmt 1 view .LVU183
 643              		.loc 1 524 13 is_stmt 0 view .LVU184
 644 000c 4360     		str	r3, [r0, #4]
 525:./Libraries/STM32F10x_StdPeriph_Driver/src/stm32f10x_adc.c **** }
 645              		.loc 1 525 1 view .LVU185
 646 000e 7047     		bx	lr
 647              		.cfi_endproc
 648              	.LFE41:
 650              		.section	.text.ADC_DiscModeCmd,"ax",%progbits
 651              		.align	1
 652              		.global	ADC_DiscModeCmd
 653              		.syntax unified
 654              		.thumb
 655              		.thumb_func
 656              		.fpu softvfp
 658              	ADC_DiscModeCmd:
 659              	.LVL55:
 660              	.LFB42:
 526:./Libraries/STM32F10x_StdPeriph_Driver/src/stm32f10x_adc.c **** 
 527:./Libraries/STM32F10x_StdPeriph_Driver/src/stm32f10x_adc.c **** /**
 528:./Libraries/STM32F10x_StdPeriph_Driver/src/stm32f10x_adc.c ****   * @brief  Enables or disables the discontinuous mode on regular group
 529:./Libraries/STM32F10x_StdPeriph_Driver/src/stm32f10x_adc.c ****   *         channel for the specified ADC
 530:./Libraries/STM32F10x_StdPeriph_Driver/src/stm32f10x_adc.c ****   * @param  ADCx: where x can be 1, 2 or 3 to select the ADC peripheral.
 531:./Libraries/STM32F10x_StdPeriph_Driver/src/stm32f10x_adc.c ****   * @param  NewState: new state of the selected ADC discontinuous mode
 532:./Libraries/STM32F10x_StdPeriph_Driver/src/stm32f10x_adc.c ****   *         on regular group channel.
 533:./Libraries/STM32F10x_StdPeriph_Driver/src/stm32f10x_adc.c ****   *         This parameter can be: ENABLE or DISABLE.
 534:./Libraries/STM32F10x_StdPeriph_Driver/src/stm32f10x_adc.c ****   * @retval None
 535:./Libraries/STM32F10x_StdPeriph_Driver/src/stm32f10x_adc.c ****   */
 536:./Libraries/STM32F10x_StdPeriph_Driver/src/stm32f10x_adc.c **** void ADC_DiscModeCmd(ADC_TypeDef* ADCx, FunctionalState NewState)
 537:./Libraries/STM32F10x_StdPeriph_Driver/src/stm32f10x_adc.c **** {
 661              		.loc 1 537 1 is_stmt 1 view -0
 662              		.cfi_startproc
 663              		@ args = 0, pretend = 0, frame = 0
 664              		@ frame_needed = 0, uses_anonymous_args = 0
 665              		@ link register save eliminated.
 538:./Libraries/STM32F10x_StdPeriph_Driver/src/stm32f10x_adc.c ****   /* Check the parameters */
 539:./Libraries/STM32F10x_StdPeriph_Driver/src/stm32f10x_adc.c ****   assert_param(IS_ADC_ALL_PERIPH(ADCx));
 666              		.loc 1 539 3 view .LVU187
 540:./Libraries/STM32F10x_StdPeriph_Driver/src/stm32f10x_adc.c ****   assert_param(IS_FUNCTIONAL_STATE(NewState));
 667              		.loc 1 540 3 view .LVU188
 541:./Libraries/STM32F10x_StdPeriph_Driver/src/stm32f10x_adc.c ****   if (NewState != DISABLE)
 668              		.loc 1 541 3 view .LVU189
 669              		.loc 1 541 6 is_stmt 0 view .LVU190
 670 0000 21B1     		cbz	r1, .L41
 542:./Libraries/STM32F10x_StdPeriph_Driver/src/stm32f10x_adc.c ****   {
 543:./Libraries/STM32F10x_StdPeriph_Driver/src/stm32f10x_adc.c ****     /* Enable the selected ADC regular discontinuous mode */
ARM GAS  /tmp/cci4pFLa.s 			page 22


 544:./Libraries/STM32F10x_StdPeriph_Driver/src/stm32f10x_adc.c ****     ADCx->CR1 |= CR1_DISCEN_Set;
 671              		.loc 1 544 5 is_stmt 1 view .LVU191
 672              		.loc 1 544 15 is_stmt 0 view .LVU192
 673 0002 4368     		ldr	r3, [r0, #4]
 674 0004 43F40063 		orr	r3, r3, #2048
 675 0008 4360     		str	r3, [r0, #4]
 676 000a 7047     		bx	lr
 677              	.L41:
 545:./Libraries/STM32F10x_StdPeriph_Driver/src/stm32f10x_adc.c ****   }
 546:./Libraries/STM32F10x_StdPeriph_Driver/src/stm32f10x_adc.c ****   else
 547:./Libraries/STM32F10x_StdPeriph_Driver/src/stm32f10x_adc.c ****   {
 548:./Libraries/STM32F10x_StdPeriph_Driver/src/stm32f10x_adc.c ****     /* Disable the selected ADC regular discontinuous mode */
 549:./Libraries/STM32F10x_StdPeriph_Driver/src/stm32f10x_adc.c ****     ADCx->CR1 &= CR1_DISCEN_Reset;
 678              		.loc 1 549 5 is_stmt 1 view .LVU193
 679              		.loc 1 549 15 is_stmt 0 view .LVU194
 680 000c 4368     		ldr	r3, [r0, #4]
 681 000e 23F40063 		bic	r3, r3, #2048
 682 0012 4360     		str	r3, [r0, #4]
 550:./Libraries/STM32F10x_StdPeriph_Driver/src/stm32f10x_adc.c ****   }
 551:./Libraries/STM32F10x_StdPeriph_Driver/src/stm32f10x_adc.c **** }
 683              		.loc 1 551 1 view .LVU195
 684 0014 7047     		bx	lr
 685              		.cfi_endproc
 686              	.LFE42:
 688              		.section	.text.ADC_RegularChannelConfig,"ax",%progbits
 689              		.align	1
 690              		.global	ADC_RegularChannelConfig
 691              		.syntax unified
 692              		.thumb
 693              		.thumb_func
 694              		.fpu softvfp
 696              	ADC_RegularChannelConfig:
 697              	.LVL56:
 698              	.LFB43:
 552:./Libraries/STM32F10x_StdPeriph_Driver/src/stm32f10x_adc.c **** 
 553:./Libraries/STM32F10x_StdPeriph_Driver/src/stm32f10x_adc.c **** /**
 554:./Libraries/STM32F10x_StdPeriph_Driver/src/stm32f10x_adc.c ****   * @brief  Configures for the selected ADC regular channel its corresponding
 555:./Libraries/STM32F10x_StdPeriph_Driver/src/stm32f10x_adc.c ****   *         rank in the sequencer and its sample time.
 556:./Libraries/STM32F10x_StdPeriph_Driver/src/stm32f10x_adc.c ****   * @param  ADCx: where x can be 1, 2 or 3 to select the ADC peripheral.
 557:./Libraries/STM32F10x_StdPeriph_Driver/src/stm32f10x_adc.c ****   * @param  ADC_Channel: the ADC channel to configure. 
 558:./Libraries/STM32F10x_StdPeriph_Driver/src/stm32f10x_adc.c ****   *   This parameter can be one of the following values:
 559:./Libraries/STM32F10x_StdPeriph_Driver/src/stm32f10x_adc.c ****   *     @arg ADC_Channel_0: ADC Channel0 selected
 560:./Libraries/STM32F10x_StdPeriph_Driver/src/stm32f10x_adc.c ****   *     @arg ADC_Channel_1: ADC Channel1 selected
 561:./Libraries/STM32F10x_StdPeriph_Driver/src/stm32f10x_adc.c ****   *     @arg ADC_Channel_2: ADC Channel2 selected
 562:./Libraries/STM32F10x_StdPeriph_Driver/src/stm32f10x_adc.c ****   *     @arg ADC_Channel_3: ADC Channel3 selected
 563:./Libraries/STM32F10x_StdPeriph_Driver/src/stm32f10x_adc.c ****   *     @arg ADC_Channel_4: ADC Channel4 selected
 564:./Libraries/STM32F10x_StdPeriph_Driver/src/stm32f10x_adc.c ****   *     @arg ADC_Channel_5: ADC Channel5 selected
 565:./Libraries/STM32F10x_StdPeriph_Driver/src/stm32f10x_adc.c ****   *     @arg ADC_Channel_6: ADC Channel6 selected
 566:./Libraries/STM32F10x_StdPeriph_Driver/src/stm32f10x_adc.c ****   *     @arg ADC_Channel_7: ADC Channel7 selected
 567:./Libraries/STM32F10x_StdPeriph_Driver/src/stm32f10x_adc.c ****   *     @arg ADC_Channel_8: ADC Channel8 selected
 568:./Libraries/STM32F10x_StdPeriph_Driver/src/stm32f10x_adc.c ****   *     @arg ADC_Channel_9: ADC Channel9 selected
 569:./Libraries/STM32F10x_StdPeriph_Driver/src/stm32f10x_adc.c ****   *     @arg ADC_Channel_10: ADC Channel10 selected
 570:./Libraries/STM32F10x_StdPeriph_Driver/src/stm32f10x_adc.c ****   *     @arg ADC_Channel_11: ADC Channel11 selected
 571:./Libraries/STM32F10x_StdPeriph_Driver/src/stm32f10x_adc.c ****   *     @arg ADC_Channel_12: ADC Channel12 selected
 572:./Libraries/STM32F10x_StdPeriph_Driver/src/stm32f10x_adc.c ****   *     @arg ADC_Channel_13: ADC Channel13 selected
 573:./Libraries/STM32F10x_StdPeriph_Driver/src/stm32f10x_adc.c ****   *     @arg ADC_Channel_14: ADC Channel14 selected
 574:./Libraries/STM32F10x_StdPeriph_Driver/src/stm32f10x_adc.c ****   *     @arg ADC_Channel_15: ADC Channel15 selected
ARM GAS  /tmp/cci4pFLa.s 			page 23


 575:./Libraries/STM32F10x_StdPeriph_Driver/src/stm32f10x_adc.c ****   *     @arg ADC_Channel_16: ADC Channel16 selected
 576:./Libraries/STM32F10x_StdPeriph_Driver/src/stm32f10x_adc.c ****   *     @arg ADC_Channel_17: ADC Channel17 selected
 577:./Libraries/STM32F10x_StdPeriph_Driver/src/stm32f10x_adc.c ****   * @param  Rank: The rank in the regular group sequencer. This parameter must be between 1 to 16.
 578:./Libraries/STM32F10x_StdPeriph_Driver/src/stm32f10x_adc.c ****   * @param  ADC_SampleTime: The sample time value to be set for the selected channel. 
 579:./Libraries/STM32F10x_StdPeriph_Driver/src/stm32f10x_adc.c ****   *   This parameter can be one of the following values:
 580:./Libraries/STM32F10x_StdPeriph_Driver/src/stm32f10x_adc.c ****   *     @arg ADC_SampleTime_1Cycles5: Sample time equal to 1.5 cycles
 581:./Libraries/STM32F10x_StdPeriph_Driver/src/stm32f10x_adc.c ****   *     @arg ADC_SampleTime_7Cycles5: Sample time equal to 7.5 cycles
 582:./Libraries/STM32F10x_StdPeriph_Driver/src/stm32f10x_adc.c ****   *     @arg ADC_SampleTime_13Cycles5: Sample time equal to 13.5 cycles
 583:./Libraries/STM32F10x_StdPeriph_Driver/src/stm32f10x_adc.c ****   *     @arg ADC_SampleTime_28Cycles5: Sample time equal to 28.5 cycles	
 584:./Libraries/STM32F10x_StdPeriph_Driver/src/stm32f10x_adc.c ****   *     @arg ADC_SampleTime_41Cycles5: Sample time equal to 41.5 cycles	
 585:./Libraries/STM32F10x_StdPeriph_Driver/src/stm32f10x_adc.c ****   *     @arg ADC_SampleTime_55Cycles5: Sample time equal to 55.5 cycles	
 586:./Libraries/STM32F10x_StdPeriph_Driver/src/stm32f10x_adc.c ****   *     @arg ADC_SampleTime_71Cycles5: Sample time equal to 71.5 cycles	
 587:./Libraries/STM32F10x_StdPeriph_Driver/src/stm32f10x_adc.c ****   *     @arg ADC_SampleTime_239Cycles5: Sample time equal to 239.5 cycles	
 588:./Libraries/STM32F10x_StdPeriph_Driver/src/stm32f10x_adc.c ****   * @retval None
 589:./Libraries/STM32F10x_StdPeriph_Driver/src/stm32f10x_adc.c ****   */
 590:./Libraries/STM32F10x_StdPeriph_Driver/src/stm32f10x_adc.c **** void ADC_RegularChannelConfig(ADC_TypeDef* ADCx, uint8_t ADC_Channel, uint8_t Rank, uint8_t ADC_Sam
 591:./Libraries/STM32F10x_StdPeriph_Driver/src/stm32f10x_adc.c **** {
 699              		.loc 1 591 1 is_stmt 1 view -0
 700              		.cfi_startproc
 701              		@ args = 0, pretend = 0, frame = 0
 702              		@ frame_needed = 0, uses_anonymous_args = 0
 703              		.loc 1 591 1 is_stmt 0 view .LVU197
 704 0000 10B5     		push	{r4, lr}
 705              	.LCFI3:
 706              		.cfi_def_cfa_offset 8
 707              		.cfi_offset 4, -8
 708              		.cfi_offset 14, -4
 592:./Libraries/STM32F10x_StdPeriph_Driver/src/stm32f10x_adc.c ****   uint32_t tmpreg1 = 0, tmpreg2 = 0;
 709              		.loc 1 592 3 is_stmt 1 view .LVU198
 710              	.LVL57:
 593:./Libraries/STM32F10x_StdPeriph_Driver/src/stm32f10x_adc.c ****   /* Check the parameters */
 594:./Libraries/STM32F10x_StdPeriph_Driver/src/stm32f10x_adc.c ****   assert_param(IS_ADC_ALL_PERIPH(ADCx));
 711              		.loc 1 594 3 view .LVU199
 595:./Libraries/STM32F10x_StdPeriph_Driver/src/stm32f10x_adc.c ****   assert_param(IS_ADC_CHANNEL(ADC_Channel));
 712              		.loc 1 595 3 view .LVU200
 596:./Libraries/STM32F10x_StdPeriph_Driver/src/stm32f10x_adc.c ****   assert_param(IS_ADC_REGULAR_RANK(Rank));
 713              		.loc 1 596 3 view .LVU201
 597:./Libraries/STM32F10x_StdPeriph_Driver/src/stm32f10x_adc.c ****   assert_param(IS_ADC_SAMPLE_TIME(ADC_SampleTime));
 714              		.loc 1 597 3 view .LVU202
 598:./Libraries/STM32F10x_StdPeriph_Driver/src/stm32f10x_adc.c ****   /* if ADC_Channel_10 ... ADC_Channel_17 is selected */
 599:./Libraries/STM32F10x_StdPeriph_Driver/src/stm32f10x_adc.c ****   if (ADC_Channel > ADC_Channel_9)
 715              		.loc 1 599 3 view .LVU203
 716              		.loc 1 599 6 is_stmt 0 view .LVU204
 717 0002 0929     		cmp	r1, #9
 718 0004 1DD9     		bls	.L44
 600:./Libraries/STM32F10x_StdPeriph_Driver/src/stm32f10x_adc.c ****   {
 601:./Libraries/STM32F10x_StdPeriph_Driver/src/stm32f10x_adc.c ****     /* Get the old register value */
 602:./Libraries/STM32F10x_StdPeriph_Driver/src/stm32f10x_adc.c ****     tmpreg1 = ADCx->SMPR1;
 719              		.loc 1 602 5 is_stmt 1 view .LVU205
 720              		.loc 1 602 13 is_stmt 0 view .LVU206
 721 0006 C468     		ldr	r4, [r0, #12]
 722              	.LVL58:
 603:./Libraries/STM32F10x_StdPeriph_Driver/src/stm32f10x_adc.c ****     /* Calculate the mask to clear */
 604:./Libraries/STM32F10x_StdPeriph_Driver/src/stm32f10x_adc.c ****     tmpreg2 = SMPR1_SMP_Set << (3 * (ADC_Channel - 10));
 723              		.loc 1 604 5 is_stmt 1 view .LVU207
 724              		.loc 1 604 50 is_stmt 0 view .LVU208
 725 0008 A1F10A0C 		sub	ip, r1, #10
ARM GAS  /tmp/cci4pFLa.s 			page 24


 726              		.loc 1 604 35 view .LVU209
 727 000c 0CEB4C0C 		add	ip, ip, ip, lsl #1
 728              		.loc 1 604 13 view .LVU210
 729 0010 4FF0070E 		mov	lr, #7
 730 0014 0EFA0CFE 		lsl	lr, lr, ip
 731              	.LVL59:
 605:./Libraries/STM32F10x_StdPeriph_Driver/src/stm32f10x_adc.c ****     /* Clear the old channel sample time */
 606:./Libraries/STM32F10x_StdPeriph_Driver/src/stm32f10x_adc.c ****     tmpreg1 &= ~tmpreg2;
 732              		.loc 1 606 5 is_stmt 1 view .LVU211
 733              		.loc 1 606 13 is_stmt 0 view .LVU212
 734 0018 24EA0E04 		bic	r4, r4, lr
 735              	.LVL60:
 607:./Libraries/STM32F10x_StdPeriph_Driver/src/stm32f10x_adc.c ****     /* Calculate the mask to set */
 608:./Libraries/STM32F10x_StdPeriph_Driver/src/stm32f10x_adc.c ****     tmpreg2 = (uint32_t)ADC_SampleTime << (3 * (ADC_Channel - 10));
 736              		.loc 1 608 5 is_stmt 1 view .LVU213
 737              		.loc 1 608 13 is_stmt 0 view .LVU214
 738 001c 03FA0CF3 		lsl	r3, r3, ip
 739              	.LVL61:
 609:./Libraries/STM32F10x_StdPeriph_Driver/src/stm32f10x_adc.c ****     /* Set the new channel sample time */
 610:./Libraries/STM32F10x_StdPeriph_Driver/src/stm32f10x_adc.c ****     tmpreg1 |= tmpreg2;
 740              		.loc 1 610 5 is_stmt 1 view .LVU215
 741              		.loc 1 610 13 is_stmt 0 view .LVU216
 742 0020 2343     		orrs	r3, r3, r4
 743              	.LVL62:
 611:./Libraries/STM32F10x_StdPeriph_Driver/src/stm32f10x_adc.c ****     /* Store the new register value */
 612:./Libraries/STM32F10x_StdPeriph_Driver/src/stm32f10x_adc.c ****     ADCx->SMPR1 = tmpreg1;
 744              		.loc 1 612 5 is_stmt 1 view .LVU217
 745              		.loc 1 612 17 is_stmt 0 view .LVU218
 746 0022 C360     		str	r3, [r0, #12]
 747              	.L45:
 613:./Libraries/STM32F10x_StdPeriph_Driver/src/stm32f10x_adc.c ****   }
 614:./Libraries/STM32F10x_StdPeriph_Driver/src/stm32f10x_adc.c ****   else /* ADC_Channel include in ADC_Channel_[0..9] */
 615:./Libraries/STM32F10x_StdPeriph_Driver/src/stm32f10x_adc.c ****   {
 616:./Libraries/STM32F10x_StdPeriph_Driver/src/stm32f10x_adc.c ****     /* Get the old register value */
 617:./Libraries/STM32F10x_StdPeriph_Driver/src/stm32f10x_adc.c ****     tmpreg1 = ADCx->SMPR2;
 618:./Libraries/STM32F10x_StdPeriph_Driver/src/stm32f10x_adc.c ****     /* Calculate the mask to clear */
 619:./Libraries/STM32F10x_StdPeriph_Driver/src/stm32f10x_adc.c ****     tmpreg2 = SMPR2_SMP_Set << (3 * ADC_Channel);
 620:./Libraries/STM32F10x_StdPeriph_Driver/src/stm32f10x_adc.c ****     /* Clear the old channel sample time */
 621:./Libraries/STM32F10x_StdPeriph_Driver/src/stm32f10x_adc.c ****     tmpreg1 &= ~tmpreg2;
 622:./Libraries/STM32F10x_StdPeriph_Driver/src/stm32f10x_adc.c ****     /* Calculate the mask to set */
 623:./Libraries/STM32F10x_StdPeriph_Driver/src/stm32f10x_adc.c ****     tmpreg2 = (uint32_t)ADC_SampleTime << (3 * ADC_Channel);
 624:./Libraries/STM32F10x_StdPeriph_Driver/src/stm32f10x_adc.c ****     /* Set the new channel sample time */
 625:./Libraries/STM32F10x_StdPeriph_Driver/src/stm32f10x_adc.c ****     tmpreg1 |= tmpreg2;
 626:./Libraries/STM32F10x_StdPeriph_Driver/src/stm32f10x_adc.c ****     /* Store the new register value */
 627:./Libraries/STM32F10x_StdPeriph_Driver/src/stm32f10x_adc.c ****     ADCx->SMPR2 = tmpreg1;
 628:./Libraries/STM32F10x_StdPeriph_Driver/src/stm32f10x_adc.c ****   }
 629:./Libraries/STM32F10x_StdPeriph_Driver/src/stm32f10x_adc.c ****   /* For Rank 1 to 6 */
 630:./Libraries/STM32F10x_StdPeriph_Driver/src/stm32f10x_adc.c ****   if (Rank < 7)
 748              		.loc 1 630 3 is_stmt 1 view .LVU219
 749              		.loc 1 630 6 is_stmt 0 view .LVU220
 750 0024 062A     		cmp	r2, #6
 751 0026 1BD8     		bhi	.L46
 631:./Libraries/STM32F10x_StdPeriph_Driver/src/stm32f10x_adc.c ****   {
 632:./Libraries/STM32F10x_StdPeriph_Driver/src/stm32f10x_adc.c ****     /* Get the old register value */
 633:./Libraries/STM32F10x_StdPeriph_Driver/src/stm32f10x_adc.c ****     tmpreg1 = ADCx->SQR3;
 752              		.loc 1 633 5 is_stmt 1 view .LVU221
 753              		.loc 1 633 13 is_stmt 0 view .LVU222
ARM GAS  /tmp/cci4pFLa.s 			page 25


 754 0028 436B     		ldr	r3, [r0, #52]
 755              	.LVL63:
 634:./Libraries/STM32F10x_StdPeriph_Driver/src/stm32f10x_adc.c ****     /* Calculate the mask to clear */
 635:./Libraries/STM32F10x_StdPeriph_Driver/src/stm32f10x_adc.c ****     tmpreg2 = SQR3_SQ_Set << (5 * (Rank - 1));
 756              		.loc 1 635 5 is_stmt 1 view .LVU223
 757              		.loc 1 635 41 is_stmt 0 view .LVU224
 758 002a 013A     		subs	r2, r2, #1
 759              	.LVL64:
 760              		.loc 1 635 33 view .LVU225
 761 002c 02EB8202 		add	r2, r2, r2, lsl #2
 762              		.loc 1 635 13 view .LVU226
 763 0030 1F24     		movs	r4, #31
 764 0032 9440     		lsls	r4, r4, r2
 765              	.LVL65:
 636:./Libraries/STM32F10x_StdPeriph_Driver/src/stm32f10x_adc.c ****     /* Clear the old SQx bits for the selected rank */
 637:./Libraries/STM32F10x_StdPeriph_Driver/src/stm32f10x_adc.c ****     tmpreg1 &= ~tmpreg2;
 766              		.loc 1 637 5 is_stmt 1 view .LVU227
 767              		.loc 1 637 13 is_stmt 0 view .LVU228
 768 0034 23EA0403 		bic	r3, r3, r4
 769              	.LVL66:
 638:./Libraries/STM32F10x_StdPeriph_Driver/src/stm32f10x_adc.c ****     /* Calculate the mask to set */
 639:./Libraries/STM32F10x_StdPeriph_Driver/src/stm32f10x_adc.c ****     tmpreg2 = (uint32_t)ADC_Channel << (5 * (Rank - 1));
 770              		.loc 1 639 5 is_stmt 1 view .LVU229
 771              		.loc 1 639 13 is_stmt 0 view .LVU230
 772 0038 01FA02F2 		lsl	r2, r1, r2
 773              	.LVL67:
 640:./Libraries/STM32F10x_StdPeriph_Driver/src/stm32f10x_adc.c ****     /* Set the SQx bits for the selected rank */
 641:./Libraries/STM32F10x_StdPeriph_Driver/src/stm32f10x_adc.c ****     tmpreg1 |= tmpreg2;
 774              		.loc 1 641 5 is_stmt 1 view .LVU231
 775              		.loc 1 641 13 is_stmt 0 view .LVU232
 776 003c 1A43     		orrs	r2, r2, r3
 777              	.LVL68:
 642:./Libraries/STM32F10x_StdPeriph_Driver/src/stm32f10x_adc.c ****     /* Store the new register value */
 643:./Libraries/STM32F10x_StdPeriph_Driver/src/stm32f10x_adc.c ****     ADCx->SQR3 = tmpreg1;
 778              		.loc 1 643 5 is_stmt 1 view .LVU233
 779              		.loc 1 643 16 is_stmt 0 view .LVU234
 780 003e 4263     		str	r2, [r0, #52]
 781              	.L43:
 644:./Libraries/STM32F10x_StdPeriph_Driver/src/stm32f10x_adc.c ****   }
 645:./Libraries/STM32F10x_StdPeriph_Driver/src/stm32f10x_adc.c ****   /* For Rank 7 to 12 */
 646:./Libraries/STM32F10x_StdPeriph_Driver/src/stm32f10x_adc.c ****   else if (Rank < 13)
 647:./Libraries/STM32F10x_StdPeriph_Driver/src/stm32f10x_adc.c ****   {
 648:./Libraries/STM32F10x_StdPeriph_Driver/src/stm32f10x_adc.c ****     /* Get the old register value */
 649:./Libraries/STM32F10x_StdPeriph_Driver/src/stm32f10x_adc.c ****     tmpreg1 = ADCx->SQR2;
 650:./Libraries/STM32F10x_StdPeriph_Driver/src/stm32f10x_adc.c ****     /* Calculate the mask to clear */
 651:./Libraries/STM32F10x_StdPeriph_Driver/src/stm32f10x_adc.c ****     tmpreg2 = SQR2_SQ_Set << (5 * (Rank - 7));
 652:./Libraries/STM32F10x_StdPeriph_Driver/src/stm32f10x_adc.c ****     /* Clear the old SQx bits for the selected rank */
 653:./Libraries/STM32F10x_StdPeriph_Driver/src/stm32f10x_adc.c ****     tmpreg1 &= ~tmpreg2;
 654:./Libraries/STM32F10x_StdPeriph_Driver/src/stm32f10x_adc.c ****     /* Calculate the mask to set */
 655:./Libraries/STM32F10x_StdPeriph_Driver/src/stm32f10x_adc.c ****     tmpreg2 = (uint32_t)ADC_Channel << (5 * (Rank - 7));
 656:./Libraries/STM32F10x_StdPeriph_Driver/src/stm32f10x_adc.c ****     /* Set the SQx bits for the selected rank */
 657:./Libraries/STM32F10x_StdPeriph_Driver/src/stm32f10x_adc.c ****     tmpreg1 |= tmpreg2;
 658:./Libraries/STM32F10x_StdPeriph_Driver/src/stm32f10x_adc.c ****     /* Store the new register value */
 659:./Libraries/STM32F10x_StdPeriph_Driver/src/stm32f10x_adc.c ****     ADCx->SQR2 = tmpreg1;
 660:./Libraries/STM32F10x_StdPeriph_Driver/src/stm32f10x_adc.c ****   }
 661:./Libraries/STM32F10x_StdPeriph_Driver/src/stm32f10x_adc.c ****   /* For Rank 13 to 16 */
 662:./Libraries/STM32F10x_StdPeriph_Driver/src/stm32f10x_adc.c ****   else
ARM GAS  /tmp/cci4pFLa.s 			page 26


 663:./Libraries/STM32F10x_StdPeriph_Driver/src/stm32f10x_adc.c ****   {
 664:./Libraries/STM32F10x_StdPeriph_Driver/src/stm32f10x_adc.c ****     /* Get the old register value */
 665:./Libraries/STM32F10x_StdPeriph_Driver/src/stm32f10x_adc.c ****     tmpreg1 = ADCx->SQR1;
 666:./Libraries/STM32F10x_StdPeriph_Driver/src/stm32f10x_adc.c ****     /* Calculate the mask to clear */
 667:./Libraries/STM32F10x_StdPeriph_Driver/src/stm32f10x_adc.c ****     tmpreg2 = SQR1_SQ_Set << (5 * (Rank - 13));
 668:./Libraries/STM32F10x_StdPeriph_Driver/src/stm32f10x_adc.c ****     /* Clear the old SQx bits for the selected rank */
 669:./Libraries/STM32F10x_StdPeriph_Driver/src/stm32f10x_adc.c ****     tmpreg1 &= ~tmpreg2;
 670:./Libraries/STM32F10x_StdPeriph_Driver/src/stm32f10x_adc.c ****     /* Calculate the mask to set */
 671:./Libraries/STM32F10x_StdPeriph_Driver/src/stm32f10x_adc.c ****     tmpreg2 = (uint32_t)ADC_Channel << (5 * (Rank - 13));
 672:./Libraries/STM32F10x_StdPeriph_Driver/src/stm32f10x_adc.c ****     /* Set the SQx bits for the selected rank */
 673:./Libraries/STM32F10x_StdPeriph_Driver/src/stm32f10x_adc.c ****     tmpreg1 |= tmpreg2;
 674:./Libraries/STM32F10x_StdPeriph_Driver/src/stm32f10x_adc.c ****     /* Store the new register value */
 675:./Libraries/STM32F10x_StdPeriph_Driver/src/stm32f10x_adc.c ****     ADCx->SQR1 = tmpreg1;
 676:./Libraries/STM32F10x_StdPeriph_Driver/src/stm32f10x_adc.c ****   }
 677:./Libraries/STM32F10x_StdPeriph_Driver/src/stm32f10x_adc.c **** }
 782              		.loc 1 677 1 view .LVU235
 783 0040 10BD     		pop	{r4, pc}
 784              	.LVL69:
 785              	.L44:
 617:./Libraries/STM32F10x_StdPeriph_Driver/src/stm32f10x_adc.c ****     /* Calculate the mask to clear */
 786              		.loc 1 617 5 is_stmt 1 view .LVU236
 617:./Libraries/STM32F10x_StdPeriph_Driver/src/stm32f10x_adc.c ****     /* Calculate the mask to clear */
 787              		.loc 1 617 13 is_stmt 0 view .LVU237
 788 0042 0469     		ldr	r4, [r0, #16]
 789              	.LVL70:
 619:./Libraries/STM32F10x_StdPeriph_Driver/src/stm32f10x_adc.c ****     /* Clear the old channel sample time */
 790              		.loc 1 619 5 is_stmt 1 view .LVU238
 619:./Libraries/STM32F10x_StdPeriph_Driver/src/stm32f10x_adc.c ****     /* Clear the old channel sample time */
 791              		.loc 1 619 35 is_stmt 0 view .LVU239
 792 0044 01EB410E 		add	lr, r1, r1, lsl #1
 619:./Libraries/STM32F10x_StdPeriph_Driver/src/stm32f10x_adc.c ****     /* Clear the old channel sample time */
 793              		.loc 1 619 13 view .LVU240
 794 0048 4FF0070C 		mov	ip, #7
 795 004c 0CFA0EFC 		lsl	ip, ip, lr
 796              	.LVL71:
 621:./Libraries/STM32F10x_StdPeriph_Driver/src/stm32f10x_adc.c ****     /* Calculate the mask to set */
 797              		.loc 1 621 5 is_stmt 1 view .LVU241
 621:./Libraries/STM32F10x_StdPeriph_Driver/src/stm32f10x_adc.c ****     /* Calculate the mask to set */
 798              		.loc 1 621 13 is_stmt 0 view .LVU242
 799 0050 24EA0C0C 		bic	ip, r4, ip
 800              	.LVL72:
 623:./Libraries/STM32F10x_StdPeriph_Driver/src/stm32f10x_adc.c ****     /* Set the new channel sample time */
 801              		.loc 1 623 5 is_stmt 1 view .LVU243
 623:./Libraries/STM32F10x_StdPeriph_Driver/src/stm32f10x_adc.c ****     /* Set the new channel sample time */
 802              		.loc 1 623 13 is_stmt 0 view .LVU244
 803 0054 03FA0EF3 		lsl	r3, r3, lr
 804              	.LVL73:
 625:./Libraries/STM32F10x_StdPeriph_Driver/src/stm32f10x_adc.c ****     /* Store the new register value */
 805              		.loc 1 625 5 is_stmt 1 view .LVU245
 625:./Libraries/STM32F10x_StdPeriph_Driver/src/stm32f10x_adc.c ****     /* Store the new register value */
 806              		.loc 1 625 13 is_stmt 0 view .LVU246
 807 0058 4CEA0303 		orr	r3, ip, r3
 808              	.LVL74:
 627:./Libraries/STM32F10x_StdPeriph_Driver/src/stm32f10x_adc.c ****   }
 809              		.loc 1 627 5 is_stmt 1 view .LVU247
 627:./Libraries/STM32F10x_StdPeriph_Driver/src/stm32f10x_adc.c ****   }
 810              		.loc 1 627 17 is_stmt 0 view .LVU248
ARM GAS  /tmp/cci4pFLa.s 			page 27


 811 005c 0361     		str	r3, [r0, #16]
 812 005e E1E7     		b	.L45
 813              	.L46:
 646:./Libraries/STM32F10x_StdPeriph_Driver/src/stm32f10x_adc.c ****   {
 814              		.loc 1 646 8 is_stmt 1 view .LVU249
 646:./Libraries/STM32F10x_StdPeriph_Driver/src/stm32f10x_adc.c ****   {
 815              		.loc 1 646 11 is_stmt 0 view .LVU250
 816 0060 0C2A     		cmp	r2, #12
 817 0062 0CD8     		bhi	.L48
 649:./Libraries/STM32F10x_StdPeriph_Driver/src/stm32f10x_adc.c ****     /* Calculate the mask to clear */
 818              		.loc 1 649 5 is_stmt 1 view .LVU251
 649:./Libraries/STM32F10x_StdPeriph_Driver/src/stm32f10x_adc.c ****     /* Calculate the mask to clear */
 819              		.loc 1 649 13 is_stmt 0 view .LVU252
 820 0064 036B     		ldr	r3, [r0, #48]
 821              	.LVL75:
 651:./Libraries/STM32F10x_StdPeriph_Driver/src/stm32f10x_adc.c ****     /* Clear the old SQx bits for the selected rank */
 822              		.loc 1 651 5 is_stmt 1 view .LVU253
 651:./Libraries/STM32F10x_StdPeriph_Driver/src/stm32f10x_adc.c ****     /* Clear the old SQx bits for the selected rank */
 823              		.loc 1 651 41 is_stmt 0 view .LVU254
 824 0066 073A     		subs	r2, r2, #7
 825              	.LVL76:
 651:./Libraries/STM32F10x_StdPeriph_Driver/src/stm32f10x_adc.c ****     /* Clear the old SQx bits for the selected rank */
 826              		.loc 1 651 33 view .LVU255
 827 0068 02EB8202 		add	r2, r2, r2, lsl #2
 651:./Libraries/STM32F10x_StdPeriph_Driver/src/stm32f10x_adc.c ****     /* Clear the old SQx bits for the selected rank */
 828              		.loc 1 651 13 view .LVU256
 829 006c 1F24     		movs	r4, #31
 830 006e 9440     		lsls	r4, r4, r2
 831              	.LVL77:
 653:./Libraries/STM32F10x_StdPeriph_Driver/src/stm32f10x_adc.c ****     /* Calculate the mask to set */
 832              		.loc 1 653 5 is_stmt 1 view .LVU257
 653:./Libraries/STM32F10x_StdPeriph_Driver/src/stm32f10x_adc.c ****     /* Calculate the mask to set */
 833              		.loc 1 653 13 is_stmt 0 view .LVU258
 834 0070 23EA0403 		bic	r3, r3, r4
 835              	.LVL78:
 655:./Libraries/STM32F10x_StdPeriph_Driver/src/stm32f10x_adc.c ****     /* Set the SQx bits for the selected rank */
 836              		.loc 1 655 5 is_stmt 1 view .LVU259
 655:./Libraries/STM32F10x_StdPeriph_Driver/src/stm32f10x_adc.c ****     /* Set the SQx bits for the selected rank */
 837              		.loc 1 655 13 is_stmt 0 view .LVU260
 838 0074 01FA02F2 		lsl	r2, r1, r2
 839              	.LVL79:
 657:./Libraries/STM32F10x_StdPeriph_Driver/src/stm32f10x_adc.c ****     /* Store the new register value */
 840              		.loc 1 657 5 is_stmt 1 view .LVU261
 657:./Libraries/STM32F10x_StdPeriph_Driver/src/stm32f10x_adc.c ****     /* Store the new register value */
 841              		.loc 1 657 13 is_stmt 0 view .LVU262
 842 0078 1A43     		orrs	r2, r2, r3
 843              	.LVL80:
 659:./Libraries/STM32F10x_StdPeriph_Driver/src/stm32f10x_adc.c ****   }
 844              		.loc 1 659 5 is_stmt 1 view .LVU263
 659:./Libraries/STM32F10x_StdPeriph_Driver/src/stm32f10x_adc.c ****   }
 845              		.loc 1 659 16 is_stmt 0 view .LVU264
 846 007a 0263     		str	r2, [r0, #48]
 847 007c E0E7     		b	.L43
 848              	.LVL81:
 849              	.L48:
 665:./Libraries/STM32F10x_StdPeriph_Driver/src/stm32f10x_adc.c ****     /* Calculate the mask to clear */
 850              		.loc 1 665 5 is_stmt 1 view .LVU265
ARM GAS  /tmp/cci4pFLa.s 			page 28


 665:./Libraries/STM32F10x_StdPeriph_Driver/src/stm32f10x_adc.c ****     /* Calculate the mask to clear */
 851              		.loc 1 665 13 is_stmt 0 view .LVU266
 852 007e C36A     		ldr	r3, [r0, #44]
 853              	.LVL82:
 667:./Libraries/STM32F10x_StdPeriph_Driver/src/stm32f10x_adc.c ****     /* Clear the old SQx bits for the selected rank */
 854              		.loc 1 667 5 is_stmt 1 view .LVU267
 667:./Libraries/STM32F10x_StdPeriph_Driver/src/stm32f10x_adc.c ****     /* Clear the old SQx bits for the selected rank */
 855              		.loc 1 667 41 is_stmt 0 view .LVU268
 856 0080 0D3A     		subs	r2, r2, #13
 857              	.LVL83:
 667:./Libraries/STM32F10x_StdPeriph_Driver/src/stm32f10x_adc.c ****     /* Clear the old SQx bits for the selected rank */
 858              		.loc 1 667 33 view .LVU269
 859 0082 02EB8202 		add	r2, r2, r2, lsl #2
 667:./Libraries/STM32F10x_StdPeriph_Driver/src/stm32f10x_adc.c ****     /* Clear the old SQx bits for the selected rank */
 860              		.loc 1 667 13 view .LVU270
 861 0086 1F24     		movs	r4, #31
 862 0088 9440     		lsls	r4, r4, r2
 863              	.LVL84:
 669:./Libraries/STM32F10x_StdPeriph_Driver/src/stm32f10x_adc.c ****     /* Calculate the mask to set */
 864              		.loc 1 669 5 is_stmt 1 view .LVU271
 669:./Libraries/STM32F10x_StdPeriph_Driver/src/stm32f10x_adc.c ****     /* Calculate the mask to set */
 865              		.loc 1 669 13 is_stmt 0 view .LVU272
 866 008a 23EA0403 		bic	r3, r3, r4
 867              	.LVL85:
 671:./Libraries/STM32F10x_StdPeriph_Driver/src/stm32f10x_adc.c ****     /* Set the SQx bits for the selected rank */
 868              		.loc 1 671 5 is_stmt 1 view .LVU273
 671:./Libraries/STM32F10x_StdPeriph_Driver/src/stm32f10x_adc.c ****     /* Set the SQx bits for the selected rank */
 869              		.loc 1 671 13 is_stmt 0 view .LVU274
 870 008e 01FA02F2 		lsl	r2, r1, r2
 871              	.LVL86:
 673:./Libraries/STM32F10x_StdPeriph_Driver/src/stm32f10x_adc.c ****     /* Store the new register value */
 872              		.loc 1 673 5 is_stmt 1 view .LVU275
 673:./Libraries/STM32F10x_StdPeriph_Driver/src/stm32f10x_adc.c ****     /* Store the new register value */
 873              		.loc 1 673 13 is_stmt 0 view .LVU276
 874 0092 1A43     		orrs	r2, r2, r3
 875              	.LVL87:
 675:./Libraries/STM32F10x_StdPeriph_Driver/src/stm32f10x_adc.c ****   }
 876              		.loc 1 675 5 is_stmt 1 view .LVU277
 675:./Libraries/STM32F10x_StdPeriph_Driver/src/stm32f10x_adc.c ****   }
 877              		.loc 1 675 16 is_stmt 0 view .LVU278
 878 0094 C262     		str	r2, [r0, #44]
 879              		.loc 1 677 1 view .LVU279
 880 0096 D3E7     		b	.L43
 881              		.cfi_endproc
 882              	.LFE43:
 884              		.section	.text.ADC_ExternalTrigConvCmd,"ax",%progbits
 885              		.align	1
 886              		.global	ADC_ExternalTrigConvCmd
 887              		.syntax unified
 888              		.thumb
 889              		.thumb_func
 890              		.fpu softvfp
 892              	ADC_ExternalTrigConvCmd:
 893              	.LVL88:
 894              	.LFB44:
 678:./Libraries/STM32F10x_StdPeriph_Driver/src/stm32f10x_adc.c **** 
 679:./Libraries/STM32F10x_StdPeriph_Driver/src/stm32f10x_adc.c **** /**
ARM GAS  /tmp/cci4pFLa.s 			page 29


 680:./Libraries/STM32F10x_StdPeriph_Driver/src/stm32f10x_adc.c ****   * @brief  Enables or disables the ADCx conversion through external trigger.
 681:./Libraries/STM32F10x_StdPeriph_Driver/src/stm32f10x_adc.c ****   * @param  ADCx: where x can be 1, 2 or 3 to select the ADC peripheral.
 682:./Libraries/STM32F10x_StdPeriph_Driver/src/stm32f10x_adc.c ****   * @param  NewState: new state of the selected ADC external trigger start of conversion.
 683:./Libraries/STM32F10x_StdPeriph_Driver/src/stm32f10x_adc.c ****   *   This parameter can be: ENABLE or DISABLE.
 684:./Libraries/STM32F10x_StdPeriph_Driver/src/stm32f10x_adc.c ****   * @retval None
 685:./Libraries/STM32F10x_StdPeriph_Driver/src/stm32f10x_adc.c ****   */
 686:./Libraries/STM32F10x_StdPeriph_Driver/src/stm32f10x_adc.c **** void ADC_ExternalTrigConvCmd(ADC_TypeDef* ADCx, FunctionalState NewState)
 687:./Libraries/STM32F10x_StdPeriph_Driver/src/stm32f10x_adc.c **** {
 895              		.loc 1 687 1 is_stmt 1 view -0
 896              		.cfi_startproc
 897              		@ args = 0, pretend = 0, frame = 0
 898              		@ frame_needed = 0, uses_anonymous_args = 0
 899              		@ link register save eliminated.
 688:./Libraries/STM32F10x_StdPeriph_Driver/src/stm32f10x_adc.c ****   /* Check the parameters */
 689:./Libraries/STM32F10x_StdPeriph_Driver/src/stm32f10x_adc.c ****   assert_param(IS_ADC_ALL_PERIPH(ADCx));
 900              		.loc 1 689 3 view .LVU281
 690:./Libraries/STM32F10x_StdPeriph_Driver/src/stm32f10x_adc.c ****   assert_param(IS_FUNCTIONAL_STATE(NewState));
 901              		.loc 1 690 3 view .LVU282
 691:./Libraries/STM32F10x_StdPeriph_Driver/src/stm32f10x_adc.c ****   if (NewState != DISABLE)
 902              		.loc 1 691 3 view .LVU283
 903              		.loc 1 691 6 is_stmt 0 view .LVU284
 904 0000 21B1     		cbz	r1, .L51
 692:./Libraries/STM32F10x_StdPeriph_Driver/src/stm32f10x_adc.c ****   {
 693:./Libraries/STM32F10x_StdPeriph_Driver/src/stm32f10x_adc.c ****     /* Enable the selected ADC conversion on external event */
 694:./Libraries/STM32F10x_StdPeriph_Driver/src/stm32f10x_adc.c ****     ADCx->CR2 |= CR2_EXTTRIG_Set;
 905              		.loc 1 694 5 is_stmt 1 view .LVU285
 906              		.loc 1 694 15 is_stmt 0 view .LVU286
 907 0002 8368     		ldr	r3, [r0, #8]
 908 0004 43F48013 		orr	r3, r3, #1048576
 909 0008 8360     		str	r3, [r0, #8]
 910 000a 7047     		bx	lr
 911              	.L51:
 695:./Libraries/STM32F10x_StdPeriph_Driver/src/stm32f10x_adc.c ****   }
 696:./Libraries/STM32F10x_StdPeriph_Driver/src/stm32f10x_adc.c ****   else
 697:./Libraries/STM32F10x_StdPeriph_Driver/src/stm32f10x_adc.c ****   {
 698:./Libraries/STM32F10x_StdPeriph_Driver/src/stm32f10x_adc.c ****     /* Disable the selected ADC conversion on external event */
 699:./Libraries/STM32F10x_StdPeriph_Driver/src/stm32f10x_adc.c ****     ADCx->CR2 &= CR2_EXTTRIG_Reset;
 912              		.loc 1 699 5 is_stmt 1 view .LVU287
 913              		.loc 1 699 15 is_stmt 0 view .LVU288
 914 000c 8368     		ldr	r3, [r0, #8]
 915 000e 23F48013 		bic	r3, r3, #1048576
 916 0012 8360     		str	r3, [r0, #8]
 700:./Libraries/STM32F10x_StdPeriph_Driver/src/stm32f10x_adc.c ****   }
 701:./Libraries/STM32F10x_StdPeriph_Driver/src/stm32f10x_adc.c **** }
 917              		.loc 1 701 1 view .LVU289
 918 0014 7047     		bx	lr
 919              		.cfi_endproc
 920              	.LFE44:
 922              		.section	.text.ADC_GetConversionValue,"ax",%progbits
 923              		.align	1
 924              		.global	ADC_GetConversionValue
 925              		.syntax unified
 926              		.thumb
 927              		.thumb_func
 928              		.fpu softvfp
 930              	ADC_GetConversionValue:
 931              	.LVL89:
ARM GAS  /tmp/cci4pFLa.s 			page 30


 932              	.LFB45:
 702:./Libraries/STM32F10x_StdPeriph_Driver/src/stm32f10x_adc.c **** 
 703:./Libraries/STM32F10x_StdPeriph_Driver/src/stm32f10x_adc.c **** /**
 704:./Libraries/STM32F10x_StdPeriph_Driver/src/stm32f10x_adc.c ****   * @brief  Returns the last ADCx conversion result data for regular channel.
 705:./Libraries/STM32F10x_StdPeriph_Driver/src/stm32f10x_adc.c ****   * @param  ADCx: where x can be 1, 2 or 3 to select the ADC peripheral.
 706:./Libraries/STM32F10x_StdPeriph_Driver/src/stm32f10x_adc.c ****   * @retval The Data conversion value.
 707:./Libraries/STM32F10x_StdPeriph_Driver/src/stm32f10x_adc.c ****   */
 708:./Libraries/STM32F10x_StdPeriph_Driver/src/stm32f10x_adc.c **** uint16_t ADC_GetConversionValue(ADC_TypeDef* ADCx)
 709:./Libraries/STM32F10x_StdPeriph_Driver/src/stm32f10x_adc.c **** {
 933              		.loc 1 709 1 is_stmt 1 view -0
 934              		.cfi_startproc
 935              		@ args = 0, pretend = 0, frame = 0
 936              		@ frame_needed = 0, uses_anonymous_args = 0
 937              		@ link register save eliminated.
 710:./Libraries/STM32F10x_StdPeriph_Driver/src/stm32f10x_adc.c ****   /* Check the parameters */
 711:./Libraries/STM32F10x_StdPeriph_Driver/src/stm32f10x_adc.c ****   assert_param(IS_ADC_ALL_PERIPH(ADCx));
 938              		.loc 1 711 3 view .LVU291
 712:./Libraries/STM32F10x_StdPeriph_Driver/src/stm32f10x_adc.c ****   /* Return the selected ADC conversion value */
 713:./Libraries/STM32F10x_StdPeriph_Driver/src/stm32f10x_adc.c ****   return (uint16_t) ADCx->DR;
 939              		.loc 1 713 3 view .LVU292
 940              		.loc 1 713 25 is_stmt 0 view .LVU293
 941 0000 C06C     		ldr	r0, [r0, #76]
 942              	.LVL90:
 714:./Libraries/STM32F10x_StdPeriph_Driver/src/stm32f10x_adc.c **** }
 943              		.loc 1 714 1 view .LVU294
 944 0002 80B2     		uxth	r0, r0
 945 0004 7047     		bx	lr
 946              		.cfi_endproc
 947              	.LFE45:
 949              		.section	.text.ADC_GetDualModeConversionValue,"ax",%progbits
 950              		.align	1
 951              		.global	ADC_GetDualModeConversionValue
 952              		.syntax unified
 953              		.thumb
 954              		.thumb_func
 955              		.fpu softvfp
 957              	ADC_GetDualModeConversionValue:
 958              	.LFB46:
 715:./Libraries/STM32F10x_StdPeriph_Driver/src/stm32f10x_adc.c **** 
 716:./Libraries/STM32F10x_StdPeriph_Driver/src/stm32f10x_adc.c **** /**
 717:./Libraries/STM32F10x_StdPeriph_Driver/src/stm32f10x_adc.c ****   * @brief  Returns the last ADC1 and ADC2 conversion result data in dual mode.
 718:./Libraries/STM32F10x_StdPeriph_Driver/src/stm32f10x_adc.c ****   * @retval The Data conversion value.
 719:./Libraries/STM32F10x_StdPeriph_Driver/src/stm32f10x_adc.c ****   */
 720:./Libraries/STM32F10x_StdPeriph_Driver/src/stm32f10x_adc.c **** uint32_t ADC_GetDualModeConversionValue(void)
 721:./Libraries/STM32F10x_StdPeriph_Driver/src/stm32f10x_adc.c **** {
 959              		.loc 1 721 1 is_stmt 1 view -0
 960              		.cfi_startproc
 961              		@ args = 0, pretend = 0, frame = 0
 962              		@ frame_needed = 0, uses_anonymous_args = 0
 963              		@ link register save eliminated.
 722:./Libraries/STM32F10x_StdPeriph_Driver/src/stm32f10x_adc.c ****   /* Return the dual mode conversion value */
 723:./Libraries/STM32F10x_StdPeriph_Driver/src/stm32f10x_adc.c ****   return (*(__IO uint32_t *) DR_ADDRESS);
 964              		.loc 1 723 3 view .LVU296
 965              		.loc 1 723 11 is_stmt 0 view .LVU297
 966 0000 014B     		ldr	r3, .L55
 967 0002 D3F84C04 		ldr	r0, [r3, #1100]
 724:./Libraries/STM32F10x_StdPeriph_Driver/src/stm32f10x_adc.c **** }
ARM GAS  /tmp/cci4pFLa.s 			page 31


 968              		.loc 1 724 1 view .LVU298
 969 0006 7047     		bx	lr
 970              	.L56:
 971              		.align	2
 972              	.L55:
 973 0008 00200140 		.word	1073815552
 974              		.cfi_endproc
 975              	.LFE46:
 977              		.section	.text.ADC_AutoInjectedConvCmd,"ax",%progbits
 978              		.align	1
 979              		.global	ADC_AutoInjectedConvCmd
 980              		.syntax unified
 981              		.thumb
 982              		.thumb_func
 983              		.fpu softvfp
 985              	ADC_AutoInjectedConvCmd:
 986              	.LVL91:
 987              	.LFB47:
 725:./Libraries/STM32F10x_StdPeriph_Driver/src/stm32f10x_adc.c **** 
 726:./Libraries/STM32F10x_StdPeriph_Driver/src/stm32f10x_adc.c **** /**
 727:./Libraries/STM32F10x_StdPeriph_Driver/src/stm32f10x_adc.c ****   * @brief  Enables or disables the selected ADC automatic injected group
 728:./Libraries/STM32F10x_StdPeriph_Driver/src/stm32f10x_adc.c ****   *         conversion after regular one.
 729:./Libraries/STM32F10x_StdPeriph_Driver/src/stm32f10x_adc.c ****   * @param  ADCx: where x can be 1, 2 or 3 to select the ADC peripheral.
 730:./Libraries/STM32F10x_StdPeriph_Driver/src/stm32f10x_adc.c ****   * @param  NewState: new state of the selected ADC auto injected conversion
 731:./Libraries/STM32F10x_StdPeriph_Driver/src/stm32f10x_adc.c ****   *   This parameter can be: ENABLE or DISABLE.
 732:./Libraries/STM32F10x_StdPeriph_Driver/src/stm32f10x_adc.c ****   * @retval None
 733:./Libraries/STM32F10x_StdPeriph_Driver/src/stm32f10x_adc.c ****   */
 734:./Libraries/STM32F10x_StdPeriph_Driver/src/stm32f10x_adc.c **** void ADC_AutoInjectedConvCmd(ADC_TypeDef* ADCx, FunctionalState NewState)
 735:./Libraries/STM32F10x_StdPeriph_Driver/src/stm32f10x_adc.c **** {
 988              		.loc 1 735 1 is_stmt 1 view -0
 989              		.cfi_startproc
 990              		@ args = 0, pretend = 0, frame = 0
 991              		@ frame_needed = 0, uses_anonymous_args = 0
 992              		@ link register save eliminated.
 736:./Libraries/STM32F10x_StdPeriph_Driver/src/stm32f10x_adc.c ****   /* Check the parameters */
 737:./Libraries/STM32F10x_StdPeriph_Driver/src/stm32f10x_adc.c ****   assert_param(IS_ADC_ALL_PERIPH(ADCx));
 993              		.loc 1 737 3 view .LVU300
 738:./Libraries/STM32F10x_StdPeriph_Driver/src/stm32f10x_adc.c ****   assert_param(IS_FUNCTIONAL_STATE(NewState));
 994              		.loc 1 738 3 view .LVU301
 739:./Libraries/STM32F10x_StdPeriph_Driver/src/stm32f10x_adc.c ****   if (NewState != DISABLE)
 995              		.loc 1 739 3 view .LVU302
 996              		.loc 1 739 6 is_stmt 0 view .LVU303
 997 0000 21B1     		cbz	r1, .L58
 740:./Libraries/STM32F10x_StdPeriph_Driver/src/stm32f10x_adc.c ****   {
 741:./Libraries/STM32F10x_StdPeriph_Driver/src/stm32f10x_adc.c ****     /* Enable the selected ADC automatic injected group conversion */
 742:./Libraries/STM32F10x_StdPeriph_Driver/src/stm32f10x_adc.c ****     ADCx->CR1 |= CR1_JAUTO_Set;
 998              		.loc 1 742 5 is_stmt 1 view .LVU304
 999              		.loc 1 742 15 is_stmt 0 view .LVU305
 1000 0002 4368     		ldr	r3, [r0, #4]
 1001 0004 43F48063 		orr	r3, r3, #1024
 1002 0008 4360     		str	r3, [r0, #4]
 1003 000a 7047     		bx	lr
 1004              	.L58:
 743:./Libraries/STM32F10x_StdPeriph_Driver/src/stm32f10x_adc.c ****   }
 744:./Libraries/STM32F10x_StdPeriph_Driver/src/stm32f10x_adc.c ****   else
 745:./Libraries/STM32F10x_StdPeriph_Driver/src/stm32f10x_adc.c ****   {
 746:./Libraries/STM32F10x_StdPeriph_Driver/src/stm32f10x_adc.c ****     /* Disable the selected ADC automatic injected group conversion */
ARM GAS  /tmp/cci4pFLa.s 			page 32


 747:./Libraries/STM32F10x_StdPeriph_Driver/src/stm32f10x_adc.c ****     ADCx->CR1 &= CR1_JAUTO_Reset;
 1005              		.loc 1 747 5 is_stmt 1 view .LVU306
 1006              		.loc 1 747 15 is_stmt 0 view .LVU307
 1007 000c 4368     		ldr	r3, [r0, #4]
 1008 000e 23F48063 		bic	r3, r3, #1024
 1009 0012 4360     		str	r3, [r0, #4]
 748:./Libraries/STM32F10x_StdPeriph_Driver/src/stm32f10x_adc.c ****   }
 749:./Libraries/STM32F10x_StdPeriph_Driver/src/stm32f10x_adc.c **** }
 1010              		.loc 1 749 1 view .LVU308
 1011 0014 7047     		bx	lr
 1012              		.cfi_endproc
 1013              	.LFE47:
 1015              		.section	.text.ADC_InjectedDiscModeCmd,"ax",%progbits
 1016              		.align	1
 1017              		.global	ADC_InjectedDiscModeCmd
 1018              		.syntax unified
 1019              		.thumb
 1020              		.thumb_func
 1021              		.fpu softvfp
 1023              	ADC_InjectedDiscModeCmd:
 1024              	.LVL92:
 1025              	.LFB48:
 750:./Libraries/STM32F10x_StdPeriph_Driver/src/stm32f10x_adc.c **** 
 751:./Libraries/STM32F10x_StdPeriph_Driver/src/stm32f10x_adc.c **** /**
 752:./Libraries/STM32F10x_StdPeriph_Driver/src/stm32f10x_adc.c ****   * @brief  Enables or disables the discontinuous mode for injected group
 753:./Libraries/STM32F10x_StdPeriph_Driver/src/stm32f10x_adc.c ****   *         channel for the specified ADC
 754:./Libraries/STM32F10x_StdPeriph_Driver/src/stm32f10x_adc.c ****   * @param  ADCx: where x can be 1, 2 or 3 to select the ADC peripheral.
 755:./Libraries/STM32F10x_StdPeriph_Driver/src/stm32f10x_adc.c ****   * @param  NewState: new state of the selected ADC discontinuous mode
 756:./Libraries/STM32F10x_StdPeriph_Driver/src/stm32f10x_adc.c ****   *         on injected group channel.
 757:./Libraries/STM32F10x_StdPeriph_Driver/src/stm32f10x_adc.c ****   *   This parameter can be: ENABLE or DISABLE.
 758:./Libraries/STM32F10x_StdPeriph_Driver/src/stm32f10x_adc.c ****   * @retval None
 759:./Libraries/STM32F10x_StdPeriph_Driver/src/stm32f10x_adc.c ****   */
 760:./Libraries/STM32F10x_StdPeriph_Driver/src/stm32f10x_adc.c **** void ADC_InjectedDiscModeCmd(ADC_TypeDef* ADCx, FunctionalState NewState)
 761:./Libraries/STM32F10x_StdPeriph_Driver/src/stm32f10x_adc.c **** {
 1026              		.loc 1 761 1 is_stmt 1 view -0
 1027              		.cfi_startproc
 1028              		@ args = 0, pretend = 0, frame = 0
 1029              		@ frame_needed = 0, uses_anonymous_args = 0
 1030              		@ link register save eliminated.
 762:./Libraries/STM32F10x_StdPeriph_Driver/src/stm32f10x_adc.c ****   /* Check the parameters */
 763:./Libraries/STM32F10x_StdPeriph_Driver/src/stm32f10x_adc.c ****   assert_param(IS_ADC_ALL_PERIPH(ADCx));
 1031              		.loc 1 763 3 view .LVU310
 764:./Libraries/STM32F10x_StdPeriph_Driver/src/stm32f10x_adc.c ****   assert_param(IS_FUNCTIONAL_STATE(NewState));
 1032              		.loc 1 764 3 view .LVU311
 765:./Libraries/STM32F10x_StdPeriph_Driver/src/stm32f10x_adc.c ****   if (NewState != DISABLE)
 1033              		.loc 1 765 3 view .LVU312
 1034              		.loc 1 765 6 is_stmt 0 view .LVU313
 1035 0000 21B1     		cbz	r1, .L61
 766:./Libraries/STM32F10x_StdPeriph_Driver/src/stm32f10x_adc.c ****   {
 767:./Libraries/STM32F10x_StdPeriph_Driver/src/stm32f10x_adc.c ****     /* Enable the selected ADC injected discontinuous mode */
 768:./Libraries/STM32F10x_StdPeriph_Driver/src/stm32f10x_adc.c ****     ADCx->CR1 |= CR1_JDISCEN_Set;
 1036              		.loc 1 768 5 is_stmt 1 view .LVU314
 1037              		.loc 1 768 15 is_stmt 0 view .LVU315
 1038 0002 4368     		ldr	r3, [r0, #4]
 1039 0004 43F48053 		orr	r3, r3, #4096
 1040 0008 4360     		str	r3, [r0, #4]
 1041 000a 7047     		bx	lr
ARM GAS  /tmp/cci4pFLa.s 			page 33


 1042              	.L61:
 769:./Libraries/STM32F10x_StdPeriph_Driver/src/stm32f10x_adc.c ****   }
 770:./Libraries/STM32F10x_StdPeriph_Driver/src/stm32f10x_adc.c ****   else
 771:./Libraries/STM32F10x_StdPeriph_Driver/src/stm32f10x_adc.c ****   {
 772:./Libraries/STM32F10x_StdPeriph_Driver/src/stm32f10x_adc.c ****     /* Disable the selected ADC injected discontinuous mode */
 773:./Libraries/STM32F10x_StdPeriph_Driver/src/stm32f10x_adc.c ****     ADCx->CR1 &= CR1_JDISCEN_Reset;
 1043              		.loc 1 773 5 is_stmt 1 view .LVU316
 1044              		.loc 1 773 15 is_stmt 0 view .LVU317
 1045 000c 4368     		ldr	r3, [r0, #4]
 1046 000e 23F48053 		bic	r3, r3, #4096
 1047 0012 4360     		str	r3, [r0, #4]
 774:./Libraries/STM32F10x_StdPeriph_Driver/src/stm32f10x_adc.c ****   }
 775:./Libraries/STM32F10x_StdPeriph_Driver/src/stm32f10x_adc.c **** }
 1048              		.loc 1 775 1 view .LVU318
 1049 0014 7047     		bx	lr
 1050              		.cfi_endproc
 1051              	.LFE48:
 1053              		.section	.text.ADC_ExternalTrigInjectedConvConfig,"ax",%progbits
 1054              		.align	1
 1055              		.global	ADC_ExternalTrigInjectedConvConfig
 1056              		.syntax unified
 1057              		.thumb
 1058              		.thumb_func
 1059              		.fpu softvfp
 1061              	ADC_ExternalTrigInjectedConvConfig:
 1062              	.LVL93:
 1063              	.LFB49:
 776:./Libraries/STM32F10x_StdPeriph_Driver/src/stm32f10x_adc.c **** 
 777:./Libraries/STM32F10x_StdPeriph_Driver/src/stm32f10x_adc.c **** /**
 778:./Libraries/STM32F10x_StdPeriph_Driver/src/stm32f10x_adc.c ****   * @brief  Configures the ADCx external trigger for injected channels conversion.
 779:./Libraries/STM32F10x_StdPeriph_Driver/src/stm32f10x_adc.c ****   * @param  ADCx: where x can be 1, 2 or 3 to select the ADC peripheral.
 780:./Libraries/STM32F10x_StdPeriph_Driver/src/stm32f10x_adc.c ****   * @param  ADC_ExternalTrigInjecConv: specifies the ADC trigger to start injected conversion. 
 781:./Libraries/STM32F10x_StdPeriph_Driver/src/stm32f10x_adc.c ****   *   This parameter can be one of the following values:
 782:./Libraries/STM32F10x_StdPeriph_Driver/src/stm32f10x_adc.c ****   *     @arg ADC_ExternalTrigInjecConv_T1_TRGO: Timer1 TRGO event selected (for ADC1, ADC2 and ADC3
 783:./Libraries/STM32F10x_StdPeriph_Driver/src/stm32f10x_adc.c ****   *     @arg ADC_ExternalTrigInjecConv_T1_CC4: Timer1 capture compare4 selected (for ADC1, ADC2 and
 784:./Libraries/STM32F10x_StdPeriph_Driver/src/stm32f10x_adc.c ****   *     @arg ADC_ExternalTrigInjecConv_T2_TRGO: Timer2 TRGO event selected (for ADC1 and ADC2)
 785:./Libraries/STM32F10x_StdPeriph_Driver/src/stm32f10x_adc.c ****   *     @arg ADC_ExternalTrigInjecConv_T2_CC1: Timer2 capture compare1 selected (for ADC1 and ADC2)
 786:./Libraries/STM32F10x_StdPeriph_Driver/src/stm32f10x_adc.c ****   *     @arg ADC_ExternalTrigInjecConv_T3_CC4: Timer3 capture compare4 selected (for ADC1 and ADC2)
 787:./Libraries/STM32F10x_StdPeriph_Driver/src/stm32f10x_adc.c ****   *     @arg ADC_ExternalTrigInjecConv_T4_TRGO: Timer4 TRGO event selected (for ADC1 and ADC2)
 788:./Libraries/STM32F10x_StdPeriph_Driver/src/stm32f10x_adc.c ****   *     @arg ADC_ExternalTrigInjecConv_Ext_IT15_TIM8_CC4: External interrupt line 15 or Timer8
 789:./Libraries/STM32F10x_StdPeriph_Driver/src/stm32f10x_adc.c ****   *                                                       capture compare4 event selected (for ADC1
 790:./Libraries/STM32F10x_StdPeriph_Driver/src/stm32f10x_adc.c ****   *     @arg ADC_ExternalTrigInjecConv_T4_CC3: Timer4 capture compare3 selected (for ADC3 only)
 791:./Libraries/STM32F10x_StdPeriph_Driver/src/stm32f10x_adc.c ****   *     @arg ADC_ExternalTrigInjecConv_T8_CC2: Timer8 capture compare2 selected (for ADC3 only)    
 792:./Libraries/STM32F10x_StdPeriph_Driver/src/stm32f10x_adc.c ****   *     @arg ADC_ExternalTrigInjecConv_T8_CC4: Timer8 capture compare4 selected (for ADC3 only)
 793:./Libraries/STM32F10x_StdPeriph_Driver/src/stm32f10x_adc.c ****   *     @arg ADC_ExternalTrigInjecConv_T5_TRGO: Timer5 TRGO event selected (for ADC3 only)         
 794:./Libraries/STM32F10x_StdPeriph_Driver/src/stm32f10x_adc.c ****   *     @arg ADC_ExternalTrigInjecConv_T5_CC4: Timer5 capture compare4 selected (for ADC3 only)    
 795:./Libraries/STM32F10x_StdPeriph_Driver/src/stm32f10x_adc.c ****   *     @arg ADC_ExternalTrigInjecConv_None: Injected conversion started by software and not
 796:./Libraries/STM32F10x_StdPeriph_Driver/src/stm32f10x_adc.c ****   *                                          by external trigger (for ADC1, ADC2 and ADC3)
 797:./Libraries/STM32F10x_StdPeriph_Driver/src/stm32f10x_adc.c ****   * @retval None
 798:./Libraries/STM32F10x_StdPeriph_Driver/src/stm32f10x_adc.c ****   */
 799:./Libraries/STM32F10x_StdPeriph_Driver/src/stm32f10x_adc.c **** void ADC_ExternalTrigInjectedConvConfig(ADC_TypeDef* ADCx, uint32_t ADC_ExternalTrigInjecConv)
 800:./Libraries/STM32F10x_StdPeriph_Driver/src/stm32f10x_adc.c **** {
 1064              		.loc 1 800 1 is_stmt 1 view -0
 1065              		.cfi_startproc
 1066              		@ args = 0, pretend = 0, frame = 0
 1067              		@ frame_needed = 0, uses_anonymous_args = 0
 1068              		@ link register save eliminated.
ARM GAS  /tmp/cci4pFLa.s 			page 34


 801:./Libraries/STM32F10x_StdPeriph_Driver/src/stm32f10x_adc.c ****   uint32_t tmpreg = 0;
 1069              		.loc 1 801 3 view .LVU320
 802:./Libraries/STM32F10x_StdPeriph_Driver/src/stm32f10x_adc.c ****   /* Check the parameters */
 803:./Libraries/STM32F10x_StdPeriph_Driver/src/stm32f10x_adc.c ****   assert_param(IS_ADC_ALL_PERIPH(ADCx));
 1070              		.loc 1 803 3 view .LVU321
 804:./Libraries/STM32F10x_StdPeriph_Driver/src/stm32f10x_adc.c ****   assert_param(IS_ADC_EXT_INJEC_TRIG(ADC_ExternalTrigInjecConv));
 1071              		.loc 1 804 3 view .LVU322
 805:./Libraries/STM32F10x_StdPeriph_Driver/src/stm32f10x_adc.c ****   /* Get the old register value */
 806:./Libraries/STM32F10x_StdPeriph_Driver/src/stm32f10x_adc.c ****   tmpreg = ADCx->CR2;
 1072              		.loc 1 806 3 view .LVU323
 1073              		.loc 1 806 10 is_stmt 0 view .LVU324
 1074 0000 8368     		ldr	r3, [r0, #8]
 1075              	.LVL94:
 807:./Libraries/STM32F10x_StdPeriph_Driver/src/stm32f10x_adc.c ****   /* Clear the old external event selection for injected group */
 808:./Libraries/STM32F10x_StdPeriph_Driver/src/stm32f10x_adc.c ****   tmpreg &= CR2_JEXTSEL_Reset;
 1076              		.loc 1 808 3 is_stmt 1 view .LVU325
 1077              		.loc 1 808 10 is_stmt 0 view .LVU326
 1078 0002 23F4E043 		bic	r3, r3, #28672
 1079              	.LVL95:
 809:./Libraries/STM32F10x_StdPeriph_Driver/src/stm32f10x_adc.c ****   /* Set the external event selection for injected group */
 810:./Libraries/STM32F10x_StdPeriph_Driver/src/stm32f10x_adc.c ****   tmpreg |= ADC_ExternalTrigInjecConv;
 1080              		.loc 1 810 3 is_stmt 1 view .LVU327
 1081              		.loc 1 810 10 is_stmt 0 view .LVU328
 1082 0006 0B43     		orrs	r3, r3, r1
 1083              	.LVL96:
 811:./Libraries/STM32F10x_StdPeriph_Driver/src/stm32f10x_adc.c ****   /* Store the new register value */
 812:./Libraries/STM32F10x_StdPeriph_Driver/src/stm32f10x_adc.c ****   ADCx->CR2 = tmpreg;
 1084              		.loc 1 812 3 is_stmt 1 view .LVU329
 1085              		.loc 1 812 13 is_stmt 0 view .LVU330
 1086 0008 8360     		str	r3, [r0, #8]
 813:./Libraries/STM32F10x_StdPeriph_Driver/src/stm32f10x_adc.c **** }
 1087              		.loc 1 813 1 view .LVU331
 1088 000a 7047     		bx	lr
 1089              		.cfi_endproc
 1090              	.LFE49:
 1092              		.section	.text.ADC_ExternalTrigInjectedConvCmd,"ax",%progbits
 1093              		.align	1
 1094              		.global	ADC_ExternalTrigInjectedConvCmd
 1095              		.syntax unified
 1096              		.thumb
 1097              		.thumb_func
 1098              		.fpu softvfp
 1100              	ADC_ExternalTrigInjectedConvCmd:
 1101              	.LVL97:
 1102              	.LFB50:
 814:./Libraries/STM32F10x_StdPeriph_Driver/src/stm32f10x_adc.c **** 
 815:./Libraries/STM32F10x_StdPeriph_Driver/src/stm32f10x_adc.c **** /**
 816:./Libraries/STM32F10x_StdPeriph_Driver/src/stm32f10x_adc.c ****   * @brief  Enables or disables the ADCx injected channels conversion through
 817:./Libraries/STM32F10x_StdPeriph_Driver/src/stm32f10x_adc.c ****   *         external trigger
 818:./Libraries/STM32F10x_StdPeriph_Driver/src/stm32f10x_adc.c ****   * @param  ADCx: where x can be 1, 2 or 3 to select the ADC peripheral.
 819:./Libraries/STM32F10x_StdPeriph_Driver/src/stm32f10x_adc.c ****   * @param  NewState: new state of the selected ADC external trigger start of
 820:./Libraries/STM32F10x_StdPeriph_Driver/src/stm32f10x_adc.c ****   *         injected conversion.
 821:./Libraries/STM32F10x_StdPeriph_Driver/src/stm32f10x_adc.c ****   *   This parameter can be: ENABLE or DISABLE.
 822:./Libraries/STM32F10x_StdPeriph_Driver/src/stm32f10x_adc.c ****   * @retval None
 823:./Libraries/STM32F10x_StdPeriph_Driver/src/stm32f10x_adc.c ****   */
 824:./Libraries/STM32F10x_StdPeriph_Driver/src/stm32f10x_adc.c **** void ADC_ExternalTrigInjectedConvCmd(ADC_TypeDef* ADCx, FunctionalState NewState)
 825:./Libraries/STM32F10x_StdPeriph_Driver/src/stm32f10x_adc.c **** {
ARM GAS  /tmp/cci4pFLa.s 			page 35


 1103              		.loc 1 825 1 is_stmt 1 view -0
 1104              		.cfi_startproc
 1105              		@ args = 0, pretend = 0, frame = 0
 1106              		@ frame_needed = 0, uses_anonymous_args = 0
 1107              		@ link register save eliminated.
 826:./Libraries/STM32F10x_StdPeriph_Driver/src/stm32f10x_adc.c ****   /* Check the parameters */
 827:./Libraries/STM32F10x_StdPeriph_Driver/src/stm32f10x_adc.c ****   assert_param(IS_ADC_ALL_PERIPH(ADCx));
 1108              		.loc 1 827 3 view .LVU333
 828:./Libraries/STM32F10x_StdPeriph_Driver/src/stm32f10x_adc.c ****   assert_param(IS_FUNCTIONAL_STATE(NewState));
 1109              		.loc 1 828 3 view .LVU334
 829:./Libraries/STM32F10x_StdPeriph_Driver/src/stm32f10x_adc.c ****   if (NewState != DISABLE)
 1110              		.loc 1 829 3 view .LVU335
 1111              		.loc 1 829 6 is_stmt 0 view .LVU336
 1112 0000 21B1     		cbz	r1, .L65
 830:./Libraries/STM32F10x_StdPeriph_Driver/src/stm32f10x_adc.c ****   {
 831:./Libraries/STM32F10x_StdPeriph_Driver/src/stm32f10x_adc.c ****     /* Enable the selected ADC external event selection for injected group */
 832:./Libraries/STM32F10x_StdPeriph_Driver/src/stm32f10x_adc.c ****     ADCx->CR2 |= CR2_JEXTTRIG_Set;
 1113              		.loc 1 832 5 is_stmt 1 view .LVU337
 1114              		.loc 1 832 15 is_stmt 0 view .LVU338
 1115 0002 8368     		ldr	r3, [r0, #8]
 1116 0004 43F40043 		orr	r3, r3, #32768
 1117 0008 8360     		str	r3, [r0, #8]
 1118 000a 7047     		bx	lr
 1119              	.L65:
 833:./Libraries/STM32F10x_StdPeriph_Driver/src/stm32f10x_adc.c ****   }
 834:./Libraries/STM32F10x_StdPeriph_Driver/src/stm32f10x_adc.c ****   else
 835:./Libraries/STM32F10x_StdPeriph_Driver/src/stm32f10x_adc.c ****   {
 836:./Libraries/STM32F10x_StdPeriph_Driver/src/stm32f10x_adc.c ****     /* Disable the selected ADC external event selection for injected group */
 837:./Libraries/STM32F10x_StdPeriph_Driver/src/stm32f10x_adc.c ****     ADCx->CR2 &= CR2_JEXTTRIG_Reset;
 1120              		.loc 1 837 5 is_stmt 1 view .LVU339
 1121              		.loc 1 837 15 is_stmt 0 view .LVU340
 1122 000c 8368     		ldr	r3, [r0, #8]
 1123 000e 23F40043 		bic	r3, r3, #32768
 1124 0012 8360     		str	r3, [r0, #8]
 838:./Libraries/STM32F10x_StdPeriph_Driver/src/stm32f10x_adc.c ****   }
 839:./Libraries/STM32F10x_StdPeriph_Driver/src/stm32f10x_adc.c **** }
 1125              		.loc 1 839 1 view .LVU341
 1126 0014 7047     		bx	lr
 1127              		.cfi_endproc
 1128              	.LFE50:
 1130              		.section	.text.ADC_SoftwareStartInjectedConvCmd,"ax",%progbits
 1131              		.align	1
 1132              		.global	ADC_SoftwareStartInjectedConvCmd
 1133              		.syntax unified
 1134              		.thumb
 1135              		.thumb_func
 1136              		.fpu softvfp
 1138              	ADC_SoftwareStartInjectedConvCmd:
 1139              	.LVL98:
 1140              	.LFB51:
 840:./Libraries/STM32F10x_StdPeriph_Driver/src/stm32f10x_adc.c **** 
 841:./Libraries/STM32F10x_StdPeriph_Driver/src/stm32f10x_adc.c **** /**
 842:./Libraries/STM32F10x_StdPeriph_Driver/src/stm32f10x_adc.c ****   * @brief  Enables or disables the selected ADC start of the injected 
 843:./Libraries/STM32F10x_StdPeriph_Driver/src/stm32f10x_adc.c ****   *         channels conversion.
 844:./Libraries/STM32F10x_StdPeriph_Driver/src/stm32f10x_adc.c ****   * @param  ADCx: where x can be 1, 2 or 3 to select the ADC peripheral.
 845:./Libraries/STM32F10x_StdPeriph_Driver/src/stm32f10x_adc.c ****   * @param  NewState: new state of the selected ADC software start injected conversion.
 846:./Libraries/STM32F10x_StdPeriph_Driver/src/stm32f10x_adc.c ****   *   This parameter can be: ENABLE or DISABLE.
ARM GAS  /tmp/cci4pFLa.s 			page 36


 847:./Libraries/STM32F10x_StdPeriph_Driver/src/stm32f10x_adc.c ****   * @retval None
 848:./Libraries/STM32F10x_StdPeriph_Driver/src/stm32f10x_adc.c ****   */
 849:./Libraries/STM32F10x_StdPeriph_Driver/src/stm32f10x_adc.c **** void ADC_SoftwareStartInjectedConvCmd(ADC_TypeDef* ADCx, FunctionalState NewState)
 850:./Libraries/STM32F10x_StdPeriph_Driver/src/stm32f10x_adc.c **** {
 1141              		.loc 1 850 1 is_stmt 1 view -0
 1142              		.cfi_startproc
 1143              		@ args = 0, pretend = 0, frame = 0
 1144              		@ frame_needed = 0, uses_anonymous_args = 0
 1145              		@ link register save eliminated.
 851:./Libraries/STM32F10x_StdPeriph_Driver/src/stm32f10x_adc.c ****   /* Check the parameters */
 852:./Libraries/STM32F10x_StdPeriph_Driver/src/stm32f10x_adc.c ****   assert_param(IS_ADC_ALL_PERIPH(ADCx));
 1146              		.loc 1 852 3 view .LVU343
 853:./Libraries/STM32F10x_StdPeriph_Driver/src/stm32f10x_adc.c ****   assert_param(IS_FUNCTIONAL_STATE(NewState));
 1147              		.loc 1 853 3 view .LVU344
 854:./Libraries/STM32F10x_StdPeriph_Driver/src/stm32f10x_adc.c ****   if (NewState != DISABLE)
 1148              		.loc 1 854 3 view .LVU345
 1149              		.loc 1 854 6 is_stmt 0 view .LVU346
 1150 0000 21B1     		cbz	r1, .L68
 855:./Libraries/STM32F10x_StdPeriph_Driver/src/stm32f10x_adc.c ****   {
 856:./Libraries/STM32F10x_StdPeriph_Driver/src/stm32f10x_adc.c ****     /* Enable the selected ADC conversion for injected group on external event and start the select
 857:./Libraries/STM32F10x_StdPeriph_Driver/src/stm32f10x_adc.c ****        ADC injected conversion */
 858:./Libraries/STM32F10x_StdPeriph_Driver/src/stm32f10x_adc.c ****     ADCx->CR2 |= CR2_JEXTTRIG_JSWSTART_Set;
 1151              		.loc 1 858 5 is_stmt 1 view .LVU347
 1152              		.loc 1 858 15 is_stmt 0 view .LVU348
 1153 0002 8368     		ldr	r3, [r0, #8]
 1154 0004 43F40213 		orr	r3, r3, #2129920
 1155 0008 8360     		str	r3, [r0, #8]
 1156 000a 7047     		bx	lr
 1157              	.L68:
 859:./Libraries/STM32F10x_StdPeriph_Driver/src/stm32f10x_adc.c ****   }
 860:./Libraries/STM32F10x_StdPeriph_Driver/src/stm32f10x_adc.c ****   else
 861:./Libraries/STM32F10x_StdPeriph_Driver/src/stm32f10x_adc.c ****   {
 862:./Libraries/STM32F10x_StdPeriph_Driver/src/stm32f10x_adc.c ****     /* Disable the selected ADC conversion on external event for injected group and stop the select
 863:./Libraries/STM32F10x_StdPeriph_Driver/src/stm32f10x_adc.c ****        ADC injected conversion */
 864:./Libraries/STM32F10x_StdPeriph_Driver/src/stm32f10x_adc.c ****     ADCx->CR2 &= CR2_JEXTTRIG_JSWSTART_Reset;
 1158              		.loc 1 864 5 is_stmt 1 view .LVU349
 1159              		.loc 1 864 15 is_stmt 0 view .LVU350
 1160 000c 8368     		ldr	r3, [r0, #8]
 1161 000e 23F40213 		bic	r3, r3, #2129920
 1162 0012 8360     		str	r3, [r0, #8]
 865:./Libraries/STM32F10x_StdPeriph_Driver/src/stm32f10x_adc.c ****   }
 866:./Libraries/STM32F10x_StdPeriph_Driver/src/stm32f10x_adc.c **** }
 1163              		.loc 1 866 1 view .LVU351
 1164 0014 7047     		bx	lr
 1165              		.cfi_endproc
 1166              	.LFE51:
 1168              		.section	.text.ADC_GetSoftwareStartInjectedConvCmdStatus,"ax",%progbits
 1169              		.align	1
 1170              		.global	ADC_GetSoftwareStartInjectedConvCmdStatus
 1171              		.syntax unified
 1172              		.thumb
 1173              		.thumb_func
 1174              		.fpu softvfp
 1176              	ADC_GetSoftwareStartInjectedConvCmdStatus:
 1177              	.LVL99:
 1178              	.LFB52:
 867:./Libraries/STM32F10x_StdPeriph_Driver/src/stm32f10x_adc.c **** 
ARM GAS  /tmp/cci4pFLa.s 			page 37


 868:./Libraries/STM32F10x_StdPeriph_Driver/src/stm32f10x_adc.c **** /**
 869:./Libraries/STM32F10x_StdPeriph_Driver/src/stm32f10x_adc.c ****   * @brief  Gets the selected ADC Software start injected conversion Status.
 870:./Libraries/STM32F10x_StdPeriph_Driver/src/stm32f10x_adc.c ****   * @param  ADCx: where x can be 1, 2 or 3 to select the ADC peripheral.
 871:./Libraries/STM32F10x_StdPeriph_Driver/src/stm32f10x_adc.c ****   * @retval The new state of ADC software start injected conversion (SET or RESET).
 872:./Libraries/STM32F10x_StdPeriph_Driver/src/stm32f10x_adc.c ****   */
 873:./Libraries/STM32F10x_StdPeriph_Driver/src/stm32f10x_adc.c **** FlagStatus ADC_GetSoftwareStartInjectedConvCmdStatus(ADC_TypeDef* ADCx)
 874:./Libraries/STM32F10x_StdPeriph_Driver/src/stm32f10x_adc.c **** {
 1179              		.loc 1 874 1 is_stmt 1 view -0
 1180              		.cfi_startproc
 1181              		@ args = 0, pretend = 0, frame = 0
 1182              		@ frame_needed = 0, uses_anonymous_args = 0
 1183              		@ link register save eliminated.
 875:./Libraries/STM32F10x_StdPeriph_Driver/src/stm32f10x_adc.c ****   FlagStatus bitstatus = RESET;
 1184              		.loc 1 875 3 view .LVU353
 876:./Libraries/STM32F10x_StdPeriph_Driver/src/stm32f10x_adc.c ****   /* Check the parameters */
 877:./Libraries/STM32F10x_StdPeriph_Driver/src/stm32f10x_adc.c ****   assert_param(IS_ADC_ALL_PERIPH(ADCx));
 1185              		.loc 1 877 3 view .LVU354
 878:./Libraries/STM32F10x_StdPeriph_Driver/src/stm32f10x_adc.c ****   /* Check the status of JSWSTART bit */
 879:./Libraries/STM32F10x_StdPeriph_Driver/src/stm32f10x_adc.c ****   if ((ADCx->CR2 & CR2_JSWSTART_Set) != (uint32_t)RESET)
 1186              		.loc 1 879 3 view .LVU355
 1187              		.loc 1 879 12 is_stmt 0 view .LVU356
 1188 0000 8368     		ldr	r3, [r0, #8]
 1189              		.loc 1 879 6 view .LVU357
 1190 0002 13F4001F 		tst	r3, #2097152
 1191 0006 01D0     		beq	.L72
 880:./Libraries/STM32F10x_StdPeriph_Driver/src/stm32f10x_adc.c ****   {
 881:./Libraries/STM32F10x_StdPeriph_Driver/src/stm32f10x_adc.c ****     /* JSWSTART bit is set */
 882:./Libraries/STM32F10x_StdPeriph_Driver/src/stm32f10x_adc.c ****     bitstatus = SET;
 1192              		.loc 1 882 15 view .LVU358
 1193 0008 0120     		movs	r0, #1
 1194              	.LVL100:
 1195              		.loc 1 882 15 view .LVU359
 1196 000a 7047     		bx	lr
 1197              	.LVL101:
 1198              	.L72:
 883:./Libraries/STM32F10x_StdPeriph_Driver/src/stm32f10x_adc.c ****   }
 884:./Libraries/STM32F10x_StdPeriph_Driver/src/stm32f10x_adc.c ****   else
 885:./Libraries/STM32F10x_StdPeriph_Driver/src/stm32f10x_adc.c ****   {
 886:./Libraries/STM32F10x_StdPeriph_Driver/src/stm32f10x_adc.c ****     /* JSWSTART bit is reset */
 887:./Libraries/STM32F10x_StdPeriph_Driver/src/stm32f10x_adc.c ****     bitstatus = RESET;
 1199              		.loc 1 887 15 view .LVU360
 1200 000c 0020     		movs	r0, #0
 1201              	.LVL102:
 888:./Libraries/STM32F10x_StdPeriph_Driver/src/stm32f10x_adc.c ****   }
 889:./Libraries/STM32F10x_StdPeriph_Driver/src/stm32f10x_adc.c ****   /* Return the JSWSTART bit status */
 890:./Libraries/STM32F10x_StdPeriph_Driver/src/stm32f10x_adc.c ****   return  bitstatus;
 1202              		.loc 1 890 3 is_stmt 1 view .LVU361
 891:./Libraries/STM32F10x_StdPeriph_Driver/src/stm32f10x_adc.c **** }
 1203              		.loc 1 891 1 is_stmt 0 view .LVU362
 1204 000e 7047     		bx	lr
 1205              		.cfi_endproc
 1206              	.LFE52:
 1208              		.section	.text.ADC_InjectedChannelConfig,"ax",%progbits
 1209              		.align	1
 1210              		.global	ADC_InjectedChannelConfig
 1211              		.syntax unified
 1212              		.thumb
ARM GAS  /tmp/cci4pFLa.s 			page 38


 1213              		.thumb_func
 1214              		.fpu softvfp
 1216              	ADC_InjectedChannelConfig:
 1217              	.LVL103:
 1218              	.LFB53:
 892:./Libraries/STM32F10x_StdPeriph_Driver/src/stm32f10x_adc.c **** 
 893:./Libraries/STM32F10x_StdPeriph_Driver/src/stm32f10x_adc.c **** /**
 894:./Libraries/STM32F10x_StdPeriph_Driver/src/stm32f10x_adc.c ****   * @brief  Configures for the selected ADC injected channel its corresponding
 895:./Libraries/STM32F10x_StdPeriph_Driver/src/stm32f10x_adc.c ****   *         rank in the sequencer and its sample time.
 896:./Libraries/STM32F10x_StdPeriph_Driver/src/stm32f10x_adc.c ****   * @param  ADCx: where x can be 1, 2 or 3 to select the ADC peripheral.
 897:./Libraries/STM32F10x_StdPeriph_Driver/src/stm32f10x_adc.c ****   * @param  ADC_Channel: the ADC channel to configure. 
 898:./Libraries/STM32F10x_StdPeriph_Driver/src/stm32f10x_adc.c ****   *   This parameter can be one of the following values:
 899:./Libraries/STM32F10x_StdPeriph_Driver/src/stm32f10x_adc.c ****   *     @arg ADC_Channel_0: ADC Channel0 selected
 900:./Libraries/STM32F10x_StdPeriph_Driver/src/stm32f10x_adc.c ****   *     @arg ADC_Channel_1: ADC Channel1 selected
 901:./Libraries/STM32F10x_StdPeriph_Driver/src/stm32f10x_adc.c ****   *     @arg ADC_Channel_2: ADC Channel2 selected
 902:./Libraries/STM32F10x_StdPeriph_Driver/src/stm32f10x_adc.c ****   *     @arg ADC_Channel_3: ADC Channel3 selected
 903:./Libraries/STM32F10x_StdPeriph_Driver/src/stm32f10x_adc.c ****   *     @arg ADC_Channel_4: ADC Channel4 selected
 904:./Libraries/STM32F10x_StdPeriph_Driver/src/stm32f10x_adc.c ****   *     @arg ADC_Channel_5: ADC Channel5 selected
 905:./Libraries/STM32F10x_StdPeriph_Driver/src/stm32f10x_adc.c ****   *     @arg ADC_Channel_6: ADC Channel6 selected
 906:./Libraries/STM32F10x_StdPeriph_Driver/src/stm32f10x_adc.c ****   *     @arg ADC_Channel_7: ADC Channel7 selected
 907:./Libraries/STM32F10x_StdPeriph_Driver/src/stm32f10x_adc.c ****   *     @arg ADC_Channel_8: ADC Channel8 selected
 908:./Libraries/STM32F10x_StdPeriph_Driver/src/stm32f10x_adc.c ****   *     @arg ADC_Channel_9: ADC Channel9 selected
 909:./Libraries/STM32F10x_StdPeriph_Driver/src/stm32f10x_adc.c ****   *     @arg ADC_Channel_10: ADC Channel10 selected
 910:./Libraries/STM32F10x_StdPeriph_Driver/src/stm32f10x_adc.c ****   *     @arg ADC_Channel_11: ADC Channel11 selected
 911:./Libraries/STM32F10x_StdPeriph_Driver/src/stm32f10x_adc.c ****   *     @arg ADC_Channel_12: ADC Channel12 selected
 912:./Libraries/STM32F10x_StdPeriph_Driver/src/stm32f10x_adc.c ****   *     @arg ADC_Channel_13: ADC Channel13 selected
 913:./Libraries/STM32F10x_StdPeriph_Driver/src/stm32f10x_adc.c ****   *     @arg ADC_Channel_14: ADC Channel14 selected
 914:./Libraries/STM32F10x_StdPeriph_Driver/src/stm32f10x_adc.c ****   *     @arg ADC_Channel_15: ADC Channel15 selected
 915:./Libraries/STM32F10x_StdPeriph_Driver/src/stm32f10x_adc.c ****   *     @arg ADC_Channel_16: ADC Channel16 selected
 916:./Libraries/STM32F10x_StdPeriph_Driver/src/stm32f10x_adc.c ****   *     @arg ADC_Channel_17: ADC Channel17 selected
 917:./Libraries/STM32F10x_StdPeriph_Driver/src/stm32f10x_adc.c ****   * @param  Rank: The rank in the injected group sequencer. This parameter must be between 1 and 4.
 918:./Libraries/STM32F10x_StdPeriph_Driver/src/stm32f10x_adc.c ****   * @param  ADC_SampleTime: The sample time value to be set for the selected channel. 
 919:./Libraries/STM32F10x_StdPeriph_Driver/src/stm32f10x_adc.c ****   *   This parameter can be one of the following values:
 920:./Libraries/STM32F10x_StdPeriph_Driver/src/stm32f10x_adc.c ****   *     @arg ADC_SampleTime_1Cycles5: Sample time equal to 1.5 cycles
 921:./Libraries/STM32F10x_StdPeriph_Driver/src/stm32f10x_adc.c ****   *     @arg ADC_SampleTime_7Cycles5: Sample time equal to 7.5 cycles
 922:./Libraries/STM32F10x_StdPeriph_Driver/src/stm32f10x_adc.c ****   *     @arg ADC_SampleTime_13Cycles5: Sample time equal to 13.5 cycles
 923:./Libraries/STM32F10x_StdPeriph_Driver/src/stm32f10x_adc.c ****   *     @arg ADC_SampleTime_28Cycles5: Sample time equal to 28.5 cycles	
 924:./Libraries/STM32F10x_StdPeriph_Driver/src/stm32f10x_adc.c ****   *     @arg ADC_SampleTime_41Cycles5: Sample time equal to 41.5 cycles	
 925:./Libraries/STM32F10x_StdPeriph_Driver/src/stm32f10x_adc.c ****   *     @arg ADC_SampleTime_55Cycles5: Sample time equal to 55.5 cycles	
 926:./Libraries/STM32F10x_StdPeriph_Driver/src/stm32f10x_adc.c ****   *     @arg ADC_SampleTime_71Cycles5: Sample time equal to 71.5 cycles	
 927:./Libraries/STM32F10x_StdPeriph_Driver/src/stm32f10x_adc.c ****   *     @arg ADC_SampleTime_239Cycles5: Sample time equal to 239.5 cycles	
 928:./Libraries/STM32F10x_StdPeriph_Driver/src/stm32f10x_adc.c ****   * @retval None
 929:./Libraries/STM32F10x_StdPeriph_Driver/src/stm32f10x_adc.c ****   */
 930:./Libraries/STM32F10x_StdPeriph_Driver/src/stm32f10x_adc.c **** void ADC_InjectedChannelConfig(ADC_TypeDef* ADCx, uint8_t ADC_Channel, uint8_t Rank, uint8_t ADC_Sa
 931:./Libraries/STM32F10x_StdPeriph_Driver/src/stm32f10x_adc.c **** {
 1219              		.loc 1 931 1 is_stmt 1 view -0
 1220              		.cfi_startproc
 1221              		@ args = 0, pretend = 0, frame = 0
 1222              		@ frame_needed = 0, uses_anonymous_args = 0
 1223              		@ link register save eliminated.
 1224              		.loc 1 931 1 is_stmt 0 view .LVU364
 1225 0000 30B4     		push	{r4, r5}
 1226              	.LCFI4:
 1227              		.cfi_def_cfa_offset 8
 1228              		.cfi_offset 4, -8
 1229              		.cfi_offset 5, -4
 932:./Libraries/STM32F10x_StdPeriph_Driver/src/stm32f10x_adc.c ****   uint32_t tmpreg1 = 0, tmpreg2 = 0, tmpreg3 = 0;
ARM GAS  /tmp/cci4pFLa.s 			page 39


 1230              		.loc 1 932 3 is_stmt 1 view .LVU365
 1231              	.LVL104:
 933:./Libraries/STM32F10x_StdPeriph_Driver/src/stm32f10x_adc.c ****   /* Check the parameters */
 934:./Libraries/STM32F10x_StdPeriph_Driver/src/stm32f10x_adc.c ****   assert_param(IS_ADC_ALL_PERIPH(ADCx));
 1232              		.loc 1 934 3 view .LVU366
 935:./Libraries/STM32F10x_StdPeriph_Driver/src/stm32f10x_adc.c ****   assert_param(IS_ADC_CHANNEL(ADC_Channel));
 1233              		.loc 1 935 3 view .LVU367
 936:./Libraries/STM32F10x_StdPeriph_Driver/src/stm32f10x_adc.c ****   assert_param(IS_ADC_INJECTED_RANK(Rank));
 1234              		.loc 1 936 3 view .LVU368
 937:./Libraries/STM32F10x_StdPeriph_Driver/src/stm32f10x_adc.c ****   assert_param(IS_ADC_SAMPLE_TIME(ADC_SampleTime));
 1235              		.loc 1 937 3 view .LVU369
 938:./Libraries/STM32F10x_StdPeriph_Driver/src/stm32f10x_adc.c ****   /* if ADC_Channel_10 ... ADC_Channel_17 is selected */
 939:./Libraries/STM32F10x_StdPeriph_Driver/src/stm32f10x_adc.c ****   if (ADC_Channel > ADC_Channel_9)
 1236              		.loc 1 939 3 view .LVU370
 1237              		.loc 1 939 6 is_stmt 0 view .LVU371
 1238 0002 0929     		cmp	r1, #9
 1239 0004 20D9     		bls	.L74
 940:./Libraries/STM32F10x_StdPeriph_Driver/src/stm32f10x_adc.c ****   {
 941:./Libraries/STM32F10x_StdPeriph_Driver/src/stm32f10x_adc.c ****     /* Get the old register value */
 942:./Libraries/STM32F10x_StdPeriph_Driver/src/stm32f10x_adc.c ****     tmpreg1 = ADCx->SMPR1;
 1240              		.loc 1 942 5 is_stmt 1 view .LVU372
 1241              		.loc 1 942 13 is_stmt 0 view .LVU373
 1242 0006 C568     		ldr	r5, [r0, #12]
 1243              	.LVL105:
 943:./Libraries/STM32F10x_StdPeriph_Driver/src/stm32f10x_adc.c ****     /* Calculate the mask to clear */
 944:./Libraries/STM32F10x_StdPeriph_Driver/src/stm32f10x_adc.c ****     tmpreg2 = SMPR1_SMP_Set << (3*(ADC_Channel - 10));
 1244              		.loc 1 944 5 is_stmt 1 view .LVU374
 1245              		.loc 1 944 48 is_stmt 0 view .LVU375
 1246 0008 A1F10A04 		sub	r4, r1, #10
 1247              		.loc 1 944 34 view .LVU376
 1248 000c 04EB4404 		add	r4, r4, r4, lsl #1
 1249              		.loc 1 944 13 view .LVU377
 1250 0010 4FF0070C 		mov	ip, #7
 1251 0014 0CFA04FC 		lsl	ip, ip, r4
 1252              	.LVL106:
 945:./Libraries/STM32F10x_StdPeriph_Driver/src/stm32f10x_adc.c ****     /* Clear the old channel sample time */
 946:./Libraries/STM32F10x_StdPeriph_Driver/src/stm32f10x_adc.c ****     tmpreg1 &= ~tmpreg2;
 1253              		.loc 1 946 5 is_stmt 1 view .LVU378
 1254              		.loc 1 946 13 is_stmt 0 view .LVU379
 1255 0018 25EA0C0C 		bic	ip, r5, ip
 1256              	.LVL107:
 947:./Libraries/STM32F10x_StdPeriph_Driver/src/stm32f10x_adc.c ****     /* Calculate the mask to set */
 948:./Libraries/STM32F10x_StdPeriph_Driver/src/stm32f10x_adc.c ****     tmpreg2 = (uint32_t)ADC_SampleTime << (3*(ADC_Channel - 10));
 1257              		.loc 1 948 5 is_stmt 1 view .LVU380
 1258              		.loc 1 948 13 is_stmt 0 view .LVU381
 1259 001c A340     		lsls	r3, r3, r4
 1260              	.LVL108:
 949:./Libraries/STM32F10x_StdPeriph_Driver/src/stm32f10x_adc.c ****     /* Set the new channel sample time */
 950:./Libraries/STM32F10x_StdPeriph_Driver/src/stm32f10x_adc.c ****     tmpreg1 |= tmpreg2;
 1261              		.loc 1 950 5 is_stmt 1 view .LVU382
 1262              		.loc 1 950 13 is_stmt 0 view .LVU383
 1263 001e 4CEA0303 		orr	r3, ip, r3
 1264              	.LVL109:
 951:./Libraries/STM32F10x_StdPeriph_Driver/src/stm32f10x_adc.c ****     /* Store the new register value */
 952:./Libraries/STM32F10x_StdPeriph_Driver/src/stm32f10x_adc.c ****     ADCx->SMPR1 = tmpreg1;
 1265              		.loc 1 952 5 is_stmt 1 view .LVU384
 1266              		.loc 1 952 17 is_stmt 0 view .LVU385
ARM GAS  /tmp/cci4pFLa.s 			page 40


 1267 0022 C360     		str	r3, [r0, #12]
 1268              	.L75:
 953:./Libraries/STM32F10x_StdPeriph_Driver/src/stm32f10x_adc.c ****   }
 954:./Libraries/STM32F10x_StdPeriph_Driver/src/stm32f10x_adc.c ****   else /* ADC_Channel include in ADC_Channel_[0..9] */
 955:./Libraries/STM32F10x_StdPeriph_Driver/src/stm32f10x_adc.c ****   {
 956:./Libraries/STM32F10x_StdPeriph_Driver/src/stm32f10x_adc.c ****     /* Get the old register value */
 957:./Libraries/STM32F10x_StdPeriph_Driver/src/stm32f10x_adc.c ****     tmpreg1 = ADCx->SMPR2;
 958:./Libraries/STM32F10x_StdPeriph_Driver/src/stm32f10x_adc.c ****     /* Calculate the mask to clear */
 959:./Libraries/STM32F10x_StdPeriph_Driver/src/stm32f10x_adc.c ****     tmpreg2 = SMPR2_SMP_Set << (3 * ADC_Channel);
 960:./Libraries/STM32F10x_StdPeriph_Driver/src/stm32f10x_adc.c ****     /* Clear the old channel sample time */
 961:./Libraries/STM32F10x_StdPeriph_Driver/src/stm32f10x_adc.c ****     tmpreg1 &= ~tmpreg2;
 962:./Libraries/STM32F10x_StdPeriph_Driver/src/stm32f10x_adc.c ****     /* Calculate the mask to set */
 963:./Libraries/STM32F10x_StdPeriph_Driver/src/stm32f10x_adc.c ****     tmpreg2 = (uint32_t)ADC_SampleTime << (3 * ADC_Channel);
 964:./Libraries/STM32F10x_StdPeriph_Driver/src/stm32f10x_adc.c ****     /* Set the new channel sample time */
 965:./Libraries/STM32F10x_StdPeriph_Driver/src/stm32f10x_adc.c ****     tmpreg1 |= tmpreg2;
 966:./Libraries/STM32F10x_StdPeriph_Driver/src/stm32f10x_adc.c ****     /* Store the new register value */
 967:./Libraries/STM32F10x_StdPeriph_Driver/src/stm32f10x_adc.c ****     ADCx->SMPR2 = tmpreg1;
 968:./Libraries/STM32F10x_StdPeriph_Driver/src/stm32f10x_adc.c ****   }
 969:./Libraries/STM32F10x_StdPeriph_Driver/src/stm32f10x_adc.c ****   /* Rank configuration */
 970:./Libraries/STM32F10x_StdPeriph_Driver/src/stm32f10x_adc.c ****   /* Get the old register value */
 971:./Libraries/STM32F10x_StdPeriph_Driver/src/stm32f10x_adc.c ****   tmpreg1 = ADCx->JSQR;
 1269              		.loc 1 971 3 is_stmt 1 view .LVU386
 1270              		.loc 1 971 11 is_stmt 0 view .LVU387
 1271 0024 846B     		ldr	r4, [r0, #56]
 1272              	.LVL110:
 972:./Libraries/STM32F10x_StdPeriph_Driver/src/stm32f10x_adc.c ****   /* Get JL value: Number = JL+1 */
 973:./Libraries/STM32F10x_StdPeriph_Driver/src/stm32f10x_adc.c ****   tmpreg3 =  (tmpreg1 & JSQR_JL_Set)>> 20;
 1273              		.loc 1 973 3 is_stmt 1 view .LVU388
 1274              		.loc 1 973 11 is_stmt 0 view .LVU389
 1275 0026 C4F30153 		ubfx	r3, r4, #20, #2
 1276              	.LVL111:
 974:./Libraries/STM32F10x_StdPeriph_Driver/src/stm32f10x_adc.c ****   /* Calculate the mask to clear: ((Rank-1)+(4-JL-1)) */
 975:./Libraries/STM32F10x_StdPeriph_Driver/src/stm32f10x_adc.c ****   tmpreg2 = JSQR_JSQ_Set << (5 * (uint8_t)((Rank + 3) - (tmpreg3 + 1)));
 1277              		.loc 1 975 3 is_stmt 1 view .LVU390
 1278              		.loc 1 975 55 is_stmt 0 view .LVU391
 1279 002a D31A     		subs	r3, r2, r3
 1280              	.LVL112:
 1281              		.loc 1 975 55 view .LVU392
 1282 002c DBB2     		uxtb	r3, r3
 1283              		.loc 1 975 34 view .LVU393
 1284 002e 0233     		adds	r3, r3, #2
 1285 0030 DBB2     		uxtb	r3, r3
 1286              		.loc 1 975 32 view .LVU394
 1287 0032 03EB8303 		add	r3, r3, r3, lsl #2
 1288              		.loc 1 975 11 view .LVU395
 1289 0036 1F22     		movs	r2, #31
 1290              	.LVL113:
 1291              		.loc 1 975 11 view .LVU396
 1292 0038 9A40     		lsls	r2, r2, r3
 1293              	.LVL114:
 976:./Libraries/STM32F10x_StdPeriph_Driver/src/stm32f10x_adc.c ****   /* Clear the old JSQx bits for the selected rank */
 977:./Libraries/STM32F10x_StdPeriph_Driver/src/stm32f10x_adc.c ****   tmpreg1 &= ~tmpreg2;
 1294              		.loc 1 977 3 is_stmt 1 view .LVU397
 1295              		.loc 1 977 11 is_stmt 0 view .LVU398
 1296 003a 24EA0204 		bic	r4, r4, r2
 1297              	.LVL115:
 978:./Libraries/STM32F10x_StdPeriph_Driver/src/stm32f10x_adc.c ****   /* Calculate the mask to set: ((Rank-1)+(4-JL-1)) */
ARM GAS  /tmp/cci4pFLa.s 			page 41


 979:./Libraries/STM32F10x_StdPeriph_Driver/src/stm32f10x_adc.c ****   tmpreg2 = (uint32_t)ADC_Channel << (5 * (uint8_t)((Rank + 3) - (tmpreg3 + 1)));
 1298              		.loc 1 979 3 is_stmt 1 view .LVU399
 1299              		.loc 1 979 11 is_stmt 0 view .LVU400
 1300 003e 9940     		lsls	r1, r1, r3
 1301              	.LVL116:
 980:./Libraries/STM32F10x_StdPeriph_Driver/src/stm32f10x_adc.c ****   /* Set the JSQx bits for the selected rank */
 981:./Libraries/STM32F10x_StdPeriph_Driver/src/stm32f10x_adc.c ****   tmpreg1 |= tmpreg2;
 1302              		.loc 1 981 3 is_stmt 1 view .LVU401
 1303              		.loc 1 981 11 is_stmt 0 view .LVU402
 1304 0040 2143     		orrs	r1, r1, r4
 1305              	.LVL117:
 982:./Libraries/STM32F10x_StdPeriph_Driver/src/stm32f10x_adc.c ****   /* Store the new register value */
 983:./Libraries/STM32F10x_StdPeriph_Driver/src/stm32f10x_adc.c ****   ADCx->JSQR = tmpreg1;
 1306              		.loc 1 983 3 is_stmt 1 view .LVU403
 1307              		.loc 1 983 14 is_stmt 0 view .LVU404
 1308 0042 8163     		str	r1, [r0, #56]
 984:./Libraries/STM32F10x_StdPeriph_Driver/src/stm32f10x_adc.c **** }
 1309              		.loc 1 984 1 view .LVU405
 1310 0044 30BC     		pop	{r4, r5}
 1311              	.LCFI5:
 1312              		.cfi_remember_state
 1313              		.cfi_restore 5
 1314              		.cfi_restore 4
 1315              		.cfi_def_cfa_offset 0
 1316 0046 7047     		bx	lr
 1317              	.LVL118:
 1318              	.L74:
 1319              	.LCFI6:
 1320              		.cfi_restore_state
 957:./Libraries/STM32F10x_StdPeriph_Driver/src/stm32f10x_adc.c ****     /* Calculate the mask to clear */
 1321              		.loc 1 957 5 is_stmt 1 view .LVU406
 957:./Libraries/STM32F10x_StdPeriph_Driver/src/stm32f10x_adc.c ****     /* Calculate the mask to clear */
 1322              		.loc 1 957 13 is_stmt 0 view .LVU407
 1323 0048 0469     		ldr	r4, [r0, #16]
 1324              	.LVL119:
 959:./Libraries/STM32F10x_StdPeriph_Driver/src/stm32f10x_adc.c ****     /* Clear the old channel sample time */
 1325              		.loc 1 959 5 is_stmt 1 view .LVU408
 959:./Libraries/STM32F10x_StdPeriph_Driver/src/stm32f10x_adc.c ****     /* Clear the old channel sample time */
 1326              		.loc 1 959 35 is_stmt 0 view .LVU409
 1327 004a 01EB410C 		add	ip, r1, r1, lsl #1
 959:./Libraries/STM32F10x_StdPeriph_Driver/src/stm32f10x_adc.c ****     /* Clear the old channel sample time */
 1328              		.loc 1 959 13 view .LVU410
 1329 004e 0725     		movs	r5, #7
 1330 0050 05FA0CF5 		lsl	r5, r5, ip
 1331              	.LVL120:
 961:./Libraries/STM32F10x_StdPeriph_Driver/src/stm32f10x_adc.c ****     /* Calculate the mask to set */
 1332              		.loc 1 961 5 is_stmt 1 view .LVU411
 961:./Libraries/STM32F10x_StdPeriph_Driver/src/stm32f10x_adc.c ****     /* Calculate the mask to set */
 1333              		.loc 1 961 13 is_stmt 0 view .LVU412
 1334 0054 24EA0504 		bic	r4, r4, r5
 1335              	.LVL121:
 963:./Libraries/STM32F10x_StdPeriph_Driver/src/stm32f10x_adc.c ****     /* Set the new channel sample time */
 1336              		.loc 1 963 5 is_stmt 1 view .LVU413
 963:./Libraries/STM32F10x_StdPeriph_Driver/src/stm32f10x_adc.c ****     /* Set the new channel sample time */
 1337              		.loc 1 963 13 is_stmt 0 view .LVU414
 1338 0058 03FA0CF3 		lsl	r3, r3, ip
 1339              	.LVL122:
ARM GAS  /tmp/cci4pFLa.s 			page 42


 965:./Libraries/STM32F10x_StdPeriph_Driver/src/stm32f10x_adc.c ****     /* Store the new register value */
 1340              		.loc 1 965 5 is_stmt 1 view .LVU415
 965:./Libraries/STM32F10x_StdPeriph_Driver/src/stm32f10x_adc.c ****     /* Store the new register value */
 1341              		.loc 1 965 13 is_stmt 0 view .LVU416
 1342 005c 2343     		orrs	r3, r3, r4
 1343              	.LVL123:
 967:./Libraries/STM32F10x_StdPeriph_Driver/src/stm32f10x_adc.c ****   }
 1344              		.loc 1 967 5 is_stmt 1 view .LVU417
 967:./Libraries/STM32F10x_StdPeriph_Driver/src/stm32f10x_adc.c ****   }
 1345              		.loc 1 967 17 is_stmt 0 view .LVU418
 1346 005e 0361     		str	r3, [r0, #16]
 1347 0060 E0E7     		b	.L75
 1348              		.cfi_endproc
 1349              	.LFE53:
 1351              		.section	.text.ADC_InjectedSequencerLengthConfig,"ax",%progbits
 1352              		.align	1
 1353              		.global	ADC_InjectedSequencerLengthConfig
 1354              		.syntax unified
 1355              		.thumb
 1356              		.thumb_func
 1357              		.fpu softvfp
 1359              	ADC_InjectedSequencerLengthConfig:
 1360              	.LVL124:
 1361              	.LFB54:
 985:./Libraries/STM32F10x_StdPeriph_Driver/src/stm32f10x_adc.c **** 
 986:./Libraries/STM32F10x_StdPeriph_Driver/src/stm32f10x_adc.c **** /**
 987:./Libraries/STM32F10x_StdPeriph_Driver/src/stm32f10x_adc.c ****   * @brief  Configures the sequencer length for injected channels
 988:./Libraries/STM32F10x_StdPeriph_Driver/src/stm32f10x_adc.c ****   * @param  ADCx: where x can be 1, 2 or 3 to select the ADC peripheral.
 989:./Libraries/STM32F10x_StdPeriph_Driver/src/stm32f10x_adc.c ****   * @param  Length: The sequencer length. 
 990:./Libraries/STM32F10x_StdPeriph_Driver/src/stm32f10x_adc.c ****   *   This parameter must be a number between 1 to 4.
 991:./Libraries/STM32F10x_StdPeriph_Driver/src/stm32f10x_adc.c ****   * @retval None
 992:./Libraries/STM32F10x_StdPeriph_Driver/src/stm32f10x_adc.c ****   */
 993:./Libraries/STM32F10x_StdPeriph_Driver/src/stm32f10x_adc.c **** void ADC_InjectedSequencerLengthConfig(ADC_TypeDef* ADCx, uint8_t Length)
 994:./Libraries/STM32F10x_StdPeriph_Driver/src/stm32f10x_adc.c **** {
 1362              		.loc 1 994 1 is_stmt 1 view -0
 1363              		.cfi_startproc
 1364              		@ args = 0, pretend = 0, frame = 0
 1365              		@ frame_needed = 0, uses_anonymous_args = 0
 1366              		@ link register save eliminated.
 995:./Libraries/STM32F10x_StdPeriph_Driver/src/stm32f10x_adc.c ****   uint32_t tmpreg1 = 0;
 1367              		.loc 1 995 3 view .LVU420
 996:./Libraries/STM32F10x_StdPeriph_Driver/src/stm32f10x_adc.c ****   uint32_t tmpreg2 = 0;
 1368              		.loc 1 996 3 view .LVU421
 997:./Libraries/STM32F10x_StdPeriph_Driver/src/stm32f10x_adc.c ****   /* Check the parameters */
 998:./Libraries/STM32F10x_StdPeriph_Driver/src/stm32f10x_adc.c ****   assert_param(IS_ADC_ALL_PERIPH(ADCx));
 1369              		.loc 1 998 3 view .LVU422
 999:./Libraries/STM32F10x_StdPeriph_Driver/src/stm32f10x_adc.c ****   assert_param(IS_ADC_INJECTED_LENGTH(Length));
 1370              		.loc 1 999 3 view .LVU423
1000:./Libraries/STM32F10x_StdPeriph_Driver/src/stm32f10x_adc.c ****   
1001:./Libraries/STM32F10x_StdPeriph_Driver/src/stm32f10x_adc.c ****   /* Get the old register value */
1002:./Libraries/STM32F10x_StdPeriph_Driver/src/stm32f10x_adc.c ****   tmpreg1 = ADCx->JSQR;
 1371              		.loc 1 1002 3 view .LVU424
 1372              		.loc 1 1002 11 is_stmt 0 view .LVU425
 1373 0000 836B     		ldr	r3, [r0, #56]
 1374              	.LVL125:
1003:./Libraries/STM32F10x_StdPeriph_Driver/src/stm32f10x_adc.c ****   /* Clear the old injected sequnence lenght JL bits */
1004:./Libraries/STM32F10x_StdPeriph_Driver/src/stm32f10x_adc.c ****   tmpreg1 &= JSQR_JL_Reset;
ARM GAS  /tmp/cci4pFLa.s 			page 43


 1375              		.loc 1 1004 3 is_stmt 1 view .LVU426
 1376              		.loc 1 1004 11 is_stmt 0 view .LVU427
 1377 0002 23F44013 		bic	r3, r3, #3145728
 1378              	.LVL126:
1005:./Libraries/STM32F10x_StdPeriph_Driver/src/stm32f10x_adc.c ****   /* Set the injected sequnence lenght JL bits */
1006:./Libraries/STM32F10x_StdPeriph_Driver/src/stm32f10x_adc.c ****   tmpreg2 = Length - 1; 
 1379              		.loc 1 1006 3 is_stmt 1 view .LVU428
 1380              		.loc 1 1006 20 is_stmt 0 view .LVU429
 1381 0006 0139     		subs	r1, r1, #1
 1382              	.LVL127:
1007:./Libraries/STM32F10x_StdPeriph_Driver/src/stm32f10x_adc.c ****   tmpreg1 |= tmpreg2 << 20;
 1383              		.loc 1 1007 3 is_stmt 1 view .LVU430
 1384              		.loc 1 1007 11 is_stmt 0 view .LVU431
 1385 0008 43EA0153 		orr	r3, r3, r1, lsl #20
 1386              	.LVL128:
1008:./Libraries/STM32F10x_StdPeriph_Driver/src/stm32f10x_adc.c ****   /* Store the new register value */
1009:./Libraries/STM32F10x_StdPeriph_Driver/src/stm32f10x_adc.c ****   ADCx->JSQR = tmpreg1;
 1387              		.loc 1 1009 3 is_stmt 1 view .LVU432
 1388              		.loc 1 1009 14 is_stmt 0 view .LVU433
 1389 000c 8363     		str	r3, [r0, #56]
1010:./Libraries/STM32F10x_StdPeriph_Driver/src/stm32f10x_adc.c **** }
 1390              		.loc 1 1010 1 view .LVU434
 1391 000e 7047     		bx	lr
 1392              		.cfi_endproc
 1393              	.LFE54:
 1395              		.section	.text.ADC_SetInjectedOffset,"ax",%progbits
 1396              		.align	1
 1397              		.global	ADC_SetInjectedOffset
 1398              		.syntax unified
 1399              		.thumb
 1400              		.thumb_func
 1401              		.fpu softvfp
 1403              	ADC_SetInjectedOffset:
 1404              	.LVL129:
 1405              	.LFB55:
1011:./Libraries/STM32F10x_StdPeriph_Driver/src/stm32f10x_adc.c **** 
1012:./Libraries/STM32F10x_StdPeriph_Driver/src/stm32f10x_adc.c **** /**
1013:./Libraries/STM32F10x_StdPeriph_Driver/src/stm32f10x_adc.c ****   * @brief  Set the injected channels conversion value offset
1014:./Libraries/STM32F10x_StdPeriph_Driver/src/stm32f10x_adc.c ****   * @param  ADCx: where x can be 1, 2 or 3 to select the ADC peripheral.
1015:./Libraries/STM32F10x_StdPeriph_Driver/src/stm32f10x_adc.c ****   * @param  ADC_InjectedChannel: the ADC injected channel to set its offset. 
1016:./Libraries/STM32F10x_StdPeriph_Driver/src/stm32f10x_adc.c ****   *   This parameter can be one of the following values:
1017:./Libraries/STM32F10x_StdPeriph_Driver/src/stm32f10x_adc.c ****   *     @arg ADC_InjectedChannel_1: Injected Channel1 selected
1018:./Libraries/STM32F10x_StdPeriph_Driver/src/stm32f10x_adc.c ****   *     @arg ADC_InjectedChannel_2: Injected Channel2 selected
1019:./Libraries/STM32F10x_StdPeriph_Driver/src/stm32f10x_adc.c ****   *     @arg ADC_InjectedChannel_3: Injected Channel3 selected
1020:./Libraries/STM32F10x_StdPeriph_Driver/src/stm32f10x_adc.c ****   *     @arg ADC_InjectedChannel_4: Injected Channel4 selected
1021:./Libraries/STM32F10x_StdPeriph_Driver/src/stm32f10x_adc.c ****   * @param  Offset: the offset value for the selected ADC injected channel
1022:./Libraries/STM32F10x_StdPeriph_Driver/src/stm32f10x_adc.c ****   *   This parameter must be a 12bit value.
1023:./Libraries/STM32F10x_StdPeriph_Driver/src/stm32f10x_adc.c ****   * @retval None
1024:./Libraries/STM32F10x_StdPeriph_Driver/src/stm32f10x_adc.c ****   */
1025:./Libraries/STM32F10x_StdPeriph_Driver/src/stm32f10x_adc.c **** void ADC_SetInjectedOffset(ADC_TypeDef* ADCx, uint8_t ADC_InjectedChannel, uint16_t Offset)
1026:./Libraries/STM32F10x_StdPeriph_Driver/src/stm32f10x_adc.c **** {
 1406              		.loc 1 1026 1 is_stmt 1 view -0
 1407              		.cfi_startproc
 1408              		@ args = 0, pretend = 0, frame = 8
 1409              		@ frame_needed = 0, uses_anonymous_args = 0
 1410              		@ link register save eliminated.
 1411              		.loc 1 1026 1 is_stmt 0 view .LVU436
ARM GAS  /tmp/cci4pFLa.s 			page 44


 1412 0000 82B0     		sub	sp, sp, #8
 1413              	.LCFI7:
 1414              		.cfi_def_cfa_offset 8
1027:./Libraries/STM32F10x_StdPeriph_Driver/src/stm32f10x_adc.c ****   __IO uint32_t tmp = 0;
 1415              		.loc 1 1027 3 is_stmt 1 view .LVU437
 1416              		.loc 1 1027 17 is_stmt 0 view .LVU438
 1417 0002 0023     		movs	r3, #0
 1418 0004 0193     		str	r3, [sp, #4]
1028:./Libraries/STM32F10x_StdPeriph_Driver/src/stm32f10x_adc.c ****   
1029:./Libraries/STM32F10x_StdPeriph_Driver/src/stm32f10x_adc.c ****   /* Check the parameters */
1030:./Libraries/STM32F10x_StdPeriph_Driver/src/stm32f10x_adc.c ****   assert_param(IS_ADC_ALL_PERIPH(ADCx));
 1419              		.loc 1 1030 3 is_stmt 1 view .LVU439
1031:./Libraries/STM32F10x_StdPeriph_Driver/src/stm32f10x_adc.c ****   assert_param(IS_ADC_INJECTED_CHANNEL(ADC_InjectedChannel));
 1420              		.loc 1 1031 3 view .LVU440
1032:./Libraries/STM32F10x_StdPeriph_Driver/src/stm32f10x_adc.c ****   assert_param(IS_ADC_OFFSET(Offset));  
 1421              		.loc 1 1032 3 view .LVU441
1033:./Libraries/STM32F10x_StdPeriph_Driver/src/stm32f10x_adc.c ****   
1034:./Libraries/STM32F10x_StdPeriph_Driver/src/stm32f10x_adc.c ****   tmp = (uint32_t)ADCx;
 1422              		.loc 1 1034 3 view .LVU442
 1423              		.loc 1 1034 7 is_stmt 0 view .LVU443
 1424 0006 0190     		str	r0, [sp, #4]
1035:./Libraries/STM32F10x_StdPeriph_Driver/src/stm32f10x_adc.c ****   tmp += ADC_InjectedChannel;
 1425              		.loc 1 1035 3 is_stmt 1 view .LVU444
 1426              		.loc 1 1035 7 is_stmt 0 view .LVU445
 1427 0008 019B     		ldr	r3, [sp, #4]
 1428 000a 1944     		add	r1, r1, r3
 1429              	.LVL130:
 1430              		.loc 1 1035 7 view .LVU446
 1431 000c 0191     		str	r1, [sp, #4]
1036:./Libraries/STM32F10x_StdPeriph_Driver/src/stm32f10x_adc.c ****   
1037:./Libraries/STM32F10x_StdPeriph_Driver/src/stm32f10x_adc.c ****   /* Set the selected injected channel data offset */
1038:./Libraries/STM32F10x_StdPeriph_Driver/src/stm32f10x_adc.c ****   *(__IO uint32_t *) tmp = (uint32_t)Offset;
 1432              		.loc 1 1038 3 is_stmt 1 view .LVU447
 1433              		.loc 1 1038 4 is_stmt 0 view .LVU448
 1434 000e 019B     		ldr	r3, [sp, #4]
 1435              		.loc 1 1038 26 view .LVU449
 1436 0010 1A60     		str	r2, [r3]
1039:./Libraries/STM32F10x_StdPeriph_Driver/src/stm32f10x_adc.c **** }
 1437              		.loc 1 1039 1 view .LVU450
 1438 0012 02B0     		add	sp, sp, #8
 1439              	.LCFI8:
 1440              		.cfi_def_cfa_offset 0
 1441              		@ sp needed
 1442 0014 7047     		bx	lr
 1443              		.cfi_endproc
 1444              	.LFE55:
 1446              		.section	.text.ADC_GetInjectedConversionValue,"ax",%progbits
 1447              		.align	1
 1448              		.global	ADC_GetInjectedConversionValue
 1449              		.syntax unified
 1450              		.thumb
 1451              		.thumb_func
 1452              		.fpu softvfp
 1454              	ADC_GetInjectedConversionValue:
 1455              	.LVL131:
 1456              	.LFB56:
1040:./Libraries/STM32F10x_StdPeriph_Driver/src/stm32f10x_adc.c **** 
ARM GAS  /tmp/cci4pFLa.s 			page 45


1041:./Libraries/STM32F10x_StdPeriph_Driver/src/stm32f10x_adc.c **** /**
1042:./Libraries/STM32F10x_StdPeriph_Driver/src/stm32f10x_adc.c ****   * @brief  Returns the ADC injected channel conversion result
1043:./Libraries/STM32F10x_StdPeriph_Driver/src/stm32f10x_adc.c ****   * @param  ADCx: where x can be 1, 2 or 3 to select the ADC peripheral.
1044:./Libraries/STM32F10x_StdPeriph_Driver/src/stm32f10x_adc.c ****   * @param  ADC_InjectedChannel: the converted ADC injected channel.
1045:./Libraries/STM32F10x_StdPeriph_Driver/src/stm32f10x_adc.c ****   *   This parameter can be one of the following values:
1046:./Libraries/STM32F10x_StdPeriph_Driver/src/stm32f10x_adc.c ****   *     @arg ADC_InjectedChannel_1: Injected Channel1 selected
1047:./Libraries/STM32F10x_StdPeriph_Driver/src/stm32f10x_adc.c ****   *     @arg ADC_InjectedChannel_2: Injected Channel2 selected
1048:./Libraries/STM32F10x_StdPeriph_Driver/src/stm32f10x_adc.c ****   *     @arg ADC_InjectedChannel_3: Injected Channel3 selected
1049:./Libraries/STM32F10x_StdPeriph_Driver/src/stm32f10x_adc.c ****   *     @arg ADC_InjectedChannel_4: Injected Channel4 selected
1050:./Libraries/STM32F10x_StdPeriph_Driver/src/stm32f10x_adc.c ****   * @retval The Data conversion value.
1051:./Libraries/STM32F10x_StdPeriph_Driver/src/stm32f10x_adc.c ****   */
1052:./Libraries/STM32F10x_StdPeriph_Driver/src/stm32f10x_adc.c **** uint16_t ADC_GetInjectedConversionValue(ADC_TypeDef* ADCx, uint8_t ADC_InjectedChannel)
1053:./Libraries/STM32F10x_StdPeriph_Driver/src/stm32f10x_adc.c **** {
 1457              		.loc 1 1053 1 is_stmt 1 view -0
 1458              		.cfi_startproc
 1459              		@ args = 0, pretend = 0, frame = 8
 1460              		@ frame_needed = 0, uses_anonymous_args = 0
 1461              		@ link register save eliminated.
 1462              		.loc 1 1053 1 is_stmt 0 view .LVU452
 1463 0000 82B0     		sub	sp, sp, #8
 1464              	.LCFI9:
 1465              		.cfi_def_cfa_offset 8
1054:./Libraries/STM32F10x_StdPeriph_Driver/src/stm32f10x_adc.c ****   __IO uint32_t tmp = 0;
 1466              		.loc 1 1054 3 is_stmt 1 view .LVU453
 1467              		.loc 1 1054 17 is_stmt 0 view .LVU454
 1468 0002 0023     		movs	r3, #0
 1469 0004 0193     		str	r3, [sp, #4]
1055:./Libraries/STM32F10x_StdPeriph_Driver/src/stm32f10x_adc.c ****   
1056:./Libraries/STM32F10x_StdPeriph_Driver/src/stm32f10x_adc.c ****   /* Check the parameters */
1057:./Libraries/STM32F10x_StdPeriph_Driver/src/stm32f10x_adc.c ****   assert_param(IS_ADC_ALL_PERIPH(ADCx));
 1470              		.loc 1 1057 3 is_stmt 1 view .LVU455
1058:./Libraries/STM32F10x_StdPeriph_Driver/src/stm32f10x_adc.c ****   assert_param(IS_ADC_INJECTED_CHANNEL(ADC_InjectedChannel));
 1471              		.loc 1 1058 3 view .LVU456
1059:./Libraries/STM32F10x_StdPeriph_Driver/src/stm32f10x_adc.c **** 
1060:./Libraries/STM32F10x_StdPeriph_Driver/src/stm32f10x_adc.c ****   tmp = (uint32_t)ADCx;
 1472              		.loc 1 1060 3 view .LVU457
 1473              		.loc 1 1060 7 is_stmt 0 view .LVU458
 1474 0006 0190     		str	r0, [sp, #4]
1061:./Libraries/STM32F10x_StdPeriph_Driver/src/stm32f10x_adc.c ****   tmp += ADC_InjectedChannel + JDR_Offset;
 1475              		.loc 1 1061 3 is_stmt 1 view .LVU459
 1476              		.loc 1 1061 7 is_stmt 0 view .LVU460
 1477 0008 019B     		ldr	r3, [sp, #4]
 1478 000a 1944     		add	r1, r1, r3
 1479              	.LVL132:
 1480              		.loc 1 1061 7 view .LVU461
 1481 000c 2831     		adds	r1, r1, #40
 1482 000e 0191     		str	r1, [sp, #4]
1062:./Libraries/STM32F10x_StdPeriph_Driver/src/stm32f10x_adc.c ****   
1063:./Libraries/STM32F10x_StdPeriph_Driver/src/stm32f10x_adc.c ****   /* Returns the selected injected channel conversion data value */
1064:./Libraries/STM32F10x_StdPeriph_Driver/src/stm32f10x_adc.c ****   return (uint16_t) (*(__IO uint32_t*)  tmp);   
 1483              		.loc 1 1064 3 is_stmt 1 view .LVU462
 1484              		.loc 1 1064 23 is_stmt 0 view .LVU463
 1485 0010 019B     		ldr	r3, [sp, #4]
 1486              		.loc 1 1064 22 view .LVU464
 1487 0012 1868     		ldr	r0, [r3]
 1488              	.LVL133:
1065:./Libraries/STM32F10x_StdPeriph_Driver/src/stm32f10x_adc.c **** }
ARM GAS  /tmp/cci4pFLa.s 			page 46


 1489              		.loc 1 1065 1 view .LVU465
 1490 0014 80B2     		uxth	r0, r0
 1491 0016 02B0     		add	sp, sp, #8
 1492              	.LCFI10:
 1493              		.cfi_def_cfa_offset 0
 1494              		@ sp needed
 1495 0018 7047     		bx	lr
 1496              		.cfi_endproc
 1497              	.LFE56:
 1499              		.section	.text.ADC_AnalogWatchdogCmd,"ax",%progbits
 1500              		.align	1
 1501              		.global	ADC_AnalogWatchdogCmd
 1502              		.syntax unified
 1503              		.thumb
 1504              		.thumb_func
 1505              		.fpu softvfp
 1507              	ADC_AnalogWatchdogCmd:
 1508              	.LVL134:
 1509              	.LFB57:
1066:./Libraries/STM32F10x_StdPeriph_Driver/src/stm32f10x_adc.c **** 
1067:./Libraries/STM32F10x_StdPeriph_Driver/src/stm32f10x_adc.c **** /**
1068:./Libraries/STM32F10x_StdPeriph_Driver/src/stm32f10x_adc.c ****   * @brief  Enables or disables the analog watchdog on single/all regular
1069:./Libraries/STM32F10x_StdPeriph_Driver/src/stm32f10x_adc.c ****   *         or injected channels
1070:./Libraries/STM32F10x_StdPeriph_Driver/src/stm32f10x_adc.c ****   * @param  ADCx: where x can be 1, 2 or 3 to select the ADC peripheral.
1071:./Libraries/STM32F10x_StdPeriph_Driver/src/stm32f10x_adc.c ****   * @param  ADC_AnalogWatchdog: the ADC analog watchdog configuration.
1072:./Libraries/STM32F10x_StdPeriph_Driver/src/stm32f10x_adc.c ****   *   This parameter can be one of the following values:
1073:./Libraries/STM32F10x_StdPeriph_Driver/src/stm32f10x_adc.c ****   *     @arg ADC_AnalogWatchdog_SingleRegEnable: Analog watchdog on a single regular channel
1074:./Libraries/STM32F10x_StdPeriph_Driver/src/stm32f10x_adc.c ****   *     @arg ADC_AnalogWatchdog_SingleInjecEnable: Analog watchdog on a single injected channel
1075:./Libraries/STM32F10x_StdPeriph_Driver/src/stm32f10x_adc.c ****   *     @arg ADC_AnalogWatchdog_SingleRegOrInjecEnable: Analog watchdog on a single regular or inje
1076:./Libraries/STM32F10x_StdPeriph_Driver/src/stm32f10x_adc.c ****   *     @arg ADC_AnalogWatchdog_AllRegEnable: Analog watchdog on  all regular channel
1077:./Libraries/STM32F10x_StdPeriph_Driver/src/stm32f10x_adc.c ****   *     @arg ADC_AnalogWatchdog_AllInjecEnable: Analog watchdog on  all injected channel
1078:./Libraries/STM32F10x_StdPeriph_Driver/src/stm32f10x_adc.c ****   *     @arg ADC_AnalogWatchdog_AllRegAllInjecEnable: Analog watchdog on all regular and injected c
1079:./Libraries/STM32F10x_StdPeriph_Driver/src/stm32f10x_adc.c ****   *     @arg ADC_AnalogWatchdog_None: No channel guarded by the analog watchdog
1080:./Libraries/STM32F10x_StdPeriph_Driver/src/stm32f10x_adc.c ****   * @retval None	  
1081:./Libraries/STM32F10x_StdPeriph_Driver/src/stm32f10x_adc.c ****   */
1082:./Libraries/STM32F10x_StdPeriph_Driver/src/stm32f10x_adc.c **** void ADC_AnalogWatchdogCmd(ADC_TypeDef* ADCx, uint32_t ADC_AnalogWatchdog)
1083:./Libraries/STM32F10x_StdPeriph_Driver/src/stm32f10x_adc.c **** {
 1510              		.loc 1 1083 1 is_stmt 1 view -0
 1511              		.cfi_startproc
 1512              		@ args = 0, pretend = 0, frame = 0
 1513              		@ frame_needed = 0, uses_anonymous_args = 0
 1514              		@ link register save eliminated.
1084:./Libraries/STM32F10x_StdPeriph_Driver/src/stm32f10x_adc.c ****   uint32_t tmpreg = 0;
 1515              		.loc 1 1084 3 view .LVU467
1085:./Libraries/STM32F10x_StdPeriph_Driver/src/stm32f10x_adc.c ****   /* Check the parameters */
1086:./Libraries/STM32F10x_StdPeriph_Driver/src/stm32f10x_adc.c ****   assert_param(IS_ADC_ALL_PERIPH(ADCx));
 1516              		.loc 1 1086 3 view .LVU468
1087:./Libraries/STM32F10x_StdPeriph_Driver/src/stm32f10x_adc.c ****   assert_param(IS_ADC_ANALOG_WATCHDOG(ADC_AnalogWatchdog));
 1517              		.loc 1 1087 3 view .LVU469
1088:./Libraries/STM32F10x_StdPeriph_Driver/src/stm32f10x_adc.c ****   /* Get the old register value */
1089:./Libraries/STM32F10x_StdPeriph_Driver/src/stm32f10x_adc.c ****   tmpreg = ADCx->CR1;
 1518              		.loc 1 1089 3 view .LVU470
 1519              		.loc 1 1089 10 is_stmt 0 view .LVU471
 1520 0000 4368     		ldr	r3, [r0, #4]
 1521              	.LVL135:
1090:./Libraries/STM32F10x_StdPeriph_Driver/src/stm32f10x_adc.c ****   /* Clear AWDEN, AWDENJ and AWDSGL bits */
1091:./Libraries/STM32F10x_StdPeriph_Driver/src/stm32f10x_adc.c ****   tmpreg &= CR1_AWDMode_Reset;
ARM GAS  /tmp/cci4pFLa.s 			page 47


 1522              		.loc 1 1091 3 is_stmt 1 view .LVU472
 1523              		.loc 1 1091 10 is_stmt 0 view .LVU473
 1524 0002 23F44003 		bic	r3, r3, #12582912
 1525              	.LVL136:
 1526              		.loc 1 1091 10 view .LVU474
 1527 0006 23F40073 		bic	r3, r3, #512
 1528              	.LVL137:
1092:./Libraries/STM32F10x_StdPeriph_Driver/src/stm32f10x_adc.c ****   /* Set the analog watchdog enable mode */
1093:./Libraries/STM32F10x_StdPeriph_Driver/src/stm32f10x_adc.c ****   tmpreg |= ADC_AnalogWatchdog;
 1529              		.loc 1 1093 3 is_stmt 1 view .LVU475
 1530              		.loc 1 1093 10 is_stmt 0 view .LVU476
 1531 000a 0B43     		orrs	r3, r3, r1
 1532              	.LVL138:
1094:./Libraries/STM32F10x_StdPeriph_Driver/src/stm32f10x_adc.c ****   /* Store the new register value */
1095:./Libraries/STM32F10x_StdPeriph_Driver/src/stm32f10x_adc.c ****   ADCx->CR1 = tmpreg;
 1533              		.loc 1 1095 3 is_stmt 1 view .LVU477
 1534              		.loc 1 1095 13 is_stmt 0 view .LVU478
 1535 000c 4360     		str	r3, [r0, #4]
1096:./Libraries/STM32F10x_StdPeriph_Driver/src/stm32f10x_adc.c **** }
 1536              		.loc 1 1096 1 view .LVU479
 1537 000e 7047     		bx	lr
 1538              		.cfi_endproc
 1539              	.LFE57:
 1541              		.section	.text.ADC_AnalogWatchdogThresholdsConfig,"ax",%progbits
 1542              		.align	1
 1543              		.global	ADC_AnalogWatchdogThresholdsConfig
 1544              		.syntax unified
 1545              		.thumb
 1546              		.thumb_func
 1547              		.fpu softvfp
 1549              	ADC_AnalogWatchdogThresholdsConfig:
 1550              	.LVL139:
 1551              	.LFB58:
1097:./Libraries/STM32F10x_StdPeriph_Driver/src/stm32f10x_adc.c **** 
1098:./Libraries/STM32F10x_StdPeriph_Driver/src/stm32f10x_adc.c **** /**
1099:./Libraries/STM32F10x_StdPeriph_Driver/src/stm32f10x_adc.c ****   * @brief  Configures the high and low thresholds of the analog watchdog.
1100:./Libraries/STM32F10x_StdPeriph_Driver/src/stm32f10x_adc.c ****   * @param  ADCx: where x can be 1, 2 or 3 to select the ADC peripheral.
1101:./Libraries/STM32F10x_StdPeriph_Driver/src/stm32f10x_adc.c ****   * @param  HighThreshold: the ADC analog watchdog High threshold value.
1102:./Libraries/STM32F10x_StdPeriph_Driver/src/stm32f10x_adc.c ****   *   This parameter must be a 12bit value.
1103:./Libraries/STM32F10x_StdPeriph_Driver/src/stm32f10x_adc.c ****   * @param  LowThreshold: the ADC analog watchdog Low threshold value.
1104:./Libraries/STM32F10x_StdPeriph_Driver/src/stm32f10x_adc.c ****   *   This parameter must be a 12bit value.
1105:./Libraries/STM32F10x_StdPeriph_Driver/src/stm32f10x_adc.c ****   * @retval None
1106:./Libraries/STM32F10x_StdPeriph_Driver/src/stm32f10x_adc.c ****   */
1107:./Libraries/STM32F10x_StdPeriph_Driver/src/stm32f10x_adc.c **** void ADC_AnalogWatchdogThresholdsConfig(ADC_TypeDef* ADCx, uint16_t HighThreshold,
1108:./Libraries/STM32F10x_StdPeriph_Driver/src/stm32f10x_adc.c ****                                         uint16_t LowThreshold)
1109:./Libraries/STM32F10x_StdPeriph_Driver/src/stm32f10x_adc.c **** {
 1552              		.loc 1 1109 1 is_stmt 1 view -0
 1553              		.cfi_startproc
 1554              		@ args = 0, pretend = 0, frame = 0
 1555              		@ frame_needed = 0, uses_anonymous_args = 0
 1556              		@ link register save eliminated.
1110:./Libraries/STM32F10x_StdPeriph_Driver/src/stm32f10x_adc.c ****   /* Check the parameters */
1111:./Libraries/STM32F10x_StdPeriph_Driver/src/stm32f10x_adc.c ****   assert_param(IS_ADC_ALL_PERIPH(ADCx));
 1557              		.loc 1 1111 3 view .LVU481
1112:./Libraries/STM32F10x_StdPeriph_Driver/src/stm32f10x_adc.c ****   assert_param(IS_ADC_THRESHOLD(HighThreshold));
 1558              		.loc 1 1112 3 view .LVU482
1113:./Libraries/STM32F10x_StdPeriph_Driver/src/stm32f10x_adc.c ****   assert_param(IS_ADC_THRESHOLD(LowThreshold));
ARM GAS  /tmp/cci4pFLa.s 			page 48


 1559              		.loc 1 1113 3 view .LVU483
1114:./Libraries/STM32F10x_StdPeriph_Driver/src/stm32f10x_adc.c ****   /* Set the ADCx high threshold */
1115:./Libraries/STM32F10x_StdPeriph_Driver/src/stm32f10x_adc.c ****   ADCx->HTR = HighThreshold;
 1560              		.loc 1 1115 3 view .LVU484
 1561              		.loc 1 1115 13 is_stmt 0 view .LVU485
 1562 0000 4162     		str	r1, [r0, #36]
1116:./Libraries/STM32F10x_StdPeriph_Driver/src/stm32f10x_adc.c ****   /* Set the ADCx low threshold */
1117:./Libraries/STM32F10x_StdPeriph_Driver/src/stm32f10x_adc.c ****   ADCx->LTR = LowThreshold;
 1563              		.loc 1 1117 3 is_stmt 1 view .LVU486
 1564              		.loc 1 1117 13 is_stmt 0 view .LVU487
 1565 0002 8262     		str	r2, [r0, #40]
1118:./Libraries/STM32F10x_StdPeriph_Driver/src/stm32f10x_adc.c **** }
 1566              		.loc 1 1118 1 view .LVU488
 1567 0004 7047     		bx	lr
 1568              		.cfi_endproc
 1569              	.LFE58:
 1571              		.section	.text.ADC_AnalogWatchdogSingleChannelConfig,"ax",%progbits
 1572              		.align	1
 1573              		.global	ADC_AnalogWatchdogSingleChannelConfig
 1574              		.syntax unified
 1575              		.thumb
 1576              		.thumb_func
 1577              		.fpu softvfp
 1579              	ADC_AnalogWatchdogSingleChannelConfig:
 1580              	.LVL140:
 1581              	.LFB59:
1119:./Libraries/STM32F10x_StdPeriph_Driver/src/stm32f10x_adc.c **** 
1120:./Libraries/STM32F10x_StdPeriph_Driver/src/stm32f10x_adc.c **** /**
1121:./Libraries/STM32F10x_StdPeriph_Driver/src/stm32f10x_adc.c ****   * @brief  Configures the analog watchdog guarded single channel
1122:./Libraries/STM32F10x_StdPeriph_Driver/src/stm32f10x_adc.c ****   * @param  ADCx: where x can be 1, 2 or 3 to select the ADC peripheral.
1123:./Libraries/STM32F10x_StdPeriph_Driver/src/stm32f10x_adc.c ****   * @param  ADC_Channel: the ADC channel to configure for the analog watchdog. 
1124:./Libraries/STM32F10x_StdPeriph_Driver/src/stm32f10x_adc.c ****   *   This parameter can be one of the following values:
1125:./Libraries/STM32F10x_StdPeriph_Driver/src/stm32f10x_adc.c ****   *     @arg ADC_Channel_0: ADC Channel0 selected
1126:./Libraries/STM32F10x_StdPeriph_Driver/src/stm32f10x_adc.c ****   *     @arg ADC_Channel_1: ADC Channel1 selected
1127:./Libraries/STM32F10x_StdPeriph_Driver/src/stm32f10x_adc.c ****   *     @arg ADC_Channel_2: ADC Channel2 selected
1128:./Libraries/STM32F10x_StdPeriph_Driver/src/stm32f10x_adc.c ****   *     @arg ADC_Channel_3: ADC Channel3 selected
1129:./Libraries/STM32F10x_StdPeriph_Driver/src/stm32f10x_adc.c ****   *     @arg ADC_Channel_4: ADC Channel4 selected
1130:./Libraries/STM32F10x_StdPeriph_Driver/src/stm32f10x_adc.c ****   *     @arg ADC_Channel_5: ADC Channel5 selected
1131:./Libraries/STM32F10x_StdPeriph_Driver/src/stm32f10x_adc.c ****   *     @arg ADC_Channel_6: ADC Channel6 selected
1132:./Libraries/STM32F10x_StdPeriph_Driver/src/stm32f10x_adc.c ****   *     @arg ADC_Channel_7: ADC Channel7 selected
1133:./Libraries/STM32F10x_StdPeriph_Driver/src/stm32f10x_adc.c ****   *     @arg ADC_Channel_8: ADC Channel8 selected
1134:./Libraries/STM32F10x_StdPeriph_Driver/src/stm32f10x_adc.c ****   *     @arg ADC_Channel_9: ADC Channel9 selected
1135:./Libraries/STM32F10x_StdPeriph_Driver/src/stm32f10x_adc.c ****   *     @arg ADC_Channel_10: ADC Channel10 selected
1136:./Libraries/STM32F10x_StdPeriph_Driver/src/stm32f10x_adc.c ****   *     @arg ADC_Channel_11: ADC Channel11 selected
1137:./Libraries/STM32F10x_StdPeriph_Driver/src/stm32f10x_adc.c ****   *     @arg ADC_Channel_12: ADC Channel12 selected
1138:./Libraries/STM32F10x_StdPeriph_Driver/src/stm32f10x_adc.c ****   *     @arg ADC_Channel_13: ADC Channel13 selected
1139:./Libraries/STM32F10x_StdPeriph_Driver/src/stm32f10x_adc.c ****   *     @arg ADC_Channel_14: ADC Channel14 selected
1140:./Libraries/STM32F10x_StdPeriph_Driver/src/stm32f10x_adc.c ****   *     @arg ADC_Channel_15: ADC Channel15 selected
1141:./Libraries/STM32F10x_StdPeriph_Driver/src/stm32f10x_adc.c ****   *     @arg ADC_Channel_16: ADC Channel16 selected
1142:./Libraries/STM32F10x_StdPeriph_Driver/src/stm32f10x_adc.c ****   *     @arg ADC_Channel_17: ADC Channel17 selected
1143:./Libraries/STM32F10x_StdPeriph_Driver/src/stm32f10x_adc.c ****   * @retval None
1144:./Libraries/STM32F10x_StdPeriph_Driver/src/stm32f10x_adc.c ****   */
1145:./Libraries/STM32F10x_StdPeriph_Driver/src/stm32f10x_adc.c **** void ADC_AnalogWatchdogSingleChannelConfig(ADC_TypeDef* ADCx, uint8_t ADC_Channel)
1146:./Libraries/STM32F10x_StdPeriph_Driver/src/stm32f10x_adc.c **** {
 1582              		.loc 1 1146 1 is_stmt 1 view -0
 1583              		.cfi_startproc
 1584              		@ args = 0, pretend = 0, frame = 0
ARM GAS  /tmp/cci4pFLa.s 			page 49


 1585              		@ frame_needed = 0, uses_anonymous_args = 0
 1586              		@ link register save eliminated.
1147:./Libraries/STM32F10x_StdPeriph_Driver/src/stm32f10x_adc.c ****   uint32_t tmpreg = 0;
 1587              		.loc 1 1147 3 view .LVU490
1148:./Libraries/STM32F10x_StdPeriph_Driver/src/stm32f10x_adc.c ****   /* Check the parameters */
1149:./Libraries/STM32F10x_StdPeriph_Driver/src/stm32f10x_adc.c ****   assert_param(IS_ADC_ALL_PERIPH(ADCx));
 1588              		.loc 1 1149 3 view .LVU491
1150:./Libraries/STM32F10x_StdPeriph_Driver/src/stm32f10x_adc.c ****   assert_param(IS_ADC_CHANNEL(ADC_Channel));
 1589              		.loc 1 1150 3 view .LVU492
1151:./Libraries/STM32F10x_StdPeriph_Driver/src/stm32f10x_adc.c ****   /* Get the old register value */
1152:./Libraries/STM32F10x_StdPeriph_Driver/src/stm32f10x_adc.c ****   tmpreg = ADCx->CR1;
 1590              		.loc 1 1152 3 view .LVU493
 1591              		.loc 1 1152 10 is_stmt 0 view .LVU494
 1592 0000 4368     		ldr	r3, [r0, #4]
 1593              	.LVL141:
1153:./Libraries/STM32F10x_StdPeriph_Driver/src/stm32f10x_adc.c ****   /* Clear the Analog watchdog channel select bits */
1154:./Libraries/STM32F10x_StdPeriph_Driver/src/stm32f10x_adc.c ****   tmpreg &= CR1_AWDCH_Reset;
 1594              		.loc 1 1154 3 is_stmt 1 view .LVU495
 1595              		.loc 1 1154 10 is_stmt 0 view .LVU496
 1596 0002 23F01F03 		bic	r3, r3, #31
 1597              	.LVL142:
1155:./Libraries/STM32F10x_StdPeriph_Driver/src/stm32f10x_adc.c ****   /* Set the Analog watchdog channel */
1156:./Libraries/STM32F10x_StdPeriph_Driver/src/stm32f10x_adc.c ****   tmpreg |= ADC_Channel;
 1598              		.loc 1 1156 3 is_stmt 1 view .LVU497
 1599              		.loc 1 1156 10 is_stmt 0 view .LVU498
 1600 0006 1943     		orrs	r1, r1, r3
 1601              	.LVL143:
1157:./Libraries/STM32F10x_StdPeriph_Driver/src/stm32f10x_adc.c ****   /* Store the new register value */
1158:./Libraries/STM32F10x_StdPeriph_Driver/src/stm32f10x_adc.c ****   ADCx->CR1 = tmpreg;
 1602              		.loc 1 1158 3 is_stmt 1 view .LVU499
 1603              		.loc 1 1158 13 is_stmt 0 view .LVU500
 1604 0008 4160     		str	r1, [r0, #4]
1159:./Libraries/STM32F10x_StdPeriph_Driver/src/stm32f10x_adc.c **** }
 1605              		.loc 1 1159 1 view .LVU501
 1606 000a 7047     		bx	lr
 1607              		.cfi_endproc
 1608              	.LFE59:
 1610              		.section	.text.ADC_TempSensorVrefintCmd,"ax",%progbits
 1611              		.align	1
 1612              		.global	ADC_TempSensorVrefintCmd
 1613              		.syntax unified
 1614              		.thumb
 1615              		.thumb_func
 1616              		.fpu softvfp
 1618              	ADC_TempSensorVrefintCmd:
 1619              	.LVL144:
 1620              	.LFB60:
1160:./Libraries/STM32F10x_StdPeriph_Driver/src/stm32f10x_adc.c **** 
1161:./Libraries/STM32F10x_StdPeriph_Driver/src/stm32f10x_adc.c **** /**
1162:./Libraries/STM32F10x_StdPeriph_Driver/src/stm32f10x_adc.c ****   * @brief  Enables or disables the temperature sensor and Vrefint channel.
1163:./Libraries/STM32F10x_StdPeriph_Driver/src/stm32f10x_adc.c ****   * @param  NewState: new state of the temperature sensor.
1164:./Libraries/STM32F10x_StdPeriph_Driver/src/stm32f10x_adc.c ****   *   This parameter can be: ENABLE or DISABLE.
1165:./Libraries/STM32F10x_StdPeriph_Driver/src/stm32f10x_adc.c ****   * @retval None
1166:./Libraries/STM32F10x_StdPeriph_Driver/src/stm32f10x_adc.c ****   */
1167:./Libraries/STM32F10x_StdPeriph_Driver/src/stm32f10x_adc.c **** void ADC_TempSensorVrefintCmd(FunctionalState NewState)
1168:./Libraries/STM32F10x_StdPeriph_Driver/src/stm32f10x_adc.c **** {
 1621              		.loc 1 1168 1 is_stmt 1 view -0
ARM GAS  /tmp/cci4pFLa.s 			page 50


 1622              		.cfi_startproc
 1623              		@ args = 0, pretend = 0, frame = 0
 1624              		@ frame_needed = 0, uses_anonymous_args = 0
 1625              		@ link register save eliminated.
1169:./Libraries/STM32F10x_StdPeriph_Driver/src/stm32f10x_adc.c ****   /* Check the parameters */
1170:./Libraries/STM32F10x_StdPeriph_Driver/src/stm32f10x_adc.c ****   assert_param(IS_FUNCTIONAL_STATE(NewState));
 1626              		.loc 1 1170 3 view .LVU503
1171:./Libraries/STM32F10x_StdPeriph_Driver/src/stm32f10x_adc.c ****   if (NewState != DISABLE)
 1627              		.loc 1 1171 3 view .LVU504
 1628              		.loc 1 1171 6 is_stmt 0 view .LVU505
 1629 0000 28B1     		cbz	r0, .L86
1172:./Libraries/STM32F10x_StdPeriph_Driver/src/stm32f10x_adc.c ****   {
1173:./Libraries/STM32F10x_StdPeriph_Driver/src/stm32f10x_adc.c ****     /* Enable the temperature sensor and Vrefint channel*/
1174:./Libraries/STM32F10x_StdPeriph_Driver/src/stm32f10x_adc.c ****     ADC1->CR2 |= CR2_TSVREFE_Set;
 1630              		.loc 1 1174 5 is_stmt 1 view .LVU506
 1631              		.loc 1 1174 15 is_stmt 0 view .LVU507
 1632 0002 064A     		ldr	r2, .L88
 1633 0004 9368     		ldr	r3, [r2, #8]
 1634 0006 43F40003 		orr	r3, r3, #8388608
 1635 000a 9360     		str	r3, [r2, #8]
 1636 000c 7047     		bx	lr
 1637              	.L86:
1175:./Libraries/STM32F10x_StdPeriph_Driver/src/stm32f10x_adc.c ****   }
1176:./Libraries/STM32F10x_StdPeriph_Driver/src/stm32f10x_adc.c ****   else
1177:./Libraries/STM32F10x_StdPeriph_Driver/src/stm32f10x_adc.c ****   {
1178:./Libraries/STM32F10x_StdPeriph_Driver/src/stm32f10x_adc.c ****     /* Disable the temperature sensor and Vrefint channel*/
1179:./Libraries/STM32F10x_StdPeriph_Driver/src/stm32f10x_adc.c ****     ADC1->CR2 &= CR2_TSVREFE_Reset;
 1638              		.loc 1 1179 5 is_stmt 1 view .LVU508
 1639              		.loc 1 1179 15 is_stmt 0 view .LVU509
 1640 000e 034A     		ldr	r2, .L88
 1641 0010 9368     		ldr	r3, [r2, #8]
 1642 0012 23F40003 		bic	r3, r3, #8388608
 1643 0016 9360     		str	r3, [r2, #8]
1180:./Libraries/STM32F10x_StdPeriph_Driver/src/stm32f10x_adc.c ****   }
1181:./Libraries/STM32F10x_StdPeriph_Driver/src/stm32f10x_adc.c **** }
 1644              		.loc 1 1181 1 view .LVU510
 1645 0018 7047     		bx	lr
 1646              	.L89:
 1647 001a 00BF     		.align	2
 1648              	.L88:
 1649 001c 00240140 		.word	1073816576
 1650              		.cfi_endproc
 1651              	.LFE60:
 1653              		.section	.text.ADC_GetFlagStatus,"ax",%progbits
 1654              		.align	1
 1655              		.global	ADC_GetFlagStatus
 1656              		.syntax unified
 1657              		.thumb
 1658              		.thumb_func
 1659              		.fpu softvfp
 1661              	ADC_GetFlagStatus:
 1662              	.LVL145:
 1663              	.LFB61:
1182:./Libraries/STM32F10x_StdPeriph_Driver/src/stm32f10x_adc.c **** 
1183:./Libraries/STM32F10x_StdPeriph_Driver/src/stm32f10x_adc.c **** /**
1184:./Libraries/STM32F10x_StdPeriph_Driver/src/stm32f10x_adc.c ****   * @brief  Checks whether the specified ADC flag is set or not.
1185:./Libraries/STM32F10x_StdPeriph_Driver/src/stm32f10x_adc.c ****   * @param  ADCx: where x can be 1, 2 or 3 to select the ADC peripheral.
ARM GAS  /tmp/cci4pFLa.s 			page 51


1186:./Libraries/STM32F10x_StdPeriph_Driver/src/stm32f10x_adc.c ****   * @param  ADC_FLAG: specifies the flag to check. 
1187:./Libraries/STM32F10x_StdPeriph_Driver/src/stm32f10x_adc.c ****   *   This parameter can be one of the following values:
1188:./Libraries/STM32F10x_StdPeriph_Driver/src/stm32f10x_adc.c ****   *     @arg ADC_FLAG_AWD: Analog watchdog flag
1189:./Libraries/STM32F10x_StdPeriph_Driver/src/stm32f10x_adc.c ****   *     @arg ADC_FLAG_EOC: End of conversion flag
1190:./Libraries/STM32F10x_StdPeriph_Driver/src/stm32f10x_adc.c ****   *     @arg ADC_FLAG_JEOC: End of injected group conversion flag
1191:./Libraries/STM32F10x_StdPeriph_Driver/src/stm32f10x_adc.c ****   *     @arg ADC_FLAG_JSTRT: Start of injected group conversion flag
1192:./Libraries/STM32F10x_StdPeriph_Driver/src/stm32f10x_adc.c ****   *     @arg ADC_FLAG_STRT: Start of regular group conversion flag
1193:./Libraries/STM32F10x_StdPeriph_Driver/src/stm32f10x_adc.c ****   * @retval The new state of ADC_FLAG (SET or RESET).
1194:./Libraries/STM32F10x_StdPeriph_Driver/src/stm32f10x_adc.c ****   */
1195:./Libraries/STM32F10x_StdPeriph_Driver/src/stm32f10x_adc.c **** FlagStatus ADC_GetFlagStatus(ADC_TypeDef* ADCx, uint8_t ADC_FLAG)
1196:./Libraries/STM32F10x_StdPeriph_Driver/src/stm32f10x_adc.c **** {
 1664              		.loc 1 1196 1 is_stmt 1 view -0
 1665              		.cfi_startproc
 1666              		@ args = 0, pretend = 0, frame = 0
 1667              		@ frame_needed = 0, uses_anonymous_args = 0
 1668              		@ link register save eliminated.
1197:./Libraries/STM32F10x_StdPeriph_Driver/src/stm32f10x_adc.c ****   FlagStatus bitstatus = RESET;
 1669              		.loc 1 1197 3 view .LVU512
1198:./Libraries/STM32F10x_StdPeriph_Driver/src/stm32f10x_adc.c ****   /* Check the parameters */
1199:./Libraries/STM32F10x_StdPeriph_Driver/src/stm32f10x_adc.c ****   assert_param(IS_ADC_ALL_PERIPH(ADCx));
 1670              		.loc 1 1199 3 view .LVU513
1200:./Libraries/STM32F10x_StdPeriph_Driver/src/stm32f10x_adc.c ****   assert_param(IS_ADC_GET_FLAG(ADC_FLAG));
 1671              		.loc 1 1200 3 view .LVU514
1201:./Libraries/STM32F10x_StdPeriph_Driver/src/stm32f10x_adc.c ****   /* Check the status of the specified ADC flag */
1202:./Libraries/STM32F10x_StdPeriph_Driver/src/stm32f10x_adc.c ****   if ((ADCx->SR & ADC_FLAG) != (uint8_t)RESET)
 1672              		.loc 1 1202 3 view .LVU515
 1673              		.loc 1 1202 12 is_stmt 0 view .LVU516
 1674 0000 0368     		ldr	r3, [r0]
 1675              		.loc 1 1202 6 view .LVU517
 1676 0002 1942     		tst	r1, r3
 1677 0004 01D0     		beq	.L92
1203:./Libraries/STM32F10x_StdPeriph_Driver/src/stm32f10x_adc.c ****   {
1204:./Libraries/STM32F10x_StdPeriph_Driver/src/stm32f10x_adc.c ****     /* ADC_FLAG is set */
1205:./Libraries/STM32F10x_StdPeriph_Driver/src/stm32f10x_adc.c ****     bitstatus = SET;
 1678              		.loc 1 1205 15 view .LVU518
 1679 0006 0120     		movs	r0, #1
 1680              	.LVL146:
 1681              		.loc 1 1205 15 view .LVU519
 1682 0008 7047     		bx	lr
 1683              	.LVL147:
 1684              	.L92:
1206:./Libraries/STM32F10x_StdPeriph_Driver/src/stm32f10x_adc.c ****   }
1207:./Libraries/STM32F10x_StdPeriph_Driver/src/stm32f10x_adc.c ****   else
1208:./Libraries/STM32F10x_StdPeriph_Driver/src/stm32f10x_adc.c ****   {
1209:./Libraries/STM32F10x_StdPeriph_Driver/src/stm32f10x_adc.c ****     /* ADC_FLAG is reset */
1210:./Libraries/STM32F10x_StdPeriph_Driver/src/stm32f10x_adc.c ****     bitstatus = RESET;
 1685              		.loc 1 1210 15 view .LVU520
 1686 000a 0020     		movs	r0, #0
 1687              	.LVL148:
1211:./Libraries/STM32F10x_StdPeriph_Driver/src/stm32f10x_adc.c ****   }
1212:./Libraries/STM32F10x_StdPeriph_Driver/src/stm32f10x_adc.c ****   /* Return the ADC_FLAG status */
1213:./Libraries/STM32F10x_StdPeriph_Driver/src/stm32f10x_adc.c ****   return  bitstatus;
 1688              		.loc 1 1213 3 is_stmt 1 view .LVU521
1214:./Libraries/STM32F10x_StdPeriph_Driver/src/stm32f10x_adc.c **** }
 1689              		.loc 1 1214 1 is_stmt 0 view .LVU522
 1690 000c 7047     		bx	lr
 1691              		.cfi_endproc
ARM GAS  /tmp/cci4pFLa.s 			page 52


 1692              	.LFE61:
 1694              		.section	.text.ADC_ClearFlag,"ax",%progbits
 1695              		.align	1
 1696              		.global	ADC_ClearFlag
 1697              		.syntax unified
 1698              		.thumb
 1699              		.thumb_func
 1700              		.fpu softvfp
 1702              	ADC_ClearFlag:
 1703              	.LVL149:
 1704              	.LFB62:
1215:./Libraries/STM32F10x_StdPeriph_Driver/src/stm32f10x_adc.c **** 
1216:./Libraries/STM32F10x_StdPeriph_Driver/src/stm32f10x_adc.c **** /**
1217:./Libraries/STM32F10x_StdPeriph_Driver/src/stm32f10x_adc.c ****   * @brief  Clears the ADCx's pending flags.
1218:./Libraries/STM32F10x_StdPeriph_Driver/src/stm32f10x_adc.c ****   * @param  ADCx: where x can be 1, 2 or 3 to select the ADC peripheral.
1219:./Libraries/STM32F10x_StdPeriph_Driver/src/stm32f10x_adc.c ****   * @param  ADC_FLAG: specifies the flag to clear. 
1220:./Libraries/STM32F10x_StdPeriph_Driver/src/stm32f10x_adc.c ****   *   This parameter can be any combination of the following values:
1221:./Libraries/STM32F10x_StdPeriph_Driver/src/stm32f10x_adc.c ****   *     @arg ADC_FLAG_AWD: Analog watchdog flag
1222:./Libraries/STM32F10x_StdPeriph_Driver/src/stm32f10x_adc.c ****   *     @arg ADC_FLAG_EOC: End of conversion flag
1223:./Libraries/STM32F10x_StdPeriph_Driver/src/stm32f10x_adc.c ****   *     @arg ADC_FLAG_JEOC: End of injected group conversion flag
1224:./Libraries/STM32F10x_StdPeriph_Driver/src/stm32f10x_adc.c ****   *     @arg ADC_FLAG_JSTRT: Start of injected group conversion flag
1225:./Libraries/STM32F10x_StdPeriph_Driver/src/stm32f10x_adc.c ****   *     @arg ADC_FLAG_STRT: Start of regular group conversion flag
1226:./Libraries/STM32F10x_StdPeriph_Driver/src/stm32f10x_adc.c ****   * @retval None
1227:./Libraries/STM32F10x_StdPeriph_Driver/src/stm32f10x_adc.c ****   */
1228:./Libraries/STM32F10x_StdPeriph_Driver/src/stm32f10x_adc.c **** void ADC_ClearFlag(ADC_TypeDef* ADCx, uint8_t ADC_FLAG)
1229:./Libraries/STM32F10x_StdPeriph_Driver/src/stm32f10x_adc.c **** {
 1705              		.loc 1 1229 1 is_stmt 1 view -0
 1706              		.cfi_startproc
 1707              		@ args = 0, pretend = 0, frame = 0
 1708              		@ frame_needed = 0, uses_anonymous_args = 0
 1709              		@ link register save eliminated.
1230:./Libraries/STM32F10x_StdPeriph_Driver/src/stm32f10x_adc.c ****   /* Check the parameters */
1231:./Libraries/STM32F10x_StdPeriph_Driver/src/stm32f10x_adc.c ****   assert_param(IS_ADC_ALL_PERIPH(ADCx));
 1710              		.loc 1 1231 3 view .LVU524
1232:./Libraries/STM32F10x_StdPeriph_Driver/src/stm32f10x_adc.c ****   assert_param(IS_ADC_CLEAR_FLAG(ADC_FLAG));
 1711              		.loc 1 1232 3 view .LVU525
1233:./Libraries/STM32F10x_StdPeriph_Driver/src/stm32f10x_adc.c ****   /* Clear the selected ADC flags */
1234:./Libraries/STM32F10x_StdPeriph_Driver/src/stm32f10x_adc.c ****   ADCx->SR = ~(uint32_t)ADC_FLAG;
 1712              		.loc 1 1234 3 view .LVU526
 1713              		.loc 1 1234 14 is_stmt 0 view .LVU527
 1714 0000 C943     		mvns	r1, r1
 1715              	.LVL150:
 1716              		.loc 1 1234 12 view .LVU528
 1717 0002 0160     		str	r1, [r0]
1235:./Libraries/STM32F10x_StdPeriph_Driver/src/stm32f10x_adc.c **** }
 1718              		.loc 1 1235 1 view .LVU529
 1719 0004 7047     		bx	lr
 1720              		.cfi_endproc
 1721              	.LFE62:
 1723              		.section	.text.ADC_GetITStatus,"ax",%progbits
 1724              		.align	1
 1725              		.global	ADC_GetITStatus
 1726              		.syntax unified
 1727              		.thumb
 1728              		.thumb_func
 1729              		.fpu softvfp
 1731              	ADC_GetITStatus:
ARM GAS  /tmp/cci4pFLa.s 			page 53


 1732              	.LVL151:
 1733              	.LFB63:
1236:./Libraries/STM32F10x_StdPeriph_Driver/src/stm32f10x_adc.c **** 
1237:./Libraries/STM32F10x_StdPeriph_Driver/src/stm32f10x_adc.c **** /**
1238:./Libraries/STM32F10x_StdPeriph_Driver/src/stm32f10x_adc.c ****   * @brief  Checks whether the specified ADC interrupt has occurred or not.
1239:./Libraries/STM32F10x_StdPeriph_Driver/src/stm32f10x_adc.c ****   * @param  ADCx: where x can be 1, 2 or 3 to select the ADC peripheral.
1240:./Libraries/STM32F10x_StdPeriph_Driver/src/stm32f10x_adc.c ****   * @param  ADC_IT: specifies the ADC interrupt source to check. 
1241:./Libraries/STM32F10x_StdPeriph_Driver/src/stm32f10x_adc.c ****   *   This parameter can be one of the following values:
1242:./Libraries/STM32F10x_StdPeriph_Driver/src/stm32f10x_adc.c ****   *     @arg ADC_IT_EOC: End of conversion interrupt mask
1243:./Libraries/STM32F10x_StdPeriph_Driver/src/stm32f10x_adc.c ****   *     @arg ADC_IT_AWD: Analog watchdog interrupt mask
1244:./Libraries/STM32F10x_StdPeriph_Driver/src/stm32f10x_adc.c ****   *     @arg ADC_IT_JEOC: End of injected conversion interrupt mask
1245:./Libraries/STM32F10x_StdPeriph_Driver/src/stm32f10x_adc.c ****   * @retval The new state of ADC_IT (SET or RESET).
1246:./Libraries/STM32F10x_StdPeriph_Driver/src/stm32f10x_adc.c ****   */
1247:./Libraries/STM32F10x_StdPeriph_Driver/src/stm32f10x_adc.c **** ITStatus ADC_GetITStatus(ADC_TypeDef* ADCx, uint16_t ADC_IT)
1248:./Libraries/STM32F10x_StdPeriph_Driver/src/stm32f10x_adc.c **** {
 1734              		.loc 1 1248 1 is_stmt 1 view -0
 1735              		.cfi_startproc
 1736              		@ args = 0, pretend = 0, frame = 0
 1737              		@ frame_needed = 0, uses_anonymous_args = 0
 1738              		@ link register save eliminated.
1249:./Libraries/STM32F10x_StdPeriph_Driver/src/stm32f10x_adc.c ****   ITStatus bitstatus = RESET;
 1739              		.loc 1 1249 3 view .LVU531
1250:./Libraries/STM32F10x_StdPeriph_Driver/src/stm32f10x_adc.c ****   uint32_t itmask = 0, enablestatus = 0;
 1740              		.loc 1 1250 3 view .LVU532
1251:./Libraries/STM32F10x_StdPeriph_Driver/src/stm32f10x_adc.c ****   /* Check the parameters */
1252:./Libraries/STM32F10x_StdPeriph_Driver/src/stm32f10x_adc.c ****   assert_param(IS_ADC_ALL_PERIPH(ADCx));
 1741              		.loc 1 1252 3 view .LVU533
1253:./Libraries/STM32F10x_StdPeriph_Driver/src/stm32f10x_adc.c ****   assert_param(IS_ADC_GET_IT(ADC_IT));
 1742              		.loc 1 1253 3 view .LVU534
1254:./Libraries/STM32F10x_StdPeriph_Driver/src/stm32f10x_adc.c ****   /* Get the ADC IT index */
1255:./Libraries/STM32F10x_StdPeriph_Driver/src/stm32f10x_adc.c ****   itmask = ADC_IT >> 8;
 1743              		.loc 1 1255 3 view .LVU535
1256:./Libraries/STM32F10x_StdPeriph_Driver/src/stm32f10x_adc.c ****   /* Get the ADC_IT enable bit status */
1257:./Libraries/STM32F10x_StdPeriph_Driver/src/stm32f10x_adc.c ****   enablestatus = (ADCx->CR1 & (uint8_t)ADC_IT) ;
 1744              		.loc 1 1257 3 view .LVU536
 1745              		.loc 1 1257 23 is_stmt 0 view .LVU537
 1746 0000 4368     		ldr	r3, [r0, #4]
 1747              		.loc 1 1257 31 view .LVU538
 1748 0002 CAB2     		uxtb	r2, r1
 1749              		.loc 1 1257 16 view .LVU539
 1750 0004 1340     		ands	r3, r3, r2
 1751              	.LVL152:
1258:./Libraries/STM32F10x_StdPeriph_Driver/src/stm32f10x_adc.c ****   /* Check the status of the specified ADC interrupt */
1259:./Libraries/STM32F10x_StdPeriph_Driver/src/stm32f10x_adc.c ****   if (((ADCx->SR & itmask) != (uint32_t)RESET) && enablestatus)
 1752              		.loc 1 1259 3 is_stmt 1 view .LVU540
 1753              		.loc 1 1259 13 is_stmt 0 view .LVU541
 1754 0006 0268     		ldr	r2, [r0]
 1755              		.loc 1 1259 6 view .LVU542
 1756 0008 12EA1122 		ands	r2, r2, r1, lsr #8
 1757 000c 02D0     		beq	.L96
 1758              		.loc 1 1259 48 discriminator 1 view .LVU543
 1759 000e 1BB9     		cbnz	r3, .L97
1260:./Libraries/STM32F10x_StdPeriph_Driver/src/stm32f10x_adc.c ****   {
1261:./Libraries/STM32F10x_StdPeriph_Driver/src/stm32f10x_adc.c ****     /* ADC_IT is set */
1262:./Libraries/STM32F10x_StdPeriph_Driver/src/stm32f10x_adc.c ****     bitstatus = SET;
1263:./Libraries/STM32F10x_StdPeriph_Driver/src/stm32f10x_adc.c ****   }
1264:./Libraries/STM32F10x_StdPeriph_Driver/src/stm32f10x_adc.c ****   else
ARM GAS  /tmp/cci4pFLa.s 			page 54


1265:./Libraries/STM32F10x_StdPeriph_Driver/src/stm32f10x_adc.c ****   {
1266:./Libraries/STM32F10x_StdPeriph_Driver/src/stm32f10x_adc.c ****     /* ADC_IT is reset */
1267:./Libraries/STM32F10x_StdPeriph_Driver/src/stm32f10x_adc.c ****     bitstatus = RESET;
 1760              		.loc 1 1267 15 view .LVU544
 1761 0010 0020     		movs	r0, #0
 1762              	.LVL153:
 1763              		.loc 1 1267 15 view .LVU545
 1764 0012 7047     		bx	lr
 1765              	.LVL154:
 1766              	.L96:
 1767              		.loc 1 1267 15 view .LVU546
 1768 0014 0020     		movs	r0, #0
 1769              	.LVL155:
 1770              		.loc 1 1267 15 view .LVU547
 1771 0016 7047     		bx	lr
 1772              	.LVL156:
 1773              	.L97:
1262:./Libraries/STM32F10x_StdPeriph_Driver/src/stm32f10x_adc.c ****   }
 1774              		.loc 1 1262 15 view .LVU548
 1775 0018 0120     		movs	r0, #1
 1776              	.LVL157:
1268:./Libraries/STM32F10x_StdPeriph_Driver/src/stm32f10x_adc.c ****   }
1269:./Libraries/STM32F10x_StdPeriph_Driver/src/stm32f10x_adc.c ****   /* Return the ADC_IT status */
1270:./Libraries/STM32F10x_StdPeriph_Driver/src/stm32f10x_adc.c ****   return  bitstatus;
 1777              		.loc 1 1270 3 is_stmt 1 view .LVU549
1271:./Libraries/STM32F10x_StdPeriph_Driver/src/stm32f10x_adc.c **** }
 1778              		.loc 1 1271 1 is_stmt 0 view .LVU550
 1779 001a 7047     		bx	lr
 1780              		.cfi_endproc
 1781              	.LFE63:
 1783              		.section	.text.ADC_ClearITPendingBit,"ax",%progbits
 1784              		.align	1
 1785              		.global	ADC_ClearITPendingBit
 1786              		.syntax unified
 1787              		.thumb
 1788              		.thumb_func
 1789              		.fpu softvfp
 1791              	ADC_ClearITPendingBit:
 1792              	.LVL158:
 1793              	.LFB64:
1272:./Libraries/STM32F10x_StdPeriph_Driver/src/stm32f10x_adc.c **** 
1273:./Libraries/STM32F10x_StdPeriph_Driver/src/stm32f10x_adc.c **** /**
1274:./Libraries/STM32F10x_StdPeriph_Driver/src/stm32f10x_adc.c ****   * @brief  Clears the ADCx's interrupt pending bits.
1275:./Libraries/STM32F10x_StdPeriph_Driver/src/stm32f10x_adc.c ****   * @param  ADCx: where x can be 1, 2 or 3 to select the ADC peripheral.
1276:./Libraries/STM32F10x_StdPeriph_Driver/src/stm32f10x_adc.c ****   * @param  ADC_IT: specifies the ADC interrupt pending bit to clear.
1277:./Libraries/STM32F10x_StdPeriph_Driver/src/stm32f10x_adc.c ****   *   This parameter can be any combination of the following values:
1278:./Libraries/STM32F10x_StdPeriph_Driver/src/stm32f10x_adc.c ****   *     @arg ADC_IT_EOC: End of conversion interrupt mask
1279:./Libraries/STM32F10x_StdPeriph_Driver/src/stm32f10x_adc.c ****   *     @arg ADC_IT_AWD: Analog watchdog interrupt mask
1280:./Libraries/STM32F10x_StdPeriph_Driver/src/stm32f10x_adc.c ****   *     @arg ADC_IT_JEOC: End of injected conversion interrupt mask
1281:./Libraries/STM32F10x_StdPeriph_Driver/src/stm32f10x_adc.c ****   * @retval None
1282:./Libraries/STM32F10x_StdPeriph_Driver/src/stm32f10x_adc.c ****   */
1283:./Libraries/STM32F10x_StdPeriph_Driver/src/stm32f10x_adc.c **** void ADC_ClearITPendingBit(ADC_TypeDef* ADCx, uint16_t ADC_IT)
1284:./Libraries/STM32F10x_StdPeriph_Driver/src/stm32f10x_adc.c **** {
 1794              		.loc 1 1284 1 is_stmt 1 view -0
 1795              		.cfi_startproc
 1796              		@ args = 0, pretend = 0, frame = 0
 1797              		@ frame_needed = 0, uses_anonymous_args = 0
ARM GAS  /tmp/cci4pFLa.s 			page 55


 1798              		@ link register save eliminated.
1285:./Libraries/STM32F10x_StdPeriph_Driver/src/stm32f10x_adc.c ****   uint8_t itmask = 0;
 1799              		.loc 1 1285 3 view .LVU552
1286:./Libraries/STM32F10x_StdPeriph_Driver/src/stm32f10x_adc.c ****   /* Check the parameters */
1287:./Libraries/STM32F10x_StdPeriph_Driver/src/stm32f10x_adc.c ****   assert_param(IS_ADC_ALL_PERIPH(ADCx));
 1800              		.loc 1 1287 3 view .LVU553
1288:./Libraries/STM32F10x_StdPeriph_Driver/src/stm32f10x_adc.c ****   assert_param(IS_ADC_IT(ADC_IT));
 1801              		.loc 1 1288 3 view .LVU554
1289:./Libraries/STM32F10x_StdPeriph_Driver/src/stm32f10x_adc.c ****   /* Get the ADC IT index */
1290:./Libraries/STM32F10x_StdPeriph_Driver/src/stm32f10x_adc.c ****   itmask = (uint8_t)(ADC_IT >> 8);
 1802              		.loc 1 1290 3 view .LVU555
1291:./Libraries/STM32F10x_StdPeriph_Driver/src/stm32f10x_adc.c ****   /* Clear the selected ADC interrupt pending bits */
1292:./Libraries/STM32F10x_StdPeriph_Driver/src/stm32f10x_adc.c ****   ADCx->SR = ~(uint32_t)itmask;
 1803              		.loc 1 1292 3 view .LVU556
 1804              		.loc 1 1292 14 is_stmt 0 view .LVU557
 1805 0000 6FEA1121 		mvn	r1, r1, lsr #8
 1806              	.LVL159:
 1807              		.loc 1 1292 12 view .LVU558
 1808 0004 0160     		str	r1, [r0]
1293:./Libraries/STM32F10x_StdPeriph_Driver/src/stm32f10x_adc.c **** }
 1809              		.loc 1 1293 1 view .LVU559
 1810 0006 7047     		bx	lr
 1811              		.cfi_endproc
 1812              	.LFE64:
 1814              		.text
 1815              	.Letext0:
 1816              		.file 2 "/home/hao/Documents/gcc-arm-none-eabi/arm-none-eabi/include/machine/_default_types.h"
 1817              		.file 3 "/home/hao/Documents/gcc-arm-none-eabi/arm-none-eabi/include/sys/_stdint.h"
 1818              		.file 4 "./Libraries/CMSIS/stm32f10x.h"
 1819              		.file 5 "./Libraries/STM32F10x_StdPeriph_Driver/inc/stm32f10x_adc.h"
 1820              		.file 6 "./Libraries/STM32F10x_StdPeriph_Driver/inc/stm32f10x_rcc.h"
ARM GAS  /tmp/cci4pFLa.s 			page 56

