ARM GAS  /tmp/ccFuWQ5p.s 			page 1


   1              		.cpu cortex-m3
   2              		.eabi_attribute 20, 1
   3              		.eabi_attribute 21, 1
   4              		.eabi_attribute 23, 3
   5              		.eabi_attribute 24, 1
   6              		.eabi_attribute 25, 1
   7              		.eabi_attribute 26, 1
   8              		.eabi_attribute 30, 1
   9              		.eabi_attribute 34, 1
  10              		.eabi_attribute 18, 4
  11              		.file	"stm32f10x_it.c"
  12              		.text
  13              	.Ltext0:
  14              		.cfi_sections	.debug_frame
  15              		.section	.text.NMI_Handler,"ax",%progbits
  16              		.align	1
  17              		.global	NMI_Handler
  18              		.arch armv7-m
  19              		.syntax unified
  20              		.thumb
  21              		.thumb_func
  22              		.fpu softvfp
  24              	NMI_Handler:
  25              	.LFB29:
  26              		.file 1 "./User/Src/stm32f10x_it.c"
   1:./User/Src/stm32f10x_it.c **** /**
   2:./User/Src/stm32f10x_it.c ****   ******************************************************************************
   3:./User/Src/stm32f10x_it.c ****   * @file    Project/STM32F10x_StdPeriph_Template/stm32f10x_it.c 
   4:./User/Src/stm32f10x_it.c ****   * @author  MCD Application Team
   5:./User/Src/stm32f10x_it.c ****   * @version V3.5.0
   6:./User/Src/stm32f10x_it.c ****   * @date    08-April-2011
   7:./User/Src/stm32f10x_it.c ****   * @brief   Main Interrupt Service Routines.
   8:./User/Src/stm32f10x_it.c ****   *          This file provides template for all exceptions handler and 
   9:./User/Src/stm32f10x_it.c ****   *          peripherals interrupt service routine.
  10:./User/Src/stm32f10x_it.c ****   ******************************************************************************
  11:./User/Src/stm32f10x_it.c ****   * @attention
  12:./User/Src/stm32f10x_it.c ****   *
  13:./User/Src/stm32f10x_it.c ****   * THE PRESENT FIRMWARE WHICH IS FOR GUIDANCE ONLY AIMS AT PROVIDING CUSTOMERS
  14:./User/Src/stm32f10x_it.c ****   * WITH CODING INFORMATION REGARDING THEIR PRODUCTS IN ORDER FOR THEM TO SAVE
  15:./User/Src/stm32f10x_it.c ****   * TIME. AS A RESULT, STMICROELECTRONICS SHALL NOT BE HELD LIABLE FOR ANY
  16:./User/Src/stm32f10x_it.c ****   * DIRECT, INDIRECT OR CONSEQUENTI
  17:./User/Src/stm32f10x_it.c ****   
  18:./User/Src/stm32f10x_it.c ****   AL DAMAGES WITH RESPECT TO ANY CLAIMS ARISING
  19:./User/Src/stm32f10x_it.c ****   * FROM THE CONTENT OF SUCH FIRMWARE AND/OR THE USE MADE BY CUSTOMERS OF THE
  20:./User/Src/stm32f10x_it.c ****   * CODING INFORMATION CONTAINED HEREIN IN CONNECTION WITH THEIR PRODUCTS.
  21:./User/Src/stm32f10x_it.c ****   *
  22:./User/Src/stm32f10x_it.c ****   * <h2><center>&copy; COPYRIGHT 2011 STMicroelectronics</center></h2>
  23:./User/Src/stm32f10x_it.c ****   ******************************************************************************
  24:./User/Src/stm32f10x_it.c ****   */
  25:./User/Src/stm32f10x_it.c **** 
  26:./User/Src/stm32f10x_it.c **** /* Includes ------------------------------------------------------------------*/
  27:./User/Src/stm32f10x_it.c **** #include "stm32f10x_it.h"
  28:./User/Src/stm32f10x_it.c **** 
  29:./User/Src/stm32f10x_it.c **** 
  30:./User/Src/stm32f10x_it.c **** 
  31:./User/Src/stm32f10x_it.c **** 
  32:./User/Src/stm32f10x_it.c **** /** @addtogroup STM32F10x_StdPeriph_Template
ARM GAS  /tmp/ccFuWQ5p.s 			page 2


  33:./User/Src/stm32f10x_it.c ****   * @{
  34:./User/Src/stm32f10x_it.c ****   */
  35:./User/Src/stm32f10x_it.c **** 
  36:./User/Src/stm32f10x_it.c **** /* Private typedef -----------------------------------------------------------*/
  37:./User/Src/stm32f10x_it.c **** /* Private define ------------------------------------------------------------*/
  38:./User/Src/stm32f10x_it.c **** /* Private macro -------------------------------------------------------------*/
  39:./User/Src/stm32f10x_it.c **** /* Private variables ---------------------------------------------------------*/
  40:./User/Src/stm32f10x_it.c **** /* Private function prototypes -----------------------------------------------*/
  41:./User/Src/stm32f10x_it.c **** /* Private functions ---------------------------------------------------------*/
  42:./User/Src/stm32f10x_it.c **** 
  43:./User/Src/stm32f10x_it.c **** /******************************************************************************/
  44:./User/Src/stm32f10x_it.c **** /*            Cortex-M3 Processor Exceptions Handlers                         */
  45:./User/Src/stm32f10x_it.c **** /******************************************************************************/
  46:./User/Src/stm32f10x_it.c **** 
  47:./User/Src/stm32f10x_it.c **** /**
  48:./User/Src/stm32f10x_it.c ****   * @brief  This function handles NMI exception.
  49:./User/Src/stm32f10x_it.c ****   * @param  None
  50:./User/Src/stm32f10x_it.c ****   * @retval None
  51:./User/Src/stm32f10x_it.c ****   */
  52:./User/Src/stm32f10x_it.c **** void NMI_Handler(void)
  53:./User/Src/stm32f10x_it.c **** {
  27              		.loc 1 53 1 view -0
  28              		.cfi_startproc
  29              		@ args = 0, pretend = 0, frame = 0
  30              		@ frame_needed = 0, uses_anonymous_args = 0
  31              		@ link register save eliminated.
  54:./User/Src/stm32f10x_it.c **** }
  32              		.loc 1 54 1 view .LVU1
  33 0000 7047     		bx	lr
  34              		.cfi_endproc
  35              	.LFE29:
  37              		.section	.text.HardFault_Handler,"ax",%progbits
  38              		.align	1
  39              		.global	HardFault_Handler
  40              		.syntax unified
  41              		.thumb
  42              		.thumb_func
  43              		.fpu softvfp
  45              	HardFault_Handler:
  46              	.LFB30:
  55:./User/Src/stm32f10x_it.c **** 
  56:./User/Src/stm32f10x_it.c **** /**
  57:./User/Src/stm32f10x_it.c ****   * @brief  This function handles Hard Fault exception.
  58:./User/Src/stm32f10x_it.c ****   * @param  None
  59:./User/Src/stm32f10x_it.c ****   * @retval None
  60:./User/Src/stm32f10x_it.c ****   */
  61:./User/Src/stm32f10x_it.c **** void HardFault_Handler(void)
  62:./User/Src/stm32f10x_it.c **** {
  47              		.loc 1 62 1 view -0
  48              		.cfi_startproc
  49              		@ Volatile: function does not return.
  50              		@ args = 0, pretend = 0, frame = 0
  51              		@ frame_needed = 0, uses_anonymous_args = 0
  52              		@ link register save eliminated.
  53              	.L3:
  63:./User/Src/stm32f10x_it.c ****   /* Go to infinite loop when Hard Fault exception occurs */
  64:./User/Src/stm32f10x_it.c ****   while (1)
ARM GAS  /tmp/ccFuWQ5p.s 			page 3


  54              		.loc 1 64 3 discriminator 1 view .LVU3
  65:./User/Src/stm32f10x_it.c ****   {
  66:./User/Src/stm32f10x_it.c ****   }
  55              		.loc 1 66 3 discriminator 1 view .LVU4
  64:./User/Src/stm32f10x_it.c ****   {
  56              		.loc 1 64 9 discriminator 1 view .LVU5
  57 0000 FEE7     		b	.L3
  58              		.cfi_endproc
  59              	.LFE30:
  61              		.section	.text.MemManage_Handler,"ax",%progbits
  62              		.align	1
  63              		.global	MemManage_Handler
  64              		.syntax unified
  65              		.thumb
  66              		.thumb_func
  67              		.fpu softvfp
  69              	MemManage_Handler:
  70              	.LFB31:
  67:./User/Src/stm32f10x_it.c **** }
  68:./User/Src/stm32f10x_it.c **** 
  69:./User/Src/stm32f10x_it.c **** /**
  70:./User/Src/stm32f10x_it.c ****   * @brief  This function handles Memory Manage exception.
  71:./User/Src/stm32f10x_it.c ****   * @param  None
  72:./User/Src/stm32f10x_it.c ****   * @retval None
  73:./User/Src/stm32f10x_it.c ****   */
  74:./User/Src/stm32f10x_it.c **** void MemManage_Handler(void)
  75:./User/Src/stm32f10x_it.c **** {
  71              		.loc 1 75 1 view -0
  72              		.cfi_startproc
  73              		@ Volatile: function does not return.
  74              		@ args = 0, pretend = 0, frame = 0
  75              		@ frame_needed = 0, uses_anonymous_args = 0
  76              		@ link register save eliminated.
  77              	.L5:
  76:./User/Src/stm32f10x_it.c ****   /* Go to infinite loop when Memory Manage exception occurs */
  77:./User/Src/stm32f10x_it.c ****   while (1)
  78              		.loc 1 77 3 discriminator 1 view .LVU7
  78:./User/Src/stm32f10x_it.c ****   {
  79:./User/Src/stm32f10x_it.c ****   }
  79              		.loc 1 79 3 discriminator 1 view .LVU8
  77:./User/Src/stm32f10x_it.c ****   {
  80              		.loc 1 77 9 discriminator 1 view .LVU9
  81 0000 FEE7     		b	.L5
  82              		.cfi_endproc
  83              	.LFE31:
  85              		.section	.text.BusFault_Handler,"ax",%progbits
  86              		.align	1
  87              		.global	BusFault_Handler
  88              		.syntax unified
  89              		.thumb
  90              		.thumb_func
  91              		.fpu softvfp
  93              	BusFault_Handler:
  94              	.LFB32:
  80:./User/Src/stm32f10x_it.c **** }
  81:./User/Src/stm32f10x_it.c **** 
  82:./User/Src/stm32f10x_it.c **** /**
ARM GAS  /tmp/ccFuWQ5p.s 			page 4


  83:./User/Src/stm32f10x_it.c ****   * @brief  This function handles Bus Fault exception.
  84:./User/Src/stm32f10x_it.c ****   * @param  None
  85:./User/Src/stm32f10x_it.c ****   * @retval None
  86:./User/Src/stm32f10x_it.c ****   */
  87:./User/Src/stm32f10x_it.c **** void BusFault_Handler(void)
  88:./User/Src/stm32f10x_it.c **** {
  95              		.loc 1 88 1 view -0
  96              		.cfi_startproc
  97              		@ Volatile: function does not return.
  98              		@ args = 0, pretend = 0, frame = 0
  99              		@ frame_needed = 0, uses_anonymous_args = 0
 100              		@ link register save eliminated.
 101              	.L7:
  89:./User/Src/stm32f10x_it.c ****   /* Go to infinite loop when Bus Fault exception occurs */
  90:./User/Src/stm32f10x_it.c ****   while (1)
 102              		.loc 1 90 3 discriminator 1 view .LVU11
  91:./User/Src/stm32f10x_it.c ****   {
  92:./User/Src/stm32f10x_it.c ****   }
 103              		.loc 1 92 3 discriminator 1 view .LVU12
  90:./User/Src/stm32f10x_it.c ****   {
 104              		.loc 1 90 9 discriminator 1 view .LVU13
 105 0000 FEE7     		b	.L7
 106              		.cfi_endproc
 107              	.LFE32:
 109              		.section	.text.UsageFault_Handler,"ax",%progbits
 110              		.align	1
 111              		.global	UsageFault_Handler
 112              		.syntax unified
 113              		.thumb
 114              		.thumb_func
 115              		.fpu softvfp
 117              	UsageFault_Handler:
 118              	.LFB33:
  93:./User/Src/stm32f10x_it.c **** }
  94:./User/Src/stm32f10x_it.c **** 
  95:./User/Src/stm32f10x_it.c **** /**
  96:./User/Src/stm32f10x_it.c ****   * @brief  This function handles Usage Fault exception.
  97:./User/Src/stm32f10x_it.c ****   * @param  None
  98:./User/Src/stm32f10x_it.c ****   * @retval None
  99:./User/Src/stm32f10x_it.c ****   */
 100:./User/Src/stm32f10x_it.c **** void UsageFault_Handler(void)
 101:./User/Src/stm32f10x_it.c **** {
 119              		.loc 1 101 1 view -0
 120              		.cfi_startproc
 121              		@ Volatile: function does not return.
 122              		@ args = 0, pretend = 0, frame = 0
 123              		@ frame_needed = 0, uses_anonymous_args = 0
 124              		@ link register save eliminated.
 125              	.L9:
 102:./User/Src/stm32f10x_it.c ****   /* Go to infinite loop when Usage Fault exception occurs */
 103:./User/Src/stm32f10x_it.c ****   while (1)
 126              		.loc 1 103 3 discriminator 1 view .LVU15
 104:./User/Src/stm32f10x_it.c ****   {
 105:./User/Src/stm32f10x_it.c ****   }
 127              		.loc 1 105 3 discriminator 1 view .LVU16
 103:./User/Src/stm32f10x_it.c ****   {
 128              		.loc 1 103 9 discriminator 1 view .LVU17
ARM GAS  /tmp/ccFuWQ5p.s 			page 5


 129 0000 FEE7     		b	.L9
 130              		.cfi_endproc
 131              	.LFE33:
 133              		.section	.text.SVC_Handler,"ax",%progbits
 134              		.align	1
 135              		.global	SVC_Handler
 136              		.syntax unified
 137              		.thumb
 138              		.thumb_func
 139              		.fpu softvfp
 141              	SVC_Handler:
 142              	.LFB34:
 106:./User/Src/stm32f10x_it.c **** }
 107:./User/Src/stm32f10x_it.c **** 
 108:./User/Src/stm32f10x_it.c **** /**
 109:./User/Src/stm32f10x_it.c ****   * @brief  This function handles SVCall exception.
 110:./User/Src/stm32f10x_it.c ****   * @param  None
 111:./User/Src/stm32f10x_it.c ****   * @retval None
 112:./User/Src/stm32f10x_it.c ****   */
 113:./User/Src/stm32f10x_it.c **** void SVC_Handler(void)
 114:./User/Src/stm32f10x_it.c **** {
 143              		.loc 1 114 1 view -0
 144              		.cfi_startproc
 145              		@ args = 0, pretend = 0, frame = 0
 146              		@ frame_needed = 0, uses_anonymous_args = 0
 147              		@ link register save eliminated.
 115:./User/Src/stm32f10x_it.c **** }
 148              		.loc 1 115 1 view .LVU19
 149 0000 7047     		bx	lr
 150              		.cfi_endproc
 151              	.LFE34:
 153              		.section	.text.DebugMon_Handler,"ax",%progbits
 154              		.align	1
 155              		.global	DebugMon_Handler
 156              		.syntax unified
 157              		.thumb
 158              		.thumb_func
 159              		.fpu softvfp
 161              	DebugMon_Handler:
 162              	.LFB35:
 116:./User/Src/stm32f10x_it.c **** 
 117:./User/Src/stm32f10x_it.c **** /**
 118:./User/Src/stm32f10x_it.c ****   * @brief  This function handles Debug Monitor exception.
 119:./User/Src/stm32f10x_it.c ****   * @param  None
 120:./User/Src/stm32f10x_it.c ****   * @retval None
 121:./User/Src/stm32f10x_it.c ****   */
 122:./User/Src/stm32f10x_it.c **** void DebugMon_Handler(void)
 123:./User/Src/stm32f10x_it.c **** {
 163              		.loc 1 123 1 view -0
 164              		.cfi_startproc
 165              		@ args = 0, pretend = 0, frame = 0
 166              		@ frame_needed = 0, uses_anonymous_args = 0
 167              		@ link register save eliminated.
 124:./User/Src/stm32f10x_it.c **** }
 168              		.loc 1 124 1 view .LVU21
 169 0000 7047     		bx	lr
 170              		.cfi_endproc
ARM GAS  /tmp/ccFuWQ5p.s 			page 6


 171              	.LFE35:
 173              		.section	.text.PendSV_Handler,"ax",%progbits
 174              		.align	1
 175              		.global	PendSV_Handler
 176              		.syntax unified
 177              		.thumb
 178              		.thumb_func
 179              		.fpu softvfp
 181              	PendSV_Handler:
 182              	.LFB36:
 125:./User/Src/stm32f10x_it.c **** 
 126:./User/Src/stm32f10x_it.c **** /**
 127:./User/Src/stm32f10x_it.c ****   * @brief  This function handles PendSVC exception.
 128:./User/Src/stm32f10x_it.c ****   * @param  None
 129:./User/Src/stm32f10x_it.c ****   * @retval None
 130:./User/Src/stm32f10x_it.c ****   */
 131:./User/Src/stm32f10x_it.c **** void PendSV_Handler(void)
 132:./User/Src/stm32f10x_it.c **** {
 183              		.loc 1 132 1 view -0
 184              		.cfi_startproc
 185              		@ args = 0, pretend = 0, frame = 0
 186              		@ frame_needed = 0, uses_anonymous_args = 0
 187              		@ link register save eliminated.
 133:./User/Src/stm32f10x_it.c **** }
 188              		.loc 1 133 1 view .LVU23
 189 0000 7047     		bx	lr
 190              		.cfi_endproc
 191              	.LFE36:
 193              		.section	.text.SysTick_Handler,"ax",%progbits
 194              		.align	1
 195              		.global	SysTick_Handler
 196              		.syntax unified
 197              		.thumb
 198              		.thumb_func
 199              		.fpu softvfp
 201              	SysTick_Handler:
 202              	.LFB37:
 134:./User/Src/stm32f10x_it.c **** 
 135:./User/Src/stm32f10x_it.c **** /**
 136:./User/Src/stm32f10x_it.c ****   * @brief  This function handles SysTick Handler.
 137:./User/Src/stm32f10x_it.c ****   * @param  None
 138:./User/Src/stm32f10x_it.c ****   * @retval None
 139:./User/Src/stm32f10x_it.c ****   */
 140:./User/Src/stm32f10x_it.c **** void SysTick_Handler(void)
 141:./User/Src/stm32f10x_it.c **** {
 203              		.loc 1 141 1 view -0
 204              		.cfi_startproc
 205              		@ args = 0, pretend = 0, frame = 0
 206              		@ frame_needed = 0, uses_anonymous_args = 0
 207              		@ link register save eliminated.
 142:./User/Src/stm32f10x_it.c **** 
 143:./User/Src/stm32f10x_it.c **** }
 208              		.loc 1 143 1 view .LVU25
 209 0000 7047     		bx	lr
 210              		.cfi_endproc
 211              	.LFE37:
 213              		.text
ARM GAS  /tmp/ccFuWQ5p.s 			page 7


 214              	.Letext0:
ARM GAS  /tmp/ccFuWQ5p.s 			page 8

